{
  "main_library": {
    "exported_symbols": [
      {
        "data": {
          "global": [
            "__ZTIN5realm11NoSuchTableE",
            "__ZTSN5realm19ColumnDictionaryKeyE",
            "__ZN5realm4sync7network3ssl14error_categoryE",
            "___bid_ten2k64",
            "__ZTVN5realm9MixedNodeINS_5EqualEEE",
            "__ZTIN5realm14QueryStateBaseE",
            "_RLMServerLogURLKey",
            "__ZTIN5realm12query_parser11SyntaxErrorE",
            "__ZTIN5realm4sync7network28SecureTransportErrorCategoryE",
            "__ZTIN5realm4sync9websocket6ConfigE",
            "__ZTVN5realm14TableNameInUseE",
            "___bid_round_const_table_128",
            "__ZTIN5realm5_impl12client_reset29RecoverLocalChangesetsHandlerE",
            "__ZN5realm4util17InterprocessMutex10s_info_mapE",
            "__ZN5realm23string_compare_callbackE",
            "___bid_ten2mxtrunc64",
            "__ZTIN5realm19QueryStateFindFirstE",
            "___bid_reciprocals10_128",
            "__ZN5realm3app22IdentityProviderCustomE",
            "__ZTIN5realm14NotImplementedE",
            "___bid_estimate_bin_expon",
            "__ZN5realm3app22IdentityProviderAPIKeyE",
            "__ZTIN5realm15LimitDescriptorE",
            "__ZTSN5realm12ArrayIntegerE",
            "__ZTIN5realm15ArrayDecimal128E",
            "__ZTVN5realm12RuntimeErrorE",
            "__ZTIN5realm10ParentNodeE",
            "__ZTVN5realm11NotNullableE",
            "__ZTIN5realm4sync17ClientReplicationE",
            "_bid_bid_bid_recip_scale32",
            "__ZTSN5realm15FileAccessErrorE",
            "__ZTVN5realm5_impl12ListNotifierE",
            "__ZTSN5realm12RuntimeErrorE",
            "__ZTVN5realm4sync13ClientHistoryE",
            "__ZTVN5realm4sync14SessionWrapperE",
            "__ZTSN5realm4util12PrefixLoggerE",
            "__ZTSN5realm18StringNodeFulltextE",
            "__ZTIN5realm14SortDescriptorE",
            "__ZN5realm11avx_supportE",
            "__ZTIN5realm5_impl12client_reset29RecoverLocalChangesetsHandler16RecoveryResolverE",
            "__ZTVN5realm16DefaultTokenizerE",
            "___bid_maskhigh256M",
            "__ZTSN5realm4util16ThreadSafeLoggerE",
            "__ZTIN5realm12object_store10DictionaryE",
            "__ZTSN5realm10LogicErrorE",
            "__ZN5realm8SentinelINS_4UUIDEE10null_valueE",
            "___bid_Tento3",
            "__ZTSN5realm7NotNodeE",
            "__ZTSN5realm20PropertyTypeMismatchE",
            "__ZTVN5realm5Group18DefaultTableWriterE",
            "__ZTVN5realm9SlabAllocE",
            "__ZTIN5realm10LogicErrorE",
            "__ZN5realm13BackupHandler16delete_versions_E",
            "__ZTIN5realm15InvalidTableRefE",
            "__ZTVN5realm11ArrayBinaryE",
            "_RLMErrorCodeNameKey",
            "__ZTVN5realm7ObjListE",
            "___bid_onehalf128",
            "__ZTSN5realm13BPlusTreeNodeE",
            "__ZTSN5realm11TransactionE",
            "__ZTIN5realm9TableViewE",
            "___bid_ten2mk64",
            "__ZTVN5realm18MultipleSyncAgentsE",
            "__ZTVN5realm18StringNodeFulltextE",
            "__ZTSN5realm9TableViewE",
            "__ZTIN5realm11TransactionE",
            "__ZTSN5realm16IllegalOperationE",
            "__ZTSN5realm4util16RunLoopSchedulerE",
            "__ZTVN5realm14ExpressionNodeE",
            "__ZTIN5realm16IllegalOperationE",
            "__ZTIN5realm11OutOfBoundsE",
            "_RealmVersionNumber",
            "___bid_onehalf192M",
            "__ZTVN5realm4sync9websocket6ConfigE",
            "__ZTIN5realm4sync9websocket21DefaultSocketProviderE",
            "__ZTIN5realm15FileAccessErrorE",
            "___bid_ten2mk192M",
            "__ZN5realm21string_compare_methodE",
            "__ZTVN5realm4ListE",
            "__ZTIN5realm20ColumnDictionaryKeysE",
            "__ZTSN5realm4util22DispatchQueueSchedulerE",
            "__ZTSN5realm16DefaultTokenizerE",
            "__ZTIN5realm11ClusterTreeE",
            "__ZTIN5realm5_impl15CopyReplicationE",
            "__ZTSN5realm4sync17ClientReplicationE",
            "__ZTIN5realm7ClusterE",
            "__ZN5realm11sse_supportE",
            "__ZTVN5realm12object_store3SetE",
            "__ZTVN5realm15LimitDescriptorE",
            "_RLMUnknownSystemErrorDomain",
            "__ZTIN5realm10DictionaryE",
            "__ZTIN5realm4sync7network3ssl20ProtocolNotSupportedE",
            "__ZTIN5realm12query_parser20InvalidQueryArgErrorE",
            "_RLMErrorCodeKey",
            "_bid_bid_reciprocals10_32",
            "__ZTVN5realm19StringNodeEqualBaseE",
            "__ZTSN5realm4sync7network3ssl20ProtocolNotSupportedE",
            "___bid_shiftright128M",
            "___bid_IDEC_glbround",
            "___bid_ten2mk128M",
            "__ZTVN5realm11OutOfBoundsE",
            "__ZTSN5realm4sync18InstructionApplier12PathResolverE",
            "__ZTVN5realm7NotNodeE",
            "___bid_mask192",
            "___bid_onehalf128M",
            "__ZTSN5realm18DistinctDescriptorE",
            "__ZTVN5realm4sync9websocket21DefaultSocketProviderE",
            "__ZTSN5realm7ColumnsINS_10DictionaryEEE",
            "__ZTSN5realm4util9SchedulerE",
            "__ZTVN5realm4sync15SyncReplicationE",
            "__ZTVN5realm11TransactionE",
            "__ZTVN5realm20InvalidEncryptionKeyE",
            "___bid_power10_table_128",
            "__ZTIN5realm5_impl15TransformerImplE",
            "__ZTSN5realm5_impl15CopyReplicationE",
            "__ZTVN5realm13BPlusTreeLeafE",
            "___bid_round_const_table",
            "__ZTIN5realm4sync15SyncReplicationE",
            "_s_defaultConfiguration",
            "__ZTIN5realm19ColumnDictionaryKeyE",
            "__ZTSN5realm22NoSubscriptionForWriteE",
            "__ZTVN5realm4sync7network3ssl20ProtocolNotSupportedE",
            "___bid_mask128",
            "_RLMRealmCoreVersionKey",
            "__ZTIN5realm5_impl12OutputStreamE",
            "__ZTVN5realm14NotImplementedE",
            "__ZTSN5realm10ParentNodeE",
            "__ZTVN5realm13BPlusTreeBaseE",
            "__ZTIN5realm18DistinctDescriptorE",
            "__ZTIN5realm11KeyNotFoundE",
            "__ZTVN5realm7ColumnsINS_4LinkEEE",
            "__ZTIN5realm12RuntimeErrorE",
            "__ZTSN5realm14ExpressionNodeE",
            "__ZN5realm3app24IdentityProviderFacebookE",
            "__ZTSN5realm4sync9websocket21DefaultSocketProviderE",
            "___bid_mask64",
            "__ZTSN5realm14OutOfDiskSpaceE",
            "__ZTIN5realm5GroupE",
            "__ZTSN5realm11SystemErrorE",
            "__ZTVN5realm21AddressSpaceExhaustedE",
            "__ZTVN5realm9TableViewE",
            "__ZTSN5realm12query_parser20InvalidQueryArgErrorE",
            "__ZTIN5realm15MigrationFailedE",
            "__ZTSN5realm9MixedNodeINS_5EqualEEE",
            "_RLMUnsupportedTypesFoundInPropertyComparisonException",
            "___bid_ten2mk128",
            "__ZTSN5realm4sync7network20OpensslErrorCategoryE",
            "__ZTVN5realm5_impl12client_reset29RecoverLocalChangesetsHandlerE",
            "_RLMHTTPStatusCodeKey",
            "__ZTIN5realm12query_parser17InvalidQueryErrorE",
            "__ZTIN5realm19ObjectAlreadyExistsE",
            "__ZTVN5realm4sync18InstructionApplierE",
            "__ZTVN5realm18SerializationErrorE",
            "__ZTVN5realm14SortDescriptorE",
            "__ZTVN5realm7ColumnsINS_10DictionaryEEE",
            "__ZTIN5realm18StringNodeFulltextE",
            "__ZTVN5realm4util12StreamLoggerE",
            "__ZTSN5realm7ClusterE",
            "_RLMBackupRealmConfigurationErrorKey",
            "__ZTSN5realm5_impl15ResultsNotifierE",
            "__ZTVN5realm21WrongTransactionStateE",
            "__ZTSN5realm17ColumnsDescriptorE",
            "__ZTIN5realm7ColumnsINS_10DictionaryEEE",
            "__ZTVN5realm15QueryStateCountE",
            "___bid_ten2mk256truncM",
            "__ZTSN5realm16ClusterNodeInnerE",
            "__ZTIN5realm7ColumnsINS_4LinkEEE",
            "__ZTVN5realm14KeyAlreadyUsedE",
            "__ZTIN5realm5_impl18CollectionNotifierE",
            "__ZTIN5realm10StringNodeINS_5EqualEEE",
            "_RealmVersionString",
            "__ZTIN5realm21AddressSpaceExhaustedE",
            "___bid_mod10_18_tbl",
            "__ZN5realm9DBOptions11sys_tmp_dirE",
            "__ZTVN5realm4util12StderrLoggerE",
            "___bid_short_recip_scale",
            "__ZN5realm3app22IdentityProviderGoogleE",
            "__ZTSN5realm11NotNullableE",
            "__ZTSN5realm15InvalidTableRefE",
            "__ZTVN5realm5_impl12client_reset29RecoverLocalChangesetsHandler16RecoveryResolverE",
            "__ZTSN5realm21AuditObjectSerializerE",
            "__ZTIN5realm11GroupWriterE",
            "___bid_ten2mxtrunc128",
            "___bid_ten2m3k64",
            "___bid_Kx64",
            "___bid_maskhigh192M",
            "__ZTIN5realm15QueryStateCountE",
            "__ZTIN5realm4util16RunLoopSchedulerE",
            "__ZTSN5realm4ListE",
            "__ZTVN5realm4NodeE",
            "__ZTIN5realm9MixedNodeINS_5EqualEEE",
            "__ZTIN5realm12ArrayIntNullE",
            "__ZTVN5realm22NoSubscriptionForWriteE",
            "__ZTSN5realm14KeyAlreadyUsedE",
            "__ZN5realm4util13mapping_mutexE",
            "__ZTVN5realm11ArrayStringE",
            "_kRLMSyncPathOfRealmBackupCopyKey",
            "__ZTVN5realm4util16RunLoopSchedulerE",
            "__ZTSN5realm23MaximumFileSizeExceededE",
            "__ZTIN5realm14ExpressionNodeE",
            "__ZTSN5realm12ArrayPayloadE",
            "___bid_midpoint256",
            "_RLMNotVersioned",
            "__ZN5realm8IndexSet4nposE",
            "__ZTSN5realm14BPlusTreeInnerE",
            "___bid_midpoint64",
            "___bid_onehalf256M",
            "__ZTVN5realm20DictionaryLinkValuesE",
            "__ZTSN5realm5Group18DefaultTableWriterE",
            "__ZTVN5realm13BPlusTreeNodeE",
            "__ZTVN5realm5GroupE",
            "__ZTIN5realm4sync7network20OpensslErrorCategoryE",
            "_RLMRealmVersionKey",
            "__ZTVN5realm9ExceptionE",
            "__ZTIN5realm18SerializationErrorE",
            "___bid_shift_ten2m3k128",
            "__ZTVN5realm16IllegalOperationE",
            "___bid_ten2mxtrunc192",
            "__ZTIN5realm4sync13ClientHistoryE",
            "___bid_convert_table",
            "__ZTSN5realm19ObjectAlreadyExistsE",
            "___bid_Ex128m128",
            "___bid_maskhigh128M",
            "__ZN5realm12CreatePolicy7SetLinkE",
            "__ZTVN5realm20PropertyTypeMismatchE",
            "__ZTVN5realm12ArrayIntNullE",
            "__ZN5realm3app21IdentityProviderAppleE",
            "__ZTVN5realm10StringNodeINS_5EqualEEE",
            "__ZN5realm9SlabAlloc17empty_file_headerE",
            "___bid_Kx128",
            "__ZTIN5realm14TableNameInUseE",
            "_RLMInvalidatedKey",
            "__ZTIN5realm4util12StderrLoggerE",
            "__ZTIN5realm4util20MemoryInputStreambufE",
            "__ZN5realm4util17InterprocessMutex7s_mutexE",
            "__ZTIN5realm4sync18InstructionApplier12PathResolverE",
            "__ZTVN5realm12query_parser11SyntaxErrorE",
            "__ZTSN5realm19QueryStateFindFirstE",
            "__ZTVN5realm10LogicErrorE",
            "__ZTVN5realm19ColumnDictionaryKeyE",
            "__ZTVN5realm14BPlusTreeInnerE",
            "__ZTSN5realm10StringNodeINS_5EqualEEE",
            "__ZTSN5realm9ExceptionE",
            "__ZTIN5realm4util12StreamLoggerE",
            "__ZN5realm4sync7network31secure_transport_error_categoryE",
            "__ZN5realm3app24IdentityProviderFunctionE",
            "___bid_Twoto30_m_10to9",
            "__ZTVN5realm11ClusterTreeE",
            "___bid_half256",
            "__ZTSN5realm11NoSuchTableE",
            "___bid_nr_digits",
            "__ZTSN5realm20DictionaryLinkValuesE",
            "__ZTSN5realm5_impl19ListResultsNotifierE",
            "__ZTSN5realm11KeyNotFoundE",
            "__ZTIN5realm13BPlusTreeBaseE",
            "__ZTVN5realm23MaximumFileSizeExceededE",
            "__ZTVN5realm15InvalidArgumentE",
            "__ZTSN5realm4sync14SessionWrapperE",
            "___bid_Tento9",
            "___bid_shiftright192M",
            "__ZTVN5realm4util9SchedulerE",
            "__ZTSN5realm9TokenizerE",
            "__ZTSN5realm15QueryStateCountE",
            "__ZTIN5realm11NotNullableE",
            "__ZTIN5realm18MultipleSyncAgentsE",
            "__ZTIN5realm20DictionaryLinkValuesE",
            "_RLMAppErrorDomain",
            "__ZTSN5realm10StringNodeINS_8EqualInsEEE",
            "__ZTSN5realm4util12StderrLoggerE",
            "__ZTIN5realm4util12PrefixLoggerE",
            "__ZN5realm8SentinelINS_8ObjectIdEE10null_valueE",
            "__ZTSN5realm4util20LocalThresholdLoggerE",
            "__ZTIN5realm23MaximumFileSizeExceededE",
            "___bid_reciprocals10_64",
            "__ZTIN5realm16ArrayStringShortE",
            "__ZTSN5realm20ColumnDictionaryKeysE",
            "__ZTIN5realm28UnsupportedFileFormatVersionE",
            "__ZTSN5realm12object_store10CollectionE",
            "__ZTVN5realm5_impl19ListResultsNotifierE",
            "___bid_estimate_decimal_digits",
            "__ZN5realm8SyncUser31s_binding_context_factory_mutexE",
            "__ZTIN5realm11ReplicationE",
            "_RLMSyncAuthErrorDomain",
            "__ZTVN5realm28UnsupportedFileFormatVersionE",
            "__ZTVN5realm4util12PrefixLoggerE",
            "___bid_midi_tbl",
            "__ZTIN5realm7ObjListE",
            "__ZTSN5realm7ObjListE",
            "__ZTSN5realm14QueryStateBaseE",
            "__ZTVN5realm11SystemErrorE",
            "___bid_Inv_Tento9",
            "__ZTVN5realm4sync7network20OpensslErrorCategoryE",
            "__ZTIN5realm21WrongTransactionStateE",
            "__ZTIN5realm4util9SchedulerE",
            "___bid_factors",
            "_RLMCompensatingWriteInfoKey",
            "__ZTIN5realm11ArrayBinaryE",
            "__ZTVN5realm4sync7network28SecureTransportErrorCategoryE",
            "__ZTSN5realm21AddressSpaceExhaustedE",
            "__ZTVN5realm7ClusterE",
            "__ZTVN5realm9TokenizerE",
            "_kRLMSyncErrorActionTokenKey",
            "___bid_shiftright256M",
            "__ZTVN5realm10StringNodeINS_8EqualInsEEE",
            "__ZTIN5realm4sync18InstructionApplierE",
            "_RLMRealmRefreshRequiredNotification",
            "__ZN5realm12CreatePolicy14UpdateModifiedE",
            "__ZTSN5realm18SerializationErrorE",
            "___bid_ten2mk256M",
            "__ZTVN5realm13StaleAccessorE",
            "__ZN5realm5Table19g_dummy_replicationE",
            "___bid_ten2k256",
            "__ZTVN5realm14OutOfDiskSpaceE",
            "__ZTIN5realm4util20MiscExtErrorCategoryE",
            "__ZTSN5realm16InvalidColumnKeyE",
            "__ZTSN5realm5_impl15TransformerImplE",
            "_RLMExceptionName",
            "__ZTSN5realm12ArrayIntNullE",
            "__ZTVN5realm16ArrayStringShortE",
            "__ZTVN5realm16InvalidColumnKeyE",
            "__ZTIN5realm16InvalidColumnKeyE",
            "__ZTIN5realm5_impl19ListResultsNotifierE",
            "__ZN5realm3app32IdentityProviderUsernamePasswordE",
            "__ZTSN5realm4sync7network28SecureTransportErrorCategoryE",
            "___bid_shiftright128",
            "__ZTSN5realm12object_store3SetE",
            "___bid_half128",
            "__ZTIN5realm5Group18DefaultTableWriterE",
            "___bid_maskhigh128",
            "__ZN5realm4util23misc_ext_error_categoryE",
            "__ZTVN5realm11GroupWriterE",
            "__ZTSN5realm4sync18InstructionApplierE",
            "__ZTIN5realm12ArrayIntegerE",
            "_RLMErrorDomain",
            "__ZTVN5realm10DictionaryE",
            "__ZTIN5realm4util22DispatchQueueSchedulerE",
            "__ZTIN5realm10StringNodeINS_8EqualInsEEE",
            "__ZTSN5realm11ReplicationE",
            "__ZN5realm12CreatePolicy4SkipE",
            "__ZN5realm12log_messagesE",
            "__ZTIN5realm5_impl15ResultsNotifierE",
            "__ZTSN5realm4sync9websocket6ConfigE",
            "___bid_Twoto60_m_10to18",
            "__ZTSN5realm4util12StreamLoggerE",
            "__ZTIN5realm11ArrayStringE",
            "__ZTSN5realm15LimitDescriptorE",
            "__ZTSN5realm21WrongTransactionStateE",
            "__ZTVN5realm12object_store10CollectionE",
            "__ZTSN5realm5_impl12client_reset29RecoverLocalChangesetsHandler16RecoveryResolverE",
            "___bid_packed_10000_zeros",
            "__ZTIN5realm7NotNodeE",
            "__ZTSN5realm20InvalidEncryptionKeyE",
            "__ZTIN5realm9SlabAllocE",
            "___bid_Ex192m192",
            "__ZTVN5realm4sync7network3ssl13ErrorCategoryE",
            "__ZN5realm4sync12InternString4nposE",
            "__ZTVN5realm5_impl15TransformerImplE",
            "__ZTSN5realm11ArrayStringE",
            "__ZTIN5realm4util16ThreadSafeLoggerE",
            "__ZTSN5realm12query_parser11SyntaxErrorE",
            "___bid_ten2mk192truncM",
            "__ZTVN5realm19QueryStateFindFirstE",
            "___bid_Ex256m256",
            "__ZTIN5realm9TokenizerE",
            "_RLMSyncErrorDomain",
            "__ZTSN5realm14NotImplementedE",
            "__ZTSN5realm13BPlusTreeBaseE",
            "__ZTVN5realm15MigrationFailedE",
            "__ZTVN5realm5_impl15ResultsNotifierE",
            "__ZTSN5realm15ArrayDecimal128E",
            "__ZTSN5realm13StaleAccessorE",
            "_RLMRealmDidChangeNotification",
            "__ZTVN5realm14QueryStateBaseE",
            "___bid_Twoto60",
            "__ZTIN5realm21AuditObjectSerializerE",
            "___bid_Ex64m64",
            "__ZTVN5realm11ReplicationE",
            "___bid_recip_scale",
            "__ZTVN5realm10ParentNodeE",
            "__ZTSN5realm13BPlusTreeLeafE",
            "__ZTIN5realm4sync7network3ssl13ErrorCategoryE",
            "__ZN5realm4sync7network22openssl_error_categoryE",
            "__ZN5realm4util17InterprocessMutex11s_init_flagE",
            "___bid_shift_ten2m3k64",
            "__ZTSN5realm5_impl12client_reset29RecoverLocalChangesetsHandlerE",
            "__ZTSN5realm5_impl14ObjectNotifierE",
            "__ZN5realm5Group23fake_target_file_formatE",
            "___bid_midpoint128",
            "__ZTIN5realm16DefaultTokenizerE",
            "__ZTSN5realm4util20MiscExtErrorCategoryE",
            "___bid_half192",
            "__ZTSN5realm14TableNameInUseE",
            "__ZTVN5realm12query_parser17InvalidQueryErrorE",
            "__ZTIN5realm4ListE",
            "_RLMPropertiesComparisonTypeMismatchException",
            "__ZTVN5realm15FileAccessErrorE",
            "___bid_ten2m3k128",
            "__ZTSN5realm5_impl12OutputStreamE",
            "__ZTVN5realm5_impl18CollectionNotifierE",
            "__ZN5realm5Table15max_num_columnsE",
            "__ZTVN5realm4sync18InstructionApplier12PathResolverE",
            "___bid_char_table3",
            "__ZTIN5realm17ColumnsDescriptorE",
            "__ZTVN5realm4util20MemoryInputStreambufE",
            "__ZTIN5realm12ArrayPayloadE",
            "___bid_power10_index_binexp",
            "__ZTVN5realm4sync17ClientReplicationE",
            "__ZTVN5realm5_impl15CopyReplicationE",
            "__ZTVN5realm9MixedNodeINS_8EqualInsEEE",
            "__ZTVN5realm16ClusterNodeInnerE",
            "__ZTIN5realm9ExceptionE",
            "__ZTVN5realm4util22DispatchQueueSchedulerE",
            "__ZTIN5realm13BPlusTreeNodeE",
            "__ZTIN5realm11SystemErrorE",
            "___bid_mask256",
            "__ZTSN5realm10DictionaryE",
            "__ZN5realm12CreatePolicy11ForceCreateE",
            "___bid_ten2mxtrunc256",
            "__ZTIN5realm4sync14SessionWrapperE",
            "__ZN5realm12CreatePolicy9UpdateAllE",
            "__ZTVN5realm5_impl12OutputStreamE",
            "__ZTSN5realm4util20MemoryInputStreambufE",
            "__ZTSN5realm28UnsupportedFileFormatVersionE",
            "__ZTSN5realm15InvalidArgumentE",
            "__ZTSN5realm5GroupE",
            "__ZTIN5realm14KeyAlreadyUsedE",
            "__ZTVN5realm11NoSuchTableE",
            "__ZTIN5realm9MixedNodeINS_8EqualInsEEE",
            "__ZTSN5realm12query_parser17InvalidQueryErrorE",
            "__ZTSN5realm11GroupWriterE",
            "___bid_midpoint192",
            "__ZTSN5realm15MigrationFailedE",
            "__ZTVN5realm12object_store10DictionaryE",
            "__ZTIN5realm13StaleAccessorE",
            "__ZTSN5realm5_impl12ListNotifierE",
            "__ZTVN5realm19ObjectAlreadyExistsE",
            "___bid_char_table2",
            "___bid_Tento6",
            "__ZTVN5realm4util20MiscExtErrorCategoryE",
            "_RLMDescriptionMaxDepth",
            "__ZTVN5realm3app3AppE",
            "__ZTSN5realm5_impl18CollectionNotifierE",
            "__ZTVN5realm20ColumnDictionaryKeysE",
            "___bid_power10_index_binexp_128",
            "__ZTIN5realm16ClusterNodeInnerE",
            "__ZTSN5realm16ArrayStringShortE",
            "__ZTSN5realm20CrossTableLinkTargetE",
            "__ZTSN5realm11OutOfBoundsE",
            "__ZTVN5realm4util20LocalThresholdLoggerE",
            "__ZTIN5realm4NodeE",
            "__ZTSN5realm11ArrayBinaryE",
            "__ZTIN5realm14OutOfDiskSpaceE",
            "__ZTVN5realm21AuditObjectSerializerE",
            "__ZTIN5realm12object_store10CollectionE",
            "___bid_ten2mk128truncM",
            "___bid_Kx256",
            "__ZTVN5realm18DistinctDescriptorE",
            "__ZTSN5realm4sync13ClientHistoryE",
            "__ZTSN5realm3app3AppE",
            "__ZTVN5realm4util16ThreadSafeLoggerE",
            "___bid_half64",
            "___bid_Kx192",
            "__ZTSN5realm4NodeE",
            "__ZTIN5realm14BPlusTreeInnerE",
            "__ZTVN5realm12ArrayPayloadE",
            "__ZN5realm3app25IdentityProviderAnonymousE",
            "__ZN5realm8SyncUser25s_binding_context_factoryE",
            "__ZTIN5realm20PropertyTypeMismatchE",
            "__ZTVN5realm15InvalidTableRefE",
            "__ZTVN5realm20CrossTableLinkTargetE",
            "__ZTVN5realm15ArrayDecimal128E",
            "__ZTIN5realm20InvalidEncryptionKeyE",
            "__ZTIN5realm12object_store3SetE",
            "__ZTIN5realm22NoSubscriptionForWriteE",
            "__ZN5realm13BackupHandler18accepted_versions_E",
            "___bid_ten2k128",
            "__ZTVN5realm12query_parser20InvalidQueryArgErrorE",
            "__ZTIN5realm3app3AppE",
            "__ZTVN5realm17ColumnsDescriptorE",
            "__ZTSN5realm19StringNodeEqualBaseE",
            "__ZTIN5realm13BPlusTreeLeafE",
            "__ZTVN5realm11KeyNotFoundE",
            "__ZTIN5realm19StringNodeEqualBaseE",
            "__ZTSN5realm9MixedNodeINS_8EqualInsEEE",
            "__ZTVN5realm12ArrayIntegerE",
            "__ZTIN5realm15InvalidArgumentE",
            "__ZTSN5realm9SlabAllocE",
            "__ZTSN5realm18MultipleSyncAgentsE",
            "__ZTSN5realm4sync15SyncReplicationE",
            "__ZTSN5realm14SortDescriptorE",
            "__ZTSN5realm11ClusterTreeE",
            "__ZTSN5realm4sync7network3ssl13ErrorCategoryE",
            "__ZTSN5realm12object_store10DictionaryE",
            "__ZTSN5realm7ColumnsINS_4LinkEEE",
            "___bid_ten2mk128trunc",
            "__ZTIN5realm20CrossTableLinkTargetE",
            "__ZTIN5realm4util20LocalThresholdLoggerE",
            "__ZTIN5realm5_impl12ListNotifierE",
            "__ZTVN5realm5_impl14ObjectNotifierE",
            "__ZTIN5realm5_impl14ObjectNotifierE"
          ],
          "objc_class": [
            "RLMRealmNotificationToken",
            "RLMRealm",
            "RLMEventSessionDelegate",
            "RLMNetworkTransport",
            "RLMAsyncDownloadTask",
            "RLMResponse",
            "RLMNotificationToken",
            "RLMEventConfiguration",
            "RLMCompensatingWriteInfo",
            "RLMSchema",
            "RLMAsyncWriteTask",
            "RLMMinKey",
            "RLMPropertyChange",
            "RLMSyncSubscription",
            "RLMSectionedResultsEnumerator",
            "RLMAppConfiguration",
            "RLMLogger",
            "RLMSwiftCollectionBase",
            "RLMLinkingObjectsHandle",
            "RLMMongoClient",
            "RLMManagedArrayHandoverMetadata",
            "RLMManagedArray",
            "RLMActorScheduler",
            "RLMArrayHolder",
            "RLMUserIdentity",
            "RLMEmbeddedObject",
            "RLMObjectBase",
            "RLMManagedPropertyAccessor",
            "RLMSwiftSupport",
            "RLMManagedDictionary",
            "RLMCancellationToken",
            "RLMObjectId",
            "RLMEmailPasswordAuth",
            "RLMScheduler",
            "RLMChangeStream",
            "RLMObject",
            "RLMManagedSetHandoverMetadata",
            "RLMSortDescriptor",
            "RLMThreadSafeReference",
            "RLMSet",
            "RLMAsymmetricObject",
            "RLMManagedSet",
            "RLMSyncSubscriptionSet",
            "RLMResults",
            "RLMObjectSchema",
            "RLMUserAPIKey",
            "RLMCollectionChange",
            "RealmSwiftEmbeddedObject",
            "RLMFindOptions",
            "RLMFindOneAndModifyOptions",
            "RLMProperty",
            "RLMCredentials",
            "RealmSwiftObject",
            "RLMSection",
            "RealmSwiftAsymmetricObject",
            "RLMSyncSession",
            "RLMDecimal128",
            "RLMUser",
            "PodsDummy_Realm",
            "RLMLinkingObjects",
            "RLMUserProfile",
            "RLMPropertyDescriptor",
            "RLMObjectNotificationToken",
            "RLMPrivateSchema",
            "RLMAppSubscriptionToken",
            "RLMAsyncOpenTask",
            "RLMManagedCollectionHandoverMetadata",
            "RLMPinnedRealm",
            "RLMPushClient",
            "RLMMaxKey",
            "RLMDictionaryChange",
            "RLMSyncErrorActionToken",
            "RLMMainRunLoopScheduler",
            "RLMMigration",
            "RLMFastEnumerator",
            "RLMSessionDelegate",
            "RLMSectionMetadata",
            "RLMSwiftValueStorage",
            "RLMProviderClient",
            "RLMArray",
            "RLMSyncSubscriptionEnumerator",
            "RLMMongoDatabase",
            "RLMDictionary",
            "RLMUserSubscriptionToken",
            "RLMSectionedResultsChange",
            "RLMSyncManager",
            "RLMDispatchQueueScheduler",
            "RLMSyncConfiguration",
            "RLMDynamicObject",
            "RLMRequest",
            "RLMApp",
            "RLMAPIKeyAuth",
            "RLMMongoCollection",
            "RLMUpdateResult",
            "RLMAsyncRefreshTask",
            "RLMSyncTimeoutOptions",
            "RLMSectionedResults",
            "RLMProgressNotificationToken",
            "RLMRealmConfiguration"
          ],
          "objc_ivar": [
            "RLMSet._type",
            "RLMChangeStream._schedule",
            "RLMManagedDictionary._ownerInfo",
            "RLMResults._results",
            "RLMRealm._realm",
            "RLMObjectSchema._isSwiftClass",
            "RLMManagedDictionary._objectInfo",
            "RLMDictionary._backingCollection",
            "RLMManagedDictionary._backingCollection",
            "RLMSectionedResults._keyBlock",
            "RLMSet._objectClassName",
            "RLMRealm._resultsSetInfo",
            "RLMSet._parentObject",
            "RLMObjectBase._realm",
            "RLMSyncErrorActionToken._isValid",
            "RLMSet._key",
            "RLMDictionary._type",
            "RLMManagedDictionary._realm",
            "RLMDictionary._parentObject",
            "RLMObjectBase._objectSchema",
            "RLMChangeStream._subscriber",
            "RLMArray._objectClassName",
            "RLMDictionary._key",
            "RLMManagedSet._observationInfo",
            "RLMArray._type",
            "RLMObjectBase._row",
            "RLMSyncErrorActionToken._originalPath",
            "RLMArray._optional",
            "RLMProperty._type",
            "RLMRealm._info",
            "RLMManagedArray._objectInfo",
            "RLMManagedSet._backingSet",
            "RLMManagedDictionary._observationInfo",
            "RLMSet._optional",
            "RLMManagedArray._observationInfo",
            "RLMManagedArray._realm",
            "RLMArray._key",
            "RLMSyncSession._session",
            "RLMDictionary._objectClassName",
            "RLMSyncTimeoutOptions._options",
            "RLMSectionedResults._results",
            "RLMChangeStream._watchStream",
            "RLMChangeStream._session",
            "RLMSectionedResults._sectionedResults",
            "RLMObjectBase._info",
            "RLMDictionary._optional",
            "RLMSet._backingCollection",
            "RLMManagedSet._objectInfo",
            "RLMManagedSet._realm",
            "RLMArray._parentObject",
            "RLMObjectBase._observationInfo",
            "RLMArray._backingCollection",
            "RLMManagedArray._ownerInfo",
            "RLMManagedSet._ownerInfo",
            "RLMManagedArray._backingList"
          ],
          "weak": [
            "__ZTVN5realm15ArrayFixedBytesINS_4UUIDELi16EEE",
            "__ZN5realm9SyncError24c_original_file_path_keyE",
            "__ZTIN5realm3LstINS_4UUIDEEE",
            "__ZN5realm16ColumnTypeTraitsINS_9TimestampEE9column_idE",
            "__ZTIN5realm3LstINS_9TimestampEEE",
            "__ZTSN5realm3LstINS_7ObjLinkEEE",
            "__ZTVN5realm3LstINSt3__18optionalINS_4UUIDEEEEE",
            "__ZTSN5realm3LstINSt3__18optionalIbEEEE",
            "__ZN5realm16ColumnTypeTraitsIxE9column_idE",
            "__ZTIN5realm3LstINS_10Decimal128EEE",
            "__ZTSN5realm3LstINSt3__18optionalINS_4UUIDEEEEE",
            "__ZN5realm16ColumnTypeTraitsINS_4LinkEE9column_idE",
            "__ZN5realm16ColumnTypeTraitsINS_8ObjectIdEE9column_idE",
            "__ZGVN5realm5Array14VTableForWidthILm0EE6vtableE",
            "__ZTIN5realm3LstINSt3__18optionalINS_8ObjectIdEEEEE",
            "__ZTVN5realm3LstINS_5MixedEEE",
            "__ZN5realm16ColumnTypeTraitsINS_3LstINS_10BinaryDataEEEE9column_idE",
            "__ZN5realm16ColumnTypeTraitsINS_3LstINS_10Decimal128EEEE9column_idE",
            "__ZTIN5realm3LstINS_7ObjLinkEEE",
            "__ZGVN5realm5Array14VTableForWidthILm16EE6vtableE",
            "__ZTVN5realm3LstIdEE",
            "__ZTVN5realm3LstINSt3__18optionalINS_8ObjectIdEEEEE",
            "__ZN5realm16ColumnTypeTraitsINS_10Decimal128EE2idE",
            "__ZN5realm9SyncError24c_recovery_file_path_keyE",
            "__ZTSN5realm3LstINSt3__18optionalIxEEEE",
            "__ZTIN5realm3LstINS_10StringDataEEE",
            "__ZTIN5realm19ArrayFixedBytesNullINS_4UUIDELi16EEE",
            "__ZGVN5realm5Array14VTableForWidthILm2EE6vtableE",
            "__ZTIN5realm3LstINSt3__18optionalINS_4UUIDEEEEE",
            "__ZTIN5realm3LstIbEE",
            "__ZNSt3__113weak_ordering7greaterE",
            "__ZTVN5realm19ArrayFixedBytesNullINS_8ObjectIdELi12EEE",
            "__ZTIN5realm3LstIfEE",
            "__ZN5realm16ColumnTypeTraitsINS_9TimestampEE2idE",
            "__ZN5realm5Array14VTableForWidthILm1EE6vtableE",
            "__ZNSt3__113weak_ordering4lessE",
            "__ZTIN5realm3LstINSt3__18optionalIxEEEE",
            "__ZGVN5realm5Array14VTableForWidthILm32EE6vtableE",
            "__ZTIN5realm3LstIdEE",
            "__ZTSN5realm3LstINSt3__18optionalIfEEEE",
            "__ZTVN5realm3LstINS_10StringDataEEE",
            "__ZN5realm15ArrayFixedBytesINS_4UUIDELi16EE12s_block_sizeE",
            "__ZTIN5realm19ArrayFixedBytesNullINS_8ObjectIdELi12EEE",
            "__ZTSN5realm3LstIdEE",
            "__ZN5realm16ColumnTypeTraitsINS_3SetINS_5MixedEEEE9column_idE",
            "__ZTVN5realm3LstINS_6ObjKeyEEE",
            "__ZN5realm5Array14VTableForWidthILm0EE6vtableE",
            "__ZTSN5realm19ArrayFixedBytesNullINS_4UUIDELi16EEE",
            "__ZTVN5realm3LstIfEE",
            "__ZN5realm16ColumnTypeTraitsIdE9column_idE",
            "__ZN5realm5Array14VTableForWidthILm8EE6vtableE",
            "__ZN5realm16ColumnTypeTraitsINS_3LstIbEEE9column_idE",
            "__ZN5realm5Array14VTableForWidthILm32EE6vtableE",
            "__ZN5realm15ArrayFixedBytesINS_4UUIDELi16EE7s_widthE",
            "__ZN5realm16ColumnTypeTraitsINS_3LstIxEEE9column_idE",
            "__ZN5realm15SyncFileManager24c_realm_file_test_suffixE",
            "__ZN5realm15ArrayFixedBytesINS_8ObjectIdELi12EE12s_block_sizeE",
            "__ZN5realm16ColumnTypeTraitsINS_3LstIfEEE9column_idE",
            "__ZTSN5realm3LstIxEE",
            "__ZN5realm16ColumnTypeTraitsINS_3SetIbEEE9column_idE",
            "__ZNSt3__119piecewise_constructE",
            "__ZTVN5realm3LstINS_10Decimal128EEE",
            "__ZTIN5realm3LstINS_10BinaryDataEEE",
            "__ZTSN5realm3LstINS_10StringDataEEE",
            "__ZTIN5realm3LstINSt3__18optionalIfEEEE",
            "__ZTSN5realm3LstINS_9TimestampEEE",
            "__ZN5realm16ColumnTypeTraitsINS_3SetINS_4UUIDEEEE9column_idE",
            "__ZTSN5realm3LstINSt3__18optionalIdEEEE",
            "__ZTSN5realm15ArrayFixedBytesINS_4UUIDELi16EEE",
            "__ZN5realm16ColumnTypeTraitsIfE2idE",
            "__ZTIN5realm3LstINS_6ObjKeyEEE",
            "__ZTVN5realm3LstINSt3__18optionalIxEEEE",
            "__ZN5realm16ColumnTypeTraitsINS_3LstINS_5MixedEEEE9column_idE",
            "__ZTIN5realm15ArrayFixedBytesINS_8ObjectIdELi12EEE",
            "__ZN5realm16ColumnTypeTraitsINS_10StringDataEE9column_idE",
            "__ZN5realm5Array14VTableForWidthILm2EE6vtableE",
            "__ZN5realm15SyncFileManager19c_realm_file_suffixE",
            "__ZN5realm16ColumnTypeTraitsINS_3SetINS_9TimestampEEEE9column_idE",
            "__ZN5realm16ColumnTypeTraitsINS_10BinaryDataEE9column_idE",
            "__ZTVN5realm3LstINS_7ObjLinkEEE",
            "__ZN5realm5Array14VTableForWidthILm64EE6vtableE",
            "__ZN5realm9ValueBase10chunk_sizeE",
            "__ZTSN5realm3LstINS_5MixedEEE",
            "__ZN8nlohmann6detail12static_constINS0_10to_json_fnEE5valueE",
            "__ZTVN5realm3LstINS_8ObjectIdEEE",
            "__ZN5realm16ColumnTypeTraitsINS_10Decimal128EE9column_idE",
            "__ZN5realm16ColumnTypeTraitsIdE2idE",
            "__ZN5realm16ColumnTypeTraitsINS_3SetINS_10Decimal128EEEE9column_idE",
            "__ZN5realm16ColumnTypeTraitsINS_3SetIfEEE9column_idE",
            "__ZN5realm16ColumnTypeTraitsINS_4UUIDEE9column_idE",
            "__ZN5realm16ColumnTypeTraitsINS_3SetIxEEE9column_idE",
            "__ZN5realm16ColumnTypeTraitsINS_5MixedEE2idE",
            "__ZTSN5realm3LstINS_6ObjKeyEEE",
            "__ZTSN5realm3LstINSt3__18optionalINS_8ObjectIdEEEEE",
            "__ZTVN5realm3LstIbEE",
            "__ZTVN5realm3LstINS_10BinaryDataEEE",
            "__ZTSN5realm19ArrayFixedBytesNullINS_8ObjectIdELi12EEE",
            "__ZGVN5realm5Array14VTableForWidthILm8EE6vtableE",
            "__ZN5realm15ArrayFixedBytesINS_8ObjectIdELi12EE7s_widthE",
            "__ZN5realm5Array14VTableForWidthILm16EE6vtableE",
            "__ZTIN5realm15ArrayFixedBytesINS_4UUIDELi16EEE",
            "__ZN5realm16ColumnTypeTraitsINS_3SetINS_8ObjectIdEEEE9column_idE",
            "__ZN5realm16ColumnTypeTraitsINS_8ObjectIdEE2idE",
            "__ZN5realm16ColumnTypeTraitsIxE2idE",
            "__ZTVN5realm3LstINSt3__18optionalIdEEEE",
            "__ZNSt3__113weak_ordering10equivalentE",
            "__ZGVN5realm5Array14VTableForWidthILm4EE6vtableE",
            "__ZN5realm16ColumnTypeTraitsINS_3LstINS_10StringDataEEEE9column_idE",
            "__ZNSt3__18in_placeE",
            "__ZN5realm16ColumnTypeTraitsINS_3SetIdEEE9column_idE",
            "__ZTVN5realm3LstINSt3__18optionalIbEEEE",
            "__ZGVN5realm5Array14VTableForWidthILm64EE6vtableE",
            "__ZTVN5realm3LstINS_9TimestampEEE",
            "__ZN5realm16ColumnTypeTraitsINS_6ObjKeyEE2idE",
            "__ZTSN5realm3LstINS_8ObjectIdEEE",
            "__ZN5realm16ColumnTypeTraitsINS_3LstIdEEE9column_idE",
            "__ZTIN5realm3LstINSt3__18optionalIdEEEE",
            "__ZN5realm16ColumnTypeTraitsINS_3LstINS_9TimestampEEEE9column_idE",
            "__ZTSN5realm3LstINS_10Decimal128EEE",
            "__ZNSt3__17nulloptE",
            "__ZTSN5realm3LstINS_10BinaryDataEEE",
            "__ZTVN5realm19ArrayFixedBytesNullINS_4UUIDELi16EEE",
            "__ZN5realm5Array14VTableForWidthILm4EE6vtableE",
            "__ZN5realm16SchemaSubsetMode6StrictE",
            "__ZN5realm16ColumnTypeTraitsINS_3SetINS_10StringDataEEEE9column_idE",
            "__ZN5realm16ColumnTypeTraitsINS_3LstINS_8ObjectIdEEEE9column_idE",
            "__ZTIN5realm3LstINS_8ObjectIdEEE",
            "__ZN5realm16ColumnTypeTraitsIbE2idE",
            "__ZTIN5realm3LstINSt3__18optionalIbEEEE",
            "__ZN5realm16ColumnTypeTraitsIfE9column_idE",
            "__ZN5realm16ColumnTypeTraitsIbE9column_idE",
            "__ZTVN5realm3LstINS_4UUIDEEE",
            "__ZN5realm16ColumnTypeTraitsINS_3SetINS_10BinaryDataEEEE9column_idE",
            "__ZNSt3__115strong_ordering5equalE",
            "__ZTVN5realm3LstINSt3__18optionalIfEEEE",
            "__ZN5realm11ObjectStore12NotVersionedE",
            "__ZTSN5realm15ArrayFixedBytesINS_8ObjectIdELi12EEE",
            "__ZTVN5realm15ArrayFixedBytesINS_8ObjectIdELi12EEE",
            "__ZTVN5realm3LstIxEE",
            "__ZTSN5realm3LstIfEE",
            "__ZTIN5realm3LstINS_5MixedEEE",
            "__ZTSN5realm3LstIbEE",
            "__ZGVN5realm5Array14VTableForWidthILm1EE6vtableE",
            "__ZN5realm16ColumnTypeTraitsINS_3LstINS_4UUIDEEEE9column_idE",
            "__ZN5realm16ColumnTypeTraitsINS_4UUIDEE2idE",
            "__ZTIN5realm3LstIxEE",
            "__ZTSN5realm3LstINS_4UUIDEEE",
            "__ZN5realm16ColumnTypeTraitsINS_5MixedEE9column_idE"
          ]
        },
        "text": {
          "global": [
            "__ZN5realm5Query9not_equalENS_6ColKeyENS_10Decimal128E",
            "__ZNK5realm5MixedplERKS0_",
            "__ZN5realm10LogicErrorD0Ev",
            "_RLMGetObject",
            "__ZN5realm5_impl12client_reset29RecoverLocalChangesetsHandler18process_changesetsERKNSt3__16vectorINS_4sync13ClientHistory11LocalChangeENS3_9allocatorIS7_EEEEONS4_INS5_15SubscriptionSetENS8_ISD_EEEE",
            "__ZNK5realm18DistinctDescriptor7executeERNS_14BaseDescriptor10IndexPairsERKNS1_6SorterEPKS1_",
            "__ZN5realm12object_store3SetaSERKS1_",
            "__ZN5realm4sync10ClientImpl10Connection30close_due_to_client_side_errorENSt3__110error_codeENS3_8optionalINS3_17basic_string_viewIcNS3_11char_traitsIcEEEEEEb",
            "__ZNK5realm13ArrayUnsigned11lower_boundEy",
            "__ZN5realm9SlabAlloc10do_reallocEmPcmm",
            "__ZN5realm4sync14MigrationStore30complete_migration_or_rollbackEv",
            "__ZN21RLMObservationTracker14trackDeletionsEv",
            "__ZNK5realm5Group14schema_to_jsonERNSt3__113basic_ostreamIcNS1_11char_traitsIcEEEEPNS1_3mapINS1_12basic_stringIcS4_NS1_9allocatorIcEEEESB_NS1_4lessISB_EENS9_INS1_4pairIKSB_SB_EEEEEE",
            "__ZN5realm10ArrayMixed6insertEmNS_5MixedE",
            "__ZN12RLMClassInfoC1EP8RLMRealmP15RLMObjectSchemaNSt3__110unique_ptrIN5realm12ObjectSchemaENS4_14default_deleteIS7_EEEE",
            "__ZN5realm26MissingPrimaryKeyExceptionC1ERKNSt3__112basic_stringIcNS1_11char_traitsIcEENS1_9allocatorIcEEEE",
            "__ZN5realm5Query9not_equalENS_6ColKeyEi",
            "__ZN5realm19ThreadSafeReferenceC1INSt3__110shared_ptrINS_5RealmEEEEERKT_",
            "__ZN5realm5Table23enumerate_string_columnENS_6ColKeyE",
            "__ZNK5realm10ArrayMixed19ensure_string_arrayEv",
            "__ZNK5realm16SyncUserMetadata9device_idEv",
            "__ZN5realm5_impl17WeakRealmNotifierD2Ev",
            "__ZN5realm5_impl30CollectionKeyPathChangeCheckerC1ERKNS0_21TransactionChangeInfoERKNS_5TableERKNSt3__16vectorINS0_17DeepChangeChecker12RelatedTableENS8_9allocatorISB_EEEERKNS9_INS9_INS8_4pairINS_8TableKeyENS_6ColKeyEEENSC_ISK_EEEENSC_ISM_EEEEb",
            "__ZN5realm5Table16generate_col_keyENS_10ColumnTypeENS_14ColumnAttrMaskE",
            "__ZN5realmlsERNSt3__113basic_ostreamIcNS0_11char_traitsIcEEEERKNS_10GeospatialE",
            "__ZN5realm22SyncFileActionMetadataC2ENS0_6SchemaENSt3__110shared_ptrINS_5RealmEEERKNS_3ObjE",
            "__ZNK5realm5Table26is_cross_table_link_targetEv",
            "___bid128dq_add",
            "__ZN5realm5_impl14ClientProtocol20UploadMessageBuilder19make_upload_messageEiRNS_4util43BasicResettableExpandableBufferOutputStreamIcNSt3__111char_traitsIcEENS5_9allocatorIcEEEEyyyy",
            "__ZN5realm12RuntimeErrorC2ENS_10ErrorCodes5ErrorENSt3__117basic_string_viewIcNS3_11char_traitsIcEEEE",
            "__ZN5realm3app11MongoClientD1Ev",
            "__ZNK5realm10Dictionary11do_get_pairEm",
            "__ZNK5realm3Obj16get_target_tableENS_6ColKeyE",
            "__Z25RLMReplaceClassNameMethodP10objc_classP8NSString",
            "__ZN5realm9SlabAlloc22throw_header_exceptionENSt3__112basic_stringIcNS1_11char_traitsIcEENS1_9allocatorIcEEEERKNS0_6HeaderERKS7_",
            "__ZN5realm11StringIndex11node_insertEmm",
            "__ZNK5realm17ChunkedBinaryData4sizeEv",
            "__ZNK5realm9GeoRegion8containsERKNSt3__18optionalINS_8GeoPointEEE",
            "__ZN5realm4sync16ChangesetEncoderclERKNS0_5instr5ClearE",
            "__ZN5realm12ObjectSchema14from_core_typeENS_6ColKeyE",
            "__ZN5realm5Group22detach_table_accessorsEv",
            "__ZN5realm4util10remove_dirERKNSt3__112basic_stringIcNS1_11char_traitsIcEENS1_9allocatorIcEEEE",
            "__ZN5realm4sync13ClientHistory6ArraysC1ERNS_2DBERNS_5GroupE",
            "__ZN5realm10Decimal128C1Ex",
            "__ZNK5realm11SyncManager16get_all_sessionsEv",
            "__ZNK5realm4bson4Bson4typeEv",
            "__ZN5realm14BPlusTreeInner13bptree_accessEmNS_4util11FunctionRefIFvPNS_13BPlusTreeNodeEmEEE",
            "_RLMAddBeforeNotifyBlock",
            "__ZN5realm4sync14SessionWrapperC1ERNS0_10ClientImplENSt3__110shared_ptrINS_2DBEEENS5_INS0_17SubscriptionStoreEEENS5_INS0_14MigrationStoreEEENS0_7Session6ConfigE",
            "__ZNK5realm4sync18InstructionApplier14get_object_keyERNS_5TableERKN5mpark7variantIJNS4_9monostateExNS_9GlobalKeyENS0_12InternStringENS_8ObjectIdENS_4UUIDEEEERKNSt3__117basic_string_viewIcNSE_11char_traitsIcEEEE",
            "__ZN5realm8Subexpr2INS_10BinaryDataEE4likeES1_b",
            "__ZN5realm11ArrayString11lower_boundENS_10StringDataE",
            "__ZN5realm4util24remove_encrypted_mappingEPvm",
            "__ZN5realm7ResultsC1ENSt3__110shared_ptrINS_5RealmEEENS_13ConstTableRefE",
            "__ZN5realm5_impl23CollectionChangeBuilder5eraseEm",
            "__ZN5realm4List3addINS_3ObjEEEvT_",
            "__ZN5realm5_impl15CopyReplication11handle_linkENS_6ColKeyENS_5MixedENS_4util11FunctionRefIFvNS_8TableRefEEEE",
            "__ZN5realm4sync17ClientReplication22upgrade_history_schemaEi",
            "__ZN5realm8Subexpr2INS_10StringDataEE9ends_withERKS2_b",
            "__ZNK5realm7Results12do_get_queryEv",
            "__ZNK5realm5Table20find_backlink_originENS_6ColKeyE",
            "_RLMGetSwiftPropertyObjectId",
            "__ZNK5realm15SyncFileManager23get_user_directory_pathERKNSt3__112basic_stringIcNS1_11char_traitsIcEENS1_9allocatorIcEEEE",
            "__ZN5realm11SyncSession45apply_sync_config_after_migration_or_rollbackEv",
            "__ZN5realm4sync7network12make_addressEPKcRNSt3__110error_codeE",
            "__ZN5realm18SerializationErrorD0Ev",
            "__ZNK5realm8SyncUser10identitiesEv",
            "__ZN5realm5Query13greater_equalENS_6ColKeyES1_",
            "__ZN5realm5_impl12client_reset29RecoverLocalChangesetsHandlerclERKNS_4sync5instr11EraseColumnE",
            "__ZNK5realm3Obj12get_backlinkENS_6ColKeyEm",
            "__ZN5realm16ClusterNodeInnerD2Ev",
            "__ZN5realm5Realm24async_commit_transactionEONS_4util14UniqueFunctionIFvSt13exception_ptrEEEb",
            "__ZN5realm4sync16ChangesetEncoder12append_valueEb",
            "__ZNK5realm8ObjectId4hashEv",
            "__ZN5realm11ObjectStore29verify_valid_additive_changesERKNSt3__16vectorINS_12SchemaChangeENS1_9allocatorIS3_EEEEb",
            "__ZN5realm9SlabAlloc21init_in_memory_bufferEv",
            "__ZNK5realm4bson17RegularExpression7patternEv",
            "__ZN5realm5Query10less_equalENS_6ColKeyEf",
            "__ZN5realm3app15MongoCollection9aggregateERKNSt3__16vectorINS_4bson4BsonENS2_9allocatorIS5_EEEEONS_4util14UniqueFunctionIFvONS2_8optionalIS8_EENSD_INS0_8AppErrorEEEEEE",
            "___bid_round192_39_57",
            "__ZN5realm28UnsupportedFileFormatVersionC2Ei",
            "__ZNK5realm8ObjectId13get_timestampEv",
            "__ZN13RLMSchemaInfoixEP8NSString",
            "__ZN5realm11SyncSession29initiate_access_token_refreshEv",
            "__ZN5realm10ArrayMixedC2ERNS_9AllocatorE",
            "__ZN13RLMSchemaInfo5cloneERKN5realm6SchemaEP8RLMRealm",
            "__ZN5realm11SyncSession26get_flx_subscription_storeEv",
            "__ZN5realm7Results15IteratorWrapperC2ERKS1_",
            "__ZN5realm9GeoRegionC2ERKNS_10GeospatialE",
            "__ZN5realm4sync10ClientImpl7Session17send_test_commandENSt3__112basic_stringIcNS3_11char_traitsIcEENS3_9allocatorIcEEEE",
            "__ZN5realm8Subexpr2INS_5MixedEE4likeERKS2_b",
            "__ZN5realm5_impl19SystemConfigurationC1Ev",
            "__ZN5realm4sync10ClientImpl7Session15call_debug_hookENS_19SyncClientHookEventERKNS0_17ProtocolErrorInfoE",
            "__ZN5realm25ReadOnlyPropertyExceptionC2ERKNSt3__112basic_stringIcNS1_11char_traitsIcEENS1_9allocatorIcEEEES9_",
            "__ZN5realm7Cluster5eraseENS_6ObjKeyERNS_12CascadeStateE",
            "__ZN5realm4util19InterprocessCondVar5closeEv",
            "___bid128_to_int64_xfloor",
            "__ZN5realm5_impl17WeakRealmNotifier6notifyEv",
            "__ZN5realm5Table25do_set_primary_key_columnENS_6ColKeyE",
            "__ZNK5realm10Decimal128neERKS0_",
            "___bid64dq_sub",
            "__ZN5realm9SlabAlloc27rebuild_freelists_from_slabEv",
            "__ZN5realm7Results17ensure_up_to_dateENS0_12EvaluateModeE",
            "__ZN5realm5QueryC1EOS0_",
            "__ZN5realm5Realm7refreshEv",
            "__ZN5realm3SetINS_5MixedEE9do_insertEmS1_",
            "__ZN5realm5_impl12client_reset11ListTracker4moveEjjmRjS3_",
            "__ZN5realm11StringIndex6insertINS_10StringDataEEEvNS_6ObjKeyET_",
            "__ZNK5realm7metrics9QueryInfo8get_typeEv",
            "__ZThn16_N5realm14BPlusTreeInnerD1Ev",
            "__ZN5realm11TypeOfValueC1Ex",
            "__ZN5realm9SlabAlloc14mark_allocatedEPNS0_9FreeBlockE",
            "__ZN5realm4util6Thread13create_failedEi",
            "__ZN5realm5Query4likeENS_6ColKeyENS_10StringDataEb",
            "__ZN5realm5Query8links_toENS_6ColKeyERKNSt3__16vectorINS_6ObjKeyENS2_9allocatorIS4_EEEE",
            "__ZN5realm7metrics11MetricTimerC1ENSt3__110shared_ptrINS0_17MetricTimerResultEEE",
            "__ZN5realm12object_store10Dictionary7get_anyENS_10StringDataE",
            "__ZNK5realm9TableView7to_jsonERNSt3__113basic_ostreamIcNS1_11char_traitsIcEEEEmRKNS1_3mapINS1_12basic_stringIcS4_NS1_9allocatorIcEEEESB_NS1_4lessISB_EENS9_INS1_4pairIKSB_SB_EEEEEENS_14JSONOutputModeE",
            "__ZN5realm5_impl19ListResultsNotifierC1ERNS_7ResultsE",
            "__ZN5realm11OutOfBoundsD0Ev",
            "__ZN5realm4util9BacktraceC1ERKS1_",
            "__ZNK5realm11SyncSession29get_appservices_connection_idEv",
            "__ZNK5realm4util4File9map_fixedENS1_10AccessModeEPvmPNS0_20EncryptedFileMappingEim",
            "__ZN5realm5_impl16RealmCoordinator17package_notifiersERNSt3__16vectorINS2_10shared_ptrINS0_18CollectionNotifierEEENS2_9allocatorIS6_EEEEy",
            "__ZN5realm4Spec22upgrade_string_to_enumEmm",
            "__ZN5realm5Realm15rename_propertyENS_6SchemaENS_10StringDataES2_S2_",
            "__ZN5realm4util12StreamLogger6do_logENS0_6Logger5LevelERKNSt3__112basic_stringIcNS4_11char_traitsIcEENS4_9allocatorIcEEEE",
            "__ZN5realm6ObjectC2Ev",
            "__ZNK5realm13ArrayUnsigned11upper_boundEy",
            "__ZN5realm4util15reserve_mappingEPvRKNS0_14FileAttributesEm",
            "__ZN5realm5_impl16RealmCoordinatorC1Ev",
            "__ZN5realm5Table15find_all_binaryENS_6ColKeyENS_10BinaryDataE",
            "__ZN5realm20DictionaryLinkValuesC1ERKNS_3ObjENS_6ColKeyE",
            "__ZN5realm4sync18InstructionApplierclERKNS0_5instr11EraseColumnE",
            "__ZN5realm11SyncSessionC2ERNS_5_impl10SyncClientENSt3__110shared_ptrINS_2DBEEERKNS_11RealmConfigEPNS_11SyncManagerE",
            "__ZN5realm5Table13clear_indexesEv",
            "__ZN5realm5Array6createENS_10NodeHeader4TypeEbNS1_9WidthTypeEmxRNS_9AllocatorE",
            "__ZNK5realm4sync15SubscriptionSet3endEv",
            "__ZN5realm11ClusterTree8IteratorC1ERKS0_m",
            "__ZN5realm4bson17holds_alternativeIxEEbRKNS0_4BsonE",
            "__ZNK5realm3Obj12set_backlinkENS_6ColKeyENS_7ObjLinkE",
            "__ZN5realm4sync7network7Service10Descriptor10write_someEPKcmRNSt3__110error_codeE",
            "__ZN5realm4sync9websocket21DefaultSocketProvider5startEv",
            "__ZN5realm11Transaction14import_copy_ofERKNS_3ObjE",
            "__ZN5realm28UnsupportedFileFormatVersionD1Ev",
            "__ZNK5realm11SyncSession4pathEv",
            "__ZNK5realm5Table21get_num_unique_valuesENS_6ColKeyE",
            "__ZN5realm5_impl30CollectionKeyPathChangeChecker20find_changed_columnsERNSt3__16vectorINS_6ColKeyENS2_9allocatorIS4_EEEERKNS3_INS2_4pairINS_8TableKeyES4_EENS5_ISB_EEEEmRKNS_5TableERKNS_6ObjKeyE",
            "__ZN5realm13ArrayUnsigned5eraseEm",
            "__ZN5realm4sync9websocket21DefaultSocketProvider4stopEb",
            "__ZN5realm4sync15SyncReplication9set_clearERKNS_14CollectionBaseE",
            "__ZN5realm4sync13ClientHistory15trim_ct_historyEv",
            "_RLMValidatedValueForProperty",
            "__ZN5realm2DB27end_write_on_correct_threadEv",
            "__ZN5realm10ArrayMixed29truncate_and_destroy_childrenEm",
            "__ZN5realm10converters23EmbeddedObjectConverter15process_pendingEv",
            "__ZNK5realm3Obj15get_replicationEv",
            "__ZN5realm13AsyncOpenTaskC2ENSt3__110shared_ptrINS_5_impl16RealmCoordinatorEEENS2_INS_11SyncSessionEEE",
            "__ZN5realm18MultipleSyncAgentsD1Ev",
            "_RLMObjectBaseObjectForKeyedSubscript",
            "__ZN5realm11Transaction14import_copy_ofERKNS_7SetBaseE",
            "__ZN5realm4sync17SubscriptionStore9terminateEv",
            "__ZNK5realm5Array3sumEmm",
            "__ZN5realm7metrics9QueryInfoC2EPKNS_5QueryENS1_9QueryTypeE",
            "__ZN5realm11Replication26add_class_with_primary_keyENS_8TableKeyENS_10StringDataENS_8DataTypeES2_bNS_5Table4TypeE",
            "__ZN5realm4util7CondVarC1ENS1_18process_shared_tagE",
            "__ZNK5realm13ConstTableRefcvbEv",
            "__ZNK5realm12object_store10Collection17record_audit_readERKNS_5MixedE",
            "__ZN5realm4util4File4copyERKNSt3__112basic_stringIcNS2_11char_traitsIcEENS2_9allocatorIcEEEESA_",
            "__ZN5realm3app23enum_from_provider_typeERKNSt3__112basic_stringIcNS1_11char_traitsIcEENS1_9allocatorIcEEEE",
            "__ZN5realm12object_store10CollectionD1Ev",
            "__ZN5realm8case_mapENS_10StringDataEbNS_15IgnoreErrorsTagE",
            "__ZN5realm5_impl16RealmCoordinator19run_async_notifiersEv",
            "__ZNK5realm16ClusterNodeInner7get_ndxENS_6ObjKeyEm",
            "__ZN5realm5Table15add_column_linkENS_8DataTypeENS_10StringDataERS0_",
            "__ZNK5realm10ArrayMixed3getEm",
            "__ZN5realm12object_store3SetC2EOS1_",
            "__ZN5realm3app15MongoCollection15insert_one_bsonERKNS_4bson10IndexedMapINS2_4BsonEEEONS_4util14UniqueFunctionIFvONSt3__18optionalIS4_EENSB_INS0_8AppErrorEEEEEE",
            "__ZN5realm26InvalidatedObjectExceptionC2ERKNSt3__112basic_stringIcNS1_11char_traitsIcEENS1_9allocatorIcEEEE",
            "__ZNK5realm4sync17ClientReplication28is_upgradable_history_schemaEi",
            "__ZNK5realm4sync15SubscriptionSet4findENS_10StringDataE",
            "__ZN5realm4List9delete_atEm",
            "__ZN5realm5Realm16copy_schema_fromERKS0_",
            "__ZN5realm4sync7network13DeadlineTimer6cancelEv",
            "__ZN5realm4sync10ClientImpl10Connection12receive_pongEx",
            "__ZN5realm11ArrayString16init_from_parentEv",
            "__ZN5realm4sync14SessionWrapper27on_new_flx_subscription_setEx",
            "__ZN5realm11ArrayString3addENS_10StringDataE",
            "__ZN5realm4util10AESCryptorC2EPKh",
            "__ZN5realm9TableView7do_syncEv",
            "__ZNK5realm5Table19get_opposite_columnENS_6ColKeyE",
            "__ZN5realm4sync10ClientImpl22cancel_reconnect_delayEv",
            "__ZN5realm4util6Logger18set_default_loggerENSt3__110shared_ptrIS1_EE",
            "__ZN5realm11Replication30create_object_with_primary_keyEPKNS_5TableENS_6ObjKeyENS_5MixedE",
            "__ZNK5realm5Realm13verify_threadEv",
            "__ZN5realm2DB4openENS_10BinaryDataEb",
            "__ZN5realm4sync10ClientImpl10Connection22initiate_write_messageERKNS_4util43BasicResettableExpandableBufferOutputStreamIcNSt3__111char_traitsIcEENS5_9allocatorIcEEEEPNS1_7SessionE",
            "__ZN5realm4util11compression8compressENS0_4SpanIKcLm18446744073709551615EEENS2_IcLm18446744073709551615EEERmiPNS1_5AllocE",
            "__ZN5realm9SlabAlloc4SlabD1Ev",
            "__ZNK5realm9TableKeysixEm",
            "__ZNK5realm11ArrayString10get_legacyEm",
            "__ZN5realm9SlabAlloc11attach_fileERKNSt3__112basic_stringIcNS1_11char_traitsIcEENS1_9allocatorIcEEEERNS0_6ConfigEPNS_4util13WriteObserverE",
            "__ZNK5realm5Group6verifyEv",
            "__ZNK5realm16SyncUserMetadata10identitiesEv",
            "__ZN5realm4util15try_create_fifoENSt3__117basic_string_viewIcNS1_11char_traitsIcEEEEb",
            "__ZN5realm9utf8valueEPKc",
            "__ZNK5realm4SpeceqERKS0_",
            "__ZN5realm8IndexSet9insert_atEmm",
            "__ZN5realm5Table24allocate_sequence_numberEv",
            "__ZN5realm10ArrayMixed3setEmNS_5MixedE",
            "__ZNK5realm4sync15SubscriptionSet17make_mutable_copyEv",
            "__ZN5realm18SyncClientTimeoutsC2Ev",
            "__ZN5realm9GeoRegionC1ERKNS_10GeospatialE",
            "__ZNK5realm11ClusterTree8set_specERNS_12ArrayPayloadENS_6ColKey3IdxE",
            "__ZN5realm5_impl16RealmCoordinatorD2Ev",
            "__ZNK5realm12ArrayIntNull4findEiNSt3__18optionalIxEEmmPNS_14QueryStateBaseE",
            "__ZNK5realm7LinkMap9map_linksEmmNS_4util11FunctionRefIFbNS_6ObjKeyEEEE",
            "__ZN5realm4sync9websocket21DefaultSocketProviderD2Ev",
            "__ZN5realm13BPlusTreeBase6createEv",
            "__ZNK5realm4sync7network10SocketBase10get_optionENS2_8opt_enumEPvRmRNSt3__110error_codeE",
            "__ZN5realm4util13make_temp_dirEv",
            "__ZN5realm3app23provider_type_from_enumENS0_12AuthProviderE",
            "__ZN5realm5Query4lessENS_6ColKeyEx",
            "__ZN5realm5QueryooERKS0_",
            "__ZN13RLMSchemaInfo3endEv",
            "__ZN5realm14LinkTranslatorC2ENS_3ObjENS_6ColKeyE",
            "___bid128_mul",
            "__ZN5realm4util22DispatchQueueSchedulerD1Ev",
            "__ZN5realm11Transaction18acquire_write_lockEv",
            "___bid64qq_add",
            "__ZN5realm4sync14HTTPParserBase16set_write_bufferERKNS0_11HTTPRequestE",
            "__ZN5realm4util10serializer18SerialisationState15describe_columnENS_13ConstTableRefENS_6ColKeyE",
            "__ZN5realm4sync15make_error_codeENS0_15HTTPParserErrorE",
            "__ZN5realm5_impl18CollectionNotifier10unregisterEv",
            "__ZN5realm11SyncManager14do_make_loggerEv",
            "_RLMRealmValidatedEncryptionKey",
            "__ZN5realm5_impl18CollectionNotifier13after_advanceEv",
            "__ZN5realm4ListaSERKS0_",
            "__ZNK5realm7Results6filterEONS_5QueryE",
            "__ZN5realm4util3UriC2ERKNSt3__112basic_stringIcNS2_11char_traitsIcEENS2_9allocatorIcEEEE",
            "__ZN5realm5_impl16RealmCoordinator22get_synchronized_realmENS_11RealmConfigE",
            "__ZN5realm4sync10ClientImplC1ENS0_12ClientConfigE",
            "__ZN5realm8SyncUserC2ENSt3__112basic_stringIcNS1_11char_traitsIcEENS1_9allocatorIcEEEES7_S7_S7_NS0_5StateES7_PNS_11SyncManagerE",
            "__ZN5realm20InvalidEncryptionKeyD2Ev",
            "__ZN5realm7Results3sumENS_6ColKeyE",
            "__ZNK5realm9Exception4codeEv",
            "__ZNK5realm16ClusterNodeInner8get_leafENS_6ObjKeyERNS_11ClusterNode13IteratorStateE",
            "__ZN5realm12ArrayIntNull20avoid_null_collisionEx",
            "__ZN5realm4bson17holds_alternativeIbEEbRKNS0_4BsonE",
            "__ZNK5realm18DescriptorOrdering8get_typeEm",
            "__ZN5realm5_impl12client_reset11ListTracker21queue_for_manual_copyEv",
            "__ZN5realm5Query15size_less_equalENS_6ColKeyEx",
            "__ZN5realm4util4File11seek_staticEix",
            "__ZNK5realm4sync10ClientImpl10Connection21get_http_request_pathEv",
            "__ZNK5realm10Dictionary3sumEPm",
            "__ZN5realm12object_store10Dictionary10insert_anyENS_10StringDataENS_5MixedE",
            "__ZNK5realm9TableView12count_doubleENS_6ColKeyEd",
            "__ZN5realm8Subexpr2INS_10BinaryDataEE8containsES1_b",
            "__ZNK5realm12object_store3Set4findEONS_5QueryE",
            "__ZN5realm5Table29migrate_sets_and_dictionariesEv",
            "__ZNK5realm5Realm9is_frozenEv",
            "__ZN5realm15ArraySmallBlobs3setEmNS_10BinaryDataEb",
            "__ZNK5realm16SyncUserMetadata8identityEv",
            "__ZNK5realm4sync9Changeset11find_stringENS_10StringDataE",
            "__ZN5realm5Group26flush_accessors_for_commitEv",
            "__ZN5realm18StringNodeFulltextC1ENS_10StringDataENS_6ColKeyENSt3__110unique_ptrINS_7LinkMapENS3_14default_deleteIS5_EEEE",
            "__ZN5realm5GroupC2EPNS_9SlabAllocE",
            "__ZN5realm10Decimal128C1EdNS0_7RoundToE",
            "__ZN5realm12object_store10CollectionC2EONSt3__110shared_ptrINS_5RealmEEEONS2_10unique_ptrINS_14CollectionBaseENS2_14default_deleteIS8_EEEENS_12PropertyTypeE",
            "__ZNK5realm11SyncManager15get_sync_clientEv",
            "__ZN5realm4util11compression10decompressERNS0_11InputStreamENS0_4SpanIcLm18446744073709551615EEE",
            "__ZN5realm4sync10ClientImpl10Connection30report_connection_state_changeENS0_15ConnectionStateENSt3__18optionalINS0_16SessionErrorInfoEEE",
            "__ZN5realm11StringIndex12node_add_keyEm",
            "__ZNK5realm11SyncManager23recovery_directory_pathERKNSt3__18optionalINS1_12basic_stringIcNS1_11char_traitsIcEENS1_9allocatorIcEEEEEE",
            "__ZNK5realm5MixedmiERKS0_",
            "__ZN5realm3app15MongoCollection20find_one_and_replaceERKNS_4bson10IndexedMapINS2_4BsonEEES7_ONS_4util14UniqueFunctionIFvONSt3__18optionalIS5_EENSB_INS0_8AppErrorEEEEEE",
            "__ZNK5realm12object_store3Set6filterENS_5QueryE",
            "__ZN5realm3Obj8Internal7get_refERKS0_NS_6ColKeyE",
            "__ZN5realm8IndexSet6removeEmm",
            "__ZN5realm16audit_test_hooks22set_maximum_shard_sizeEx",
            "__ZN5realm5_impl12client_reset29RecoverLocalChangesetsHandler16RecoveryResolverD1Ev",
            "__ZN5realm20ColumnDictionaryKeys11set_clusterEPKNS_7ClusterE",
            "__ZN5realm5_impl14ChangesetIndex28get_schema_changes_for_classENS_10StringDataE",
            "__ZN5realm4sync12SubscriptionC1EPKNS0_17SubscriptionStoreENS_3ObjE",
            "__ZN5realm5Array10set_as_refEmm",
            "__ZNK5realm7Results9get_queryEv",
            "__ZN5realm5Table21refresh_accessor_treeEv",
            "__ZN5realm19SyncMetadataManager16get_app_metadataEv",
            "__ZN5realm4sync18InstructionApplierclERKNS0_5instr8SetEraseE",
            "__Z19translateStopPolicyN5realm21SyncSessionStopPolicyE",
            "__ZN5realm4sync7Session29get_appservices_connection_idEv",
            "__ZN5realm7ResultsC1ENSt3__110shared_ptrINS_5RealmEEENS_5QueryENS_18DescriptorOrderingE",
            "__ZNK5realm7metrics15TransactionInfo17get_total_objectsEv",
            "__ZN5realm4sync7network3ssl6Stream11ssl_destroyEv",
            "__ZN5realm16ClusterNodeInner13remove_columnENS_6ColKeyE",
            "__ZN5realm5_impl26ObjectKeyPathChangeCheckerC2ERKNS0_21TransactionChangeInfoERKNS_5TableERKNSt3__16vectorINS0_17DeepChangeChecker12RelatedTableENS8_9allocatorISB_EEEERKNS9_INS9_INS8_4pairINS_8TableKeyENS_6ColKeyEEENSC_ISK_EEEENSC_ISM_EEEEb",
            "__ZN5realm2DB30get_version_of_latest_snapshotEv",
            "__ZNK5realm4sync7network20OpensslErrorCategory7messageEi",
            "__ZN5realm4sync16ChangesetEncoder12append_valueEh",
            "__ZN5realm5_impl12client_reset11ListTracker6updateEj",
            "__ZNK5realm9TableView16get_dependenciesERNS_13TableVersionsE",
            "__ZN5realm6LnkLst28create_and_set_linked_objectEm",
            "__ZN5realm11cityhash_64EPKhm",
            "__ZN5realm10LogicErrorD2Ev",
            "__ZNK5realm5Mixed14compare_signedERKS0_",
            "__ZN5realm10StringData13matchlike_insERKS0_S2_S2_",
            "__ZN5realm5_impl27NetworkReachabilityObserverD1Ev",
            "__ZN5realm4bson17holds_alternativeINS_8ObjectIdEEEbRKNS0_4BsonE",
            "__ZN5realm4sync14SessionWrapper17send_test_commandENSt3__112basic_stringIcNS2_11char_traitsIcEENS2_9allocatorIcEEEE",
            "__ZNK5realm5Query19sync_view_if_neededEv",
            "__ZN5realm4util4mmapERKNS0_14FileAttributesEmm",
            "__ZN5realm10Dictionary10get_objectENS_10StringDataE",
            "__ZN5realm16ClusterNodeInner5eraseENS_6ObjKeyERNS_12CascadeStateE",
            "__ZNK5realm9TableView17is_in_table_orderEv",
            "__ZN5realm10Decimal128pLES0_",
            "__ZN5realm4util14SemaphoreMutexC1Ev",
            "__ZN5realm11ClusterTree8IteratorppEv",
            "__ZN5realm3ObjC2ENS_8TableRefENS_6MemRefENS_6ObjKeyEm",
            "__ZN5realm11GroupWriter9MapWindow23encryption_read_barrierEPvm",
            "__ZNK5realm15ObjectChangeSet20get_columns_modifiedENS_6ObjKeyE",
            "__ZNK5realm9TableView3minENS_6ColKeyEPNS_6ObjKeyE",
            "_RLMGetSwiftPropertyDate",
            "__ZNK5realm7Results11do_get_typeEv",
            "__ZNK5realm7SetBase10erase_replEPNS_11ReplicationEmNS_5MixedE",
            "__ZN5realm3app15MongoCollection11delete_manyERKNS_4bson10IndexedMapINS2_4BsonEEEONS_4util14UniqueFunctionIFvOyNSt3__18optionalINS0_8AppErrorEEEEEE",
            "__ZN5realm4sync10ClientImpl7Session17send_bind_messageEv",
            "__ZNK5realm9TableView3maxENS_6ColKeyEPNS_6ObjKeyE",
            "__ZN5realm11Transaction8rollbackEv",
            "__ZN5realm3SetINS_6ObjKeyEE9do_insertEmS1_",
            "__ZN5realm4sync10ClientImpl34register_abandoned_session_wrapperENS_4util8bind_ptrINS0_14SessionWrapperEEE",
            "__ZN5realm9GeoRegionD2Ev",
            "__ZN5realm13StaleAccessorD2Ev",
            "__ZN5realm11ClusterTree6insertENS_6ObjKeyERKNS_11FieldValuesE",
            "___bid128_to_int64_xrnint",
            "__ZN5realm4util9BacktraceD2Ev",
            "__ZN5realm18make_audit_contextENSt3__110shared_ptrINS_2DBEEERKNS_11RealmConfigE",
            "__ZN5realmlsERNSt3__113basic_ostreamIcNS0_11char_traitsIcEEEERKNS_5MixedE",
            "__ZN5realm5_impl16RealmCoordinator20advance_schema_cacheEyy",
            "__ZN5realm14NotImplementedD2Ev",
            "__ZNK18RLMObservationInfo9didChangeEP8NSString16NSKeyValueChangeP10NSIndexSet",
            "__ZN5realm2DB15async_end_writeEv",
            "__ZN5realm5_impl12client_reset29RecoverLocalChangesetsHandler16RecoveryResolver8on_beginERKNSt3__18optionalINS_3ObjEEE",
            "__ZN5realm10Decimal1283nanEPKc",
            "__ZN5realm4sync10ClientImpl7Session19get_migration_storeEv",
            "___bid128_to_int64_floor",
            "__ZN5realm4sync6Client8shutdownEv",
            "__ZN5realm10Dictionary5clearEv",
            "__ZN5realm8IndexSet19shift_for_insert_atERKS0_",
            "__ZN5realm4util4File13get_unique_idEi",
            "__ZN5realm6Status9ErrorInfo6createENS_10ErrorCodes5ErrorENSt3__117basic_string_viewIcNS4_11char_traitsIcEEEE",
            "__ZN5realm4sync14MigrationStore23is_rollback_in_progressEv",
            "__ZN5realm4bson4BsonaSEOS1_",
            "__ZN5realm4sync10ClientImpl7Session20on_upload_completionEv",
            "__ZN5realm7Results7get_anyEm",
            "__ZN5realm11GroupWriter9MapWindow15get_window_sizeERNS_4util4FileEmm",
            "__ZN5realm5_impl19ListResultsNotifier18prepare_to_deliverEv",
            "__ZN5realm15ObjectChangeSet5mergeEOS0_",
            "__ZNK5realm5MixedmlERKS0_",
            "__ZN5realm4sync15SyncReplication11erase_classENS_8TableKeyEm",
            "__ZN5realm5Query14size_not_equalENS_6ColKeyEx",
            "__ZN5realm5Realm7compactEv",
            "__ZN5realm4sync10ClientImpl37register_unactualized_session_wrapperEPNS0_14SessionWrapperENS0_14ServerEndpointE",
            "__ZNK5realm4sync15SubscriptionSet29get_state_change_notificationENS1_5StateENS_4util14UniqueFunctionIFvNSt3__18optionalIS2_EENS6_INS_6StatusEEEEEE",
            "__ZNK12RLMClassInfo5tableEv",
            "__ZN5realm4util10DirScannerC2ERKNSt3__112basic_stringIcNS2_11char_traitsIcEENS2_9allocatorIcEEEEb",
            "__ZN5realm10QueryGroupC1ERKS0_",
            "__ZN5realm4bson4BsonD2Ev",
            "__ZN5realm4sync16ChangesetEncoderclERKNS0_5instr9AddColumnE",
            "__ZN5realm4sync18InstructionApplier18get_list_from_pathERNS_3ObjENS_6ColKeyE",
            "__Z29RLMEnsureArrayObservationInfoRNSt3__110unique_ptrI18RLMObservationInfoNS_14default_deleteIS1_EEEEP8NSStringP8RLMArrayP11objc_object",
            "__ZNK5realm5_impl12client_reset29RecoverLocalChangesetsHandler12handle_errorERKNSt3__112basic_stringIcNS3_11char_traitsIcEENS3_9allocatorIcEEEE",
            "__ZN5realm4util10AESCryptor11refresh_ivsEixmm",
            "__ZN5realm14OutOfDiskSpaceD0Ev",
            "__ZN5realm5Realm28check_pending_write_requestsEv",
            "__ZNK5realm4util3Uri8get_authERNSt3__112basic_stringIcNS2_11char_traitsIcEENS2_9allocatorIcEEEES9_S9_",
            "__ZN5realm5_impl26ObjectKeyPathChangeCheckerC1ERKNS0_21TransactionChangeInfoERKNS_5TableERKNSt3__16vectorINS0_17DeepChangeChecker12RelatedTableENS8_9allocatorISB_EEEERKNS9_INS9_INS8_4pairINS_8TableKeyENS_6ColKeyEEENSC_ISK_EEEENSC_ISM_EEEEb",
            "__ZN5realm7ColumnsINS_4LinkEE8evaluateEmRNS_9ValueBaseE",
            "__ZN5realm7Cluster20update_ref_in_parentENS_6ObjKeyEm",
            "__ZN5realm3app14AppCredentials9anonymousEb",
            "__ZNK5realm7metrics15TransactionInfo32get_transaction_time_nanosecondsEv",
            "__ZN5realm7NotNode16find_first_localEmm",
            "__ZN5realm4sync16ChangesetEncoderclERKNS0_5instr11EraseColumnE",
            "__ZNK5realm12object_store10Collection3sumENS_6ColKeyE",
            "__ZNR5realm14ResultsSection25add_notification_callbackEONS_4util14UniqueFunctionIFvNS_25SectionedResultsChangeSetEEEENSt3__18optionalINS7_6vectorINS9_INS7_4pairINS_8TableKeyENS_6ColKeyEEENS7_9allocatorISD_EEEENSE_ISG_EEEEEE",
            "__ZN5realm5Table23refresh_content_versionEv",
            "__ZN12RLMClassInfo14linkTargetTypeERKN5realm8PropertyE",
            "__ZNK5realm7metrics15TransactionInfo26get_num_available_versionsEv",
            "__ZN5realm19exception_to_statusEv",
            "__ZN5realm5_impl14ClientProtocol9make_pingERNS_4util43BasicResettableExpandableBufferOutputStreamIcNSt3__111char_traitsIcEENS4_9allocatorIcEEEExx",
            "__ZNK12RLMClassInfo27keyPathArrayFromStringArrayEP7NSArrayIP8NSStringE",
            "__ZN5realm7metrics17MetricTimerResultD2Ev",
            "__ZN5realm5Table15get_sorted_viewENS_14SortDescriptorE",
            "__ZN5realm10Decimal128C2EdNS0_7RoundToE",
            "__ZN21RLMObservationTracker9didChangeEv",
            "__ZN5realm9SlabAlloc19get_total_slab_sizeEv",
            "__ZN5realm10ArrayMixed5eraseEm",
            "__ZNK5realm5Table27get_object_with_primary_keyENS_5MixedE",
            "__ZN5realm11SyncSession39update_error_and_mark_file_for_deletionERNS_9SyncErrorENS0_12ShouldBackupE",
            "__ZN5realm4sync16ChangesetEncoderclERKNS0_5instr11EraseObjectE",
            "__ZNK5realm8SyncUser5stateEv",
            "__ZN5realm4util10AESCryptor12get_iv_tableEixNS1_12IVLookupModeE",
            "__ZN5realm5RealmC1ENS_11RealmConfigENSt3__18optionalINS_9VersionIDEEENS2_10shared_ptrINS_5_impl16RealmCoordinatorEEENS0_13MakeSharedTagE",
            "__ZN5realm7ResultsD1Ev",
            "__ZN5realmlsERNSt3__113basic_ostreamIcNS0_11char_traitsIcEEEERKNS_6SchemaE",
            "___bid64qq_sub",
            "__ZN5realm10Dictionary14ensure_createdEv",
            "__ZN5realm5_impl14ObjectNotifier27do_add_required_change_infoERNS0_21TransactionChangeInfoE",
            "__ZN5realm7Results8index_ofEONS_5QueryE",
            "__ZN5realm2DB4openERNS_11ReplicationERKNSt3__112basic_stringIcNS3_11char_traitsIcEENS3_9allocatorIcEEEERKNS_9DBOptionsE",
            "__ZN5realm4sync7network3ssl7Context30ssl_use_certificate_chain_fileERKNSt3__112basic_stringIcNS4_11char_traitsIcEENS4_9allocatorIcEEEERNS4_10error_codeE",
            "__ZN5realm5_impl15TransformerImpl9MajorSide7discardEv",
            "__ZNK5realm7Cluster3getEmRNS_11ClusterNode5StateE",
            "__ZN5realm21WrongTransactionStateD0Ev",
            "__ZN5realm4util4File7rw_lockEbb",
            "__ZN5realm3app3App13call_functionERKNSt3__110shared_ptrINS_8SyncUserEEERKNS2_12basic_stringIcNS2_11char_traitsIcEENS2_9allocatorIcEEEERKNS2_6vectorINS_4bson4BsonENSB_ISI_EEEEONS_4util14UniqueFunctionIFvONS2_8optionalISI_EENSP_INS0_8AppErrorEEEEEE",
            "__ZN5realm4sync14MigrationStore19convert_sync_configENSt3__110shared_ptrINS_10SyncConfigEEE",
            "__ZN5realm7Results14apply_orderingEONS_18DescriptorOrderingE",
            "__ZN5realm4sync18InstructionApplier12PathResolver8on_beginERKNSt3__18optionalINS_3ObjEEE",
            "__ZN5realm4sync10ClientImpl7Session32is_steady_state_download_messageENS0_18DownloadBatchStateEx",
            "__ZNK5realm19SyncMetadataManager28all_users_marked_for_removalEv",
            "__ZN5realm5_impl12client_reset29RecoverLocalChangesetsHandler16RecoveryResolverC2EPS2_RNS_4sync5instr15PathInstructionERKNSt3__117basic_string_viewIcNS9_11char_traitsIcEEEE",
            "__ZN5realm5_impl15NotifierPackageC2ENSt3__16vectorINS2_10shared_ptrINS0_18CollectionNotifierEEENS2_9allocatorIS6_EEEEPNS0_16RealmCoordinatorE",
            "__ZN5realm4sync15SyncReplication13rename_columnEPKNS_5TableENS_6ColKeyENS_10StringDataE",
            "__ZNK5realm9TableView11count_mixedENS_6ColKeyENS_5MixedE",
            "__ZN5realm11ObjectStore21table_for_object_typeERKNS_5GroupENS_10StringDataE",
            "__ZN5realm7ResultsC1ERKS0_",
            "__ZNK5realm9TableView25depends_on_deleted_objectEv",
            "__ZN5realm3app3App30UsernamePasswordProviderClient14reset_passwordERKNSt3__112basic_stringIcNS3_11char_traitsIcEENS3_9allocatorIcEEEESB_SB_ONS_4util14UniqueFunctionIFvNS3_8optionalINS0_8AppErrorEEEEEE",
            "__ZN5realm4sync15SubscriptionSetC2ENSt3__18weak_ptrIKNS0_17SubscriptionStoreEEERKNS_11TransactionENS_3ObjENS_4util10TaggedBoolINS0_20MakingMutableCopyTagEEE",
            "__ZN5realm11SyncManager12set_timeoutsENS_18SyncClientTimeoutsE",
            "__ZN5realm4sync10ClientImpl7Session23send_json_error_messageEv",
            "__ZNK5realm5Mixed14export_to_typeIxEET_v",
            "__ZN5realm11SyncManager11remove_userERKNSt3__112basic_stringIcNS1_11char_traitsIcEENS1_9allocatorIcEEEE",
            "__ZNK5realm5Table17find_first_binaryENS_6ColKeyENS_10BinaryDataE",
            "__ZN5realm5Realm13do_invalidateEv",
            "__ZN5realm3app15MongoCollection4findERKNS_4bson10IndexedMapINS2_4BsonEEEONS_4util14UniqueFunctionIFvONSt3__18optionalINSA_6vectorIS4_NSA_9allocatorIS4_EEEEEENSB_INS0_8AppErrorEEEEEE",
            "__ZN5realm11GroupWriter11write_arrayEPKcmj",
            "__ZN5realm5Table16remove_recursiveERNS_12CascadeStateE",
            "__ZNK5realm10Dictionary8containsENS_5MixedE",
            "__ZNK5realm4bson17RegularExpression7optionsEv",
            "__ZN5realm5Query7betweenENS_6ColKeyEff",
            "__ZN5realm3app15MongoCollection13find_one_bsonERKNS_4bson10IndexedMapINS2_4BsonEEERKNS1_11FindOptionsEONS_4util14UniqueFunctionIFvONSt3__18optionalIS4_EENSE_INS0_8AppErrorEEEEEE",
            "__ZN5realm4util9BacktraceaSEOS1_",
            "__ZNK5realm10Geospatial9assign_toERNS_3ObjE",
            "__ZN5realm19ThreadSafeReference7resolveINSt3__110shared_ptrINS_5RealmEEEEET_RKS5_",
            "___bid64ddq_fma",
            "__ZN5realm11GroupWriter18flush_all_mappingsEv",
            "__ZNK5realm4util9Printable5printERNSt3__113basic_ostreamIcNS2_11char_traitsIcEEEEb",
            "__ZN5realm13BackupHandler22backup_realm_if_neededEii",
            "__ZN5realm7Results7averageENS_6ColKeyE",
            "__ZNK5realm3Obj4_getIxEET_NS_6ColKey3IdxE",
            "__ZNK5realm12object_store3Set10set_equalsERKNS0_10CollectionE",
            "__ZN5realm4sync7network8Resolver6cancelEv",
            "__ZNK5realm17ChunkedBinaryData8write_toERNS_4util43BasicResettableExpandableBufferOutputStreamIcNSt3__111char_traitsIcEENS3_9allocatorIcEEEE",
            "__Z16RLMFastEnumerateP22NSFastEnumerationStatemP22RLMSyncSubscriptionSet",
            "__ZN5realm11KeyNotFoundD1Ev",
            "__ZN5realm11TypeOfValueC1ERKNS_6ColKeyE",
            "__ZN5realm5Query8containsENS_6ColKeyENS_10StringDataEb",
            "__ZN5realm6Schema4findENS_10StringDataE",
            "__ZN5realm4sync6Client47wait_for_session_terminations_or_client_stoppedEv",
            "__ZN5realm8IndexSet6removeERKS0_",
            "__ZN5realm18DescriptorOrdering6appendERKS0_",
            "__ZN5realm5Query5equalENS_6ColKeyEi",
            "__ZNK5realm19SyncMetadataManager9get_usersEb",
            "__ZN5realm16SyncUserMetadataC1ENS0_6SchemaENSt3__110shared_ptrINS_5RealmEEERKNS_3ObjE",
            "__ZN5realm7Results7do_sizeEv",
            "__ZN5realm5_impl14ClientProtocol17make_mark_messageERNS_4util43BasicResettableExpandableBufferOutputStreamIcNSt3__111char_traitsIcEENS4_9allocatorIcEEEEyy",
            "__ZNK5realm4util4File13get_unique_idEv",
            "__ZN5realm5_impl17WeakRealmNotifierC1ERKNSt3__110shared_ptrINS_5RealmEEEb",
            "__ZNK5realm4sync18InstructionApplier10get_binaryENS0_17StringBufferRangeE",
            "__ZN5realm4sync7Session26set_sync_transact_callbackENS_4util14UniqueFunctionIFvNS_9VersionIDES4_EEE",
            "__ZN5realm5_impl17WeakRealmNotifierD1Ev",
            "__ZN5realm5Query10less_equalENS_6ColKeyES1_",
            "__ZN5realm11ArrayString4moveERS0_m",
            "__ZN5realm11SyncSession23add_completion_callbackENS_4util14UniqueFunctionIFvNS_6StatusEEEENS_5_impl20SyncProgressNotifier12NotifierTypeE",
            "__ZN5realm14SortDescriptor5mergeEOS0_NS0_9MergeModeE",
            "__ZN5realm12object_store10CollectionD0Ev",
            "__ZN5realm4sync14SessionWrapper8finalizeEv",
            "__ZN5realm4sync10ClientImpl7Session21receive_ident_messageENS0_15SaltedFileIdentE",
            "__ZN21RLMObservationTrackerC1EP8RLMRealmb",
            "_RLMEventGetContext",
            "__ZN5realm5_impl15TransformerImpl11Transformer18merge_instructionsERNS1_9MajorSideERNS1_9MinorSideE",
            "__ZN5realm4sync10ClientImpl14create_triggerEONS_4util14UniqueFunctionIFvNS_6StatusEEEE",
            "__ZN5realm15ArraySmallBlobs6insertEmNS_10BinaryDataEb",
            "__ZNK5realm5Table9get_stateEv",
            "__ZN5realm11GroupWriter9MapWindow16extends_to_matchERNS_4util4FileEmm",
            "__ZN5realm7Cluster6insertENS_6ObjKeyERKNS_11FieldValuesERNS_11ClusterNode5StateE",
            "__ZN5realm7metrics7Metrics22start_read_transactionEv",
            "__ZNK5realm4sync13ClientHistory17get_local_changesEy",
            "__ZN5realm3app3App24do_authenticated_requestEONS0_7RequestERKNSt3__110shared_ptrINS_8SyncUserEEEONS_4util14UniqueFunctionIFvRKNS0_8ResponseEEEE",
            "__ZN5realm16ClusterNodeInnerD0Ev",
            "__ZN5realm3app3App19refresh_custom_dataERKNSt3__110shared_ptrINS_8SyncUserEEEbONS_4util14UniqueFunctionIFvNS2_8optionalINS0_8AppErrorEEEEEE",
            "__ZN5realm12object_store10CollectionC2ENSt3__110shared_ptrINS_5RealmEEERKNS_14CollectionBaseE",
            "__ZN5realm3app15MongoCollection10delete_oneERKNS_4bson10IndexedMapINS2_4BsonEEEONS_4util14UniqueFunctionIFvOyNSt3__18optionalINS0_8AppErrorEEEEEE",
            "__ZN5realm11TypeOfValueC1ERKNS_8DataTypeE",
            "__ZN5realm4sync9websocket21DefaultSocketProvider15do_state_updateERNSt3__111unique_lockINS3_5mutexEEENS2_5StateE",
            "__ZN5realm4sync10ClientImpl39actualize_and_finalize_session_wrappersEv",
            "__ZN5realm5Query13greater_equalENS_6ColKeyEd",
            "__ZNK5realm14SortDescriptor5cloneEv",
            "__ZN5realm4sync13ClientHistory6ArraysC2ERNS_9AllocatorE",
            "__ZN5realm16ClusterNodeInner11adjust_keysEx",
            "__ZN5realm5Table19set_sequence_numberEy",
            "__ZN5realm4util9Scheduler12make_genericEv",
            "__ZN5realm6ObjectC1ERKS0_",
            "__ZNK5realm5Realm23latest_snapshot_versionEv",
            "__ZN5realm2DB10write_copyENS_10StringDataEPKc",
            "__ZN5realm8case_mapENS_10StringDataEb",
            "__ZNK5realm7Results17is_in_table_orderEv",
            "__ZN5realm4sync9websocket21DefaultSocketProviderC1ERKNSt3__110shared_ptrINS_4util6LoggerEEENS3_12basic_stringIcNS3_11char_traitsIcEENS3_9allocatorIcEEEERKNS4_INS_29BindingCallbackThreadObserverEEENS5_10TaggedBoolINS2_12AutoStartTagEEE",
            "__ZN5realm4sync18InstructionApplier12PathResolver7resolveEv",
            "__ZNK5realm5Table5beginEv",
            "__ZN5realm7metrics17MetricTimerResultD1Ev",
            "__ZN5realm2DB33get_version_id_of_latest_snapshotEv",
            "___bid128_from_uint32",
            "__ZN5realm3Obj3setIxEERS0_NS_6ColKeyET_b",
            "___bid64dq_mul",
            "__ZN5realm5_impl14ServerProtocol9make_pongERNS_4util43BasicResettableExpandableBufferOutputStreamIcNSt3__111char_traitsIcEENS4_9allocatorIcEEEEx",
            "__ZN5realm9TableViewC1ERS0_PNS_11TransactionENS_13PayloadPolicyE",
            "__ZN5realm8Subexpr2INS_5MixedEE9ends_withES1_b",
            "__ZN5realm6ObjectaSEOS0_",
            "__ZN5realm20InvalidEncryptionKeyD1Ev",
            "__ZN5realm7Results7try_getINS_3ObjEEENSt3__18optionalIT_EEm",
            "__ZN5realm5Query13greater_equalENS_6ColKeyENS_4UUIDE",
            "__ZN5realm4sync26SyncMetadataSchemaVersionsC1ERKNSt3__110shared_ptrINS_11TransactionEEE",
            "__ZN5realm14IndexEvaluator15do_search_indexEPKNS_7ClusterEmm",
            "__ZN5realm4util23get_num_decrypted_pagesEv",
            "__ZN5realm2DB6createENS_10BinaryDataEb",
            "__ZNK5realm5Mixed4hashEv",
            "__ZN5realm15MigrationFailedD0Ev",
            "__ZN5realm11GroupWriterC1ERNS_5GroupENS_9DBOptions10DurabilityEPNS_4util11WriteMarkerE",
            "__ZN5realm13ArrayBigBlobs3addENS_10BinaryDataEb",
            "__ZN5realm5_impl12client_reset11ListTracker6insertEjm",
            "__ZN5realm4sync10ClientImpl7Session19send_unbind_messageEv",
            "__ZN5realm25ModifyPrimaryKeyExceptionC1ERKNSt3__112basic_stringIcNS1_11char_traitsIcEENS1_9allocatorIcEEEES9_",
            "__ZN5realm5Table13rename_columnENS_6ColKeyENS_10StringDataE",
            "__ZN5realm21AuditObjectSerializer7to_jsonERN8nlohmann10basic_jsonINSt3__13mapENS3_6vectorENS3_12basic_stringIcNS3_11char_traitsIcEENS3_9allocatorIcEEEEbxydS9_NS1_14adl_serializerEEERKNS_3ObjE",
            "__ZN5realm14ExpressionNode16find_first_localEmm",
            "__ZNK5realm6Object9is_frozenEv",
            "__ZN5realm4sync15SyncReplication10as_payloadERKNS_14CollectionBaseENS_5MixedE",
            "__ZN5realm5Table23get_or_create_tombstoneENS_6ObjKeyENS_6ColKeyENS_5MixedE",
            "__ZN5realm5Query8containsENS_6ColKeyENS_5MixedEb",
            "__ZN5realm11Transaction5closeEv",
            "__ZNK5realm5Table12count_doubleENS_6ColKeyEd",
            "__ZN5realm4sync14MigrationStore22get_migrated_partitionEv",
            "__ZN5realm4util4File6existsERKNSt3__112basic_stringIcNS2_11char_traitsIcEENS2_9allocatorIcEEEE",
            "__ZNK5realm11StringIndex3getENS_6ObjKeyE",
            "__ZNK5realm9ArrayBlob6verifyEv",
            "__ZN5realm7Results6freezeERKNSt3__110shared_ptrINS_5RealmEEE",
            "__ZN5realm8keychain36delete_metadata_realm_encryption_keyEv",
            "__ZNK5realm13ConstTableRefptEv",
            "__ZN5realm8ObjectId12is_valid_strENS_10StringDataE",
            "__ZN5realm5Query13greater_equalENS_6ColKeyENS_5MixedE",
            "__ZN5realm5_impl19SystemConfiguration37network_reachability_create_with_nameEPK13__CFAllocatorPKc",
            "__ZN5realm4util15make_raw_stringERKNSt3__112basic_stringIcNS1_11char_traitsIcEENS1_9allocatorIcEEEE",
            "__ZN5realm16InvalidColumnKeyD0Ev",
            "__ZThn80_N5realm14BPlusTreeInnerD0Ev",
            "__ZN5realm4util4File18set_encryption_keyEPKc",
            "__ZN5realm4Spec16get_enumkeys_refEmRPNS_11ArrayParentE",
            "__ZN5realm11ArrayString13init_from_memENS_6MemRefE",
            "__ZNK5realm7LinkMap11descriptionERNS_4util10serializer18SerialisationStateE",
            "__ZN5realm5Realm27get_active_subscription_setEv",
            "__ZN5realm4util19InterprocessCondVarD2Ev",
            "__ZNK5realm5Query18aggregate_internalEPNS_10ParentNodeEPNS_14QueryStateBaseEmmPNS_12ArrayPayloadE",
            "___bid128_div",
            "__ZN5realm2DB14leak_read_lockERNS0_12ReadLockInfoE",
            "__ZN5realm12ArrayIntNull13init_from_refEm",
            "__ZN5realm5Table14find_all_floatENS_6ColKeyEf",
            "__ZN5realm4util9page_sizeEv",
            "__ZNK5realm5_impl18CollectionNotifier7versionEv",
            "__ZN5realm8IndexSet4findEm",
            "__ZN5realm5Table13create_objectENS_9GlobalKeyERKNS_11FieldValuesE",
            "__ZN5realm4Spec6detachEv",
            "__ZN5realm12object_store3Set19assign_intersectionERKNS0_10CollectionE",
            "__ZN5realm4sync9websocket6Config31websocket_ping_message_receivedEPKcm",
            "__ZN5realm5Query9and_queryEOS0_",
            "__ZN5realm4sync15SyncReplication12rename_classENS_8TableKeyENS_10StringDataE",
            "__ZN5realm4sync27create_sync_metadata_schemaERKNSt3__110shared_ptrINS_11TransactionEEEPNS1_6vectorINS0_17SyncMetadataTableENS1_9allocatorIS8_EEEE",
            "__ZN5realm4sync10ClientImpl10Connection21initiate_pong_timeoutEv",
            "__ZN5realm4util9terminateEPKcS2_lOSt16initializer_listINS0_9PrintableEE",
            "__ZNK5realm5Mixed14export_to_typeIfEET_v",
            "__ZN5realm5_impl15ResultsNotifier8reattachEv",
            "__ZN5realm8SyncUser24detach_from_sync_managerEv",
            "__ZN5realm18SerializationErrorD1Ev",
            "__ZN5realm7metrics7Metrics17take_transactionsEv",
            "__ZN5realm16ClusterNodeInner6createEi",
            "__ZNK5realm3Obj17get_parent_objectEv",
            "__ZNK5realm5Table15find_first_uuidENS_6ColKeyENS_4UUIDE",
            "__ZN5realm6Schema11sort_schemaEv",
            "__ZN5realm15sequence_lengthEc",
            "__ZNK5realm5Array9blob_sizeEv",
            "__ZN5realm4sync26SyncMetadataSchemaVersions15set_version_forERKNSt3__110shared_ptrINS_11TransactionEEENS2_17basic_string_viewIcNS2_11char_traitsIcEEEEx",
            "__ZNK5realm12object_store10Dictionary11try_get_anyENS_10StringDataE",
            "__ZN5realm14BPlusTreeInner14ensure_offsetsEv",
            "__ZN5realm18MultipleSyncAgentsD0Ev",
            "__ZN5realm17NotificationTokenD1Ev",
            "__ZN5realm5Table13find_all_boolENS_6ColKeyEb",
            "__ZN5realm4util4File4readEPcm",
            "__ZN5realm9TableView5clearEv",
            "__ZNK5realm8ObjectId9to_stringEv",
            "__ZNK5realm12ArrayIntNull10find_firstENSt3__18optionalIxEEmm",
            "__ZN5realm13BPlusTreeBase13bptree_insertEmNS_4util11FunctionRefIFmPNS_13BPlusTreeNodeEmEEE",
            "__ZN5realm4util20MemoryInputStreambuf5uflowEv",
            "__ZN5realm4sync16ChangesetEncoder12append_valueENS_9GlobalKeyE",
            "__ZN5realm21AuditObjectSerializer9get_fieldERN8nlohmann10basic_jsonINSt3__13mapENS3_6vectorENS3_12basic_stringIcNS3_11char_traitsIcEENS3_9allocatorIcEEEEbxydS9_NS1_14adl_serializerEEERKNS_3ObjENS_6ColKeyERKNS_5MixedE",
            "__ZN5realm4List6removeEm",
            "___bid128_from_int32",
            "__ZN5realm4bson17RegularExpressionC1ENSt3__112basic_stringIcNS2_11char_traitsIcEENS2_9allocatorIcEEEERKS8_",
            "__ZN5realm4sync7network3ssl6Stream9tcp_writeEPKvPm",
            "__ZNK5realm3Obj22get_primary_key_columnEv",
            "__ZN5realm12query_parser20InvalidQueryArgErrorD2Ev",
            "__ZN5realm5_impl18CollectionNotifier9attach_toENSt3__110shared_ptrINS_11TransactionEEE",
            "__ZN5realm11ArrayBinary3setEmNS_10BinaryDataE",
            "__ZN5realm13ArrayBigBlobs8find_allERNS_13IntegerColumnENS_10BinaryDataEbmmm",
            "__ZN5realm4util4File6unlockEv",
            "__ZN5realm10Dictionary7nullifyENS_5MixedE",
            "__ZN5realm7Results17sectioned_resultsENS0_24SectionedResultsOperatorENSt3__18optionalINS_10StringDataEEE",
            "__ZN5realm4sync15SyncReplication22primary_key_for_objectERKNS_5TableENS_6ObjKeyE",
            "__ZN5realm13BackupHandler20get_prefix_from_pathERKNSt3__112basic_stringIcNS1_11char_traitsIcEENS1_9allocatorIcEEEE",
            "__ZN5realm6SchemaC2ENSt3__16vectorINS_12ObjectSchemaENS1_9allocatorIS3_EEEE",
            "__ZN5realm12ObjectSchemaC1ENSt3__112basic_stringIcNS1_11char_traitsIcEENS1_9allocatorIcEEEESt16initializer_listINS_8PropertyEE",
            "__ZNK5realm3Obj9get_allocEv",
            "__ZN5realm4sync15SyncReplication16dictionary_eraseERKNS_14CollectionBaseEmNS_5MixedE",
            "__ZNK5realm4sync17ClientReplication26get_history_schema_versionEv",
            "__ZN5realm12ObjectSchemaC1Ev",
            "__ZNK5realm12ObjectSchema20property_is_computedERKNS_8PropertyE",
            "__ZN5realm8TableRef13unsafe_createEPNS_5TableE",
            "__ZN5realm9GlobalKeyC1ENS_5MixedE",
            "__ZN5realm5_impl19ListResultsNotifier3runEv",
            "__ZN5realm5_impl15CopyReplication9add_classENS_8TableKeyENS_10StringDataENS_5Table4TypeE",
            "__ZN5realm5_impl15TransformerImpl9MajorSide18set_next_changesetEPNS_4sync9ChangesetE",
            "__ZN5realm4sync26get_protocol_error_messageEi",
            "__ZN5realm7Cluster21node_size_from_headerERNS_9AllocatorEPKc",
            "__ZN5realm18StringNodeFulltextC2ERKS0_",
            "__ZN5realm5_impl12client_reset29RecoverLocalChangesetsHandlerclERKNS_4sync5instr8AddTableE",
            "__ZN5realm5Table18finalize_migrationENS_6ColKeyE",
            "__Z12RLMExceptionRKSt9exception",
            "__ZN5realm3app3AppD1Ev",
            "__ZNK5realm8SyncUser12user_profileEv",
            "__ZN5realm2DB13get_core_fileERKNSt3__112basic_stringIcNS1_11char_traitsIcEENS1_9allocatorIcEEEENS0_12CoreFileTypeE",
            "__ZN5realm4util4File7MapBase3mapERKS1_NS1_10AccessModeEmimPNS0_13WriteObserverE",
            "__ZN5realm4sync7network7Service9IoReactor19remove_canceled_opsERNS2_10DescriptorERNS2_9OperQueueINS2_9AsyncOperEEE",
            "__ZN5realm4util6formatERNSt3__113basic_ostreamIcNS1_11char_traitsIcEEEEPKcSt16initializer_listINS0_9PrintableEE",
            "__ZN5realm5Realm16set_auto_refreshEb",
            "__ZN5realm4util5error19misc_error_categoryEv",
            "__ZN5realm11ArrayBinaryC1ERNS_9AllocatorE",
            "__ZN5realm5Query7betweenENS_6ColKeyExx",
            "__ZNK5realm3Obj18get_backlink_countERKNS_5TableENS_6ColKeyE",
            "__ZN5realm12ObjectSchemaC1ENSt3__112basic_stringIcNS1_11char_traitsIcEENS1_9allocatorIcEEEESt16initializer_listINS_8PropertyEESA_S7_",
            "__ZN5realm7LinkMap14set_base_tableENS_13ConstTableRefE",
            "__ZNK5realm3Obj28update_if_needed_with_statusEv",
            "__ZN5realm20InvalidEncryptionKeyD0Ev",
            "__ZN5realm5Query13greater_equalENS_6ColKeyENS_8ObjectIdE",
            "__ZN5realm4sync18InstructionApplier14get_top_objectERKNS0_5instr17ObjectInstructionERKNSt3__117basic_string_viewIcNS6_11char_traitsIcEEEE",
            "__ZN5realm10ArrayMixed13replace_indexEmmm",
            "__ZN5realm12object_store10Dictionary5eraseENS_10StringDataE",
            "__ZN18RLMObservationInfoD2Ev",
            "__ZN5realm8Subexpr2INS_5MixedEE4likeES1_b",
            "__ZN5realm4sync10ClientImpl7Session20receive_mark_messageEy",
            "__ZN5realm4bsonlsERNSt3__113basic_ostreamIcNS1_11char_traitsIcEEEERKNS0_4BsonE",
            "__ZN5realm7ClusterD1Ev",
            "__ZN5realm26InvalidatedObjectExceptionC1ERKNSt3__112basic_stringIcNS1_11char_traitsIcEENS1_9allocatorIcEEEE",
            "__ZN5realm7Results22import_copy_into_realmERKNSt3__110shared_ptrINS_5RealmEEE",
            "__ZN5realm14ExpressionNodeC1ENSt3__110unique_ptrINS_10ExpressionENS1_14default_deleteIS3_EEEE",
            "__ZNK5realm5_impl12client_reset8ListPathltERKS2_",
            "__ZN5realm11SyncSession28make_active_subscription_setEv",
            "__ZN5realm5Query7greaterENS_6ColKeyEx",
            "__ZNK5realm4util22DispatchQueueScheduler10is_same_asEPKNS0_9SchedulerE",
            "__ZNK5realm5Table13find_all_boolENS_6ColKeyEb",
            "__ZThn24_N5realm3app3App13call_functionERKNSt3__112basic_stringIcNS2_11char_traitsIcEENS2_9allocatorIcEEEERKNS2_6vectorINS_4bson4BsonENS6_ISD_EEEERKNS2_8optionalIS8_EEONS_4util14UniqueFunctionIFvONSI_ISD_EENSI_INS0_8AppErrorEEEEEE",
            "__ZN5realm14ArrayTimestampC1ERNS_9AllocatorE",
            "__ZN5realm13ArrayBigBlobs3setEmNS_10BinaryDataEb",
            "__ZNK5realm17ChunkedBinaryData7copy_toERNS_4util12AppendBufferIcEE",
            "__ZN5realm12object_store3SetaSEOS1_",
            "__ZNK5realm4util6detail26ExceptionWithBacktraceBase19materialize_messageEv",
            "__ZN5realm5Array6insertEmx",
            "__ZN5realm4sync9websocket6Socket4stopEv",
            "__ZN5realm4ListC1ERKS0_",
            "__ZNK5realm5Query3minENS_6ColKeyEPNS_6ObjKeyE",
            "__ZNK5realm12object_store10Collection8is_validEv",
            "__ZN5realm4sync18InstructionApplierclERKNS0_5instr9AddColumnE",
            "__ZN5realm4sync7network15ReadAheadBuffer4readERPcS3_iRNSt3__110error_codeE",
            "__ZN5realm8Subexpr2INS_5MixedEE11begins_withES1_b",
            "__ZN5realm4sync10ClientImpl10Connection33websocket_binary_message_receivedENS_4util4SpanIKcLm18446744073709551615EEE",
            "__ZN5realm3app15MongoCollection19find_one_and_updateERKNS_4bson10IndexedMapINS2_4BsonEEES7_ONS_4util14UniqueFunctionIFvONSt3__18optionalIS5_EENSB_INS0_8AppErrorEEEEEE",
            "__ZN5realm5_impl18ChunkedRangeVector6insertENS0_33MutableChunkedRangeVectorIteratorINSt3__111__wrap_iterIPNS1_5ChunkEEEEENS3_4pairImmEE",
            "___bid64dqd_fma",
            "__ZN5realm4util9Scheduler19set_default_factoryENS0_14UniqueFunctionIFNSt3__110shared_ptrIS1_EEvEEE",
            "__ZN5realm4util4File5unmapEPvm",
            "__ZN5realm15SyncFileManagerC2ERKNSt3__112basic_stringIcNS1_11char_traitsIcEENS1_9allocatorIcEEEES9_",
            "__ZNK5realm3Obj12get_fat_pathEv",
            "__ZN5realm15ArrayDecimal1284moveERS0_m",
            "__ZNK5realm15SyncFileManager13metadata_pathEv",
            "__ZN5realm10converters24InterRealmValueConverter15copy_dictionaryERKNS_3ObjERS2_Pb",
            "__ZN5realm4util9SchedulerD0Ev",
            "__ZN5realm21AuditObjectSerializer13link_accessedENS_9VersionIDENS_8TableKeyENS_6ObjKeyENS_6ColKeyE",
            "__ZN5realm9SlabAlloc25reset_free_space_trackingEv",
            "__ZN5realm4sync7network7Service17run_until_stoppedEv",
            "__ZN5realm16ArrayStringShort3setEmNS_10StringDataE",
            "__ZNK5realm4sync7network3ssl13ErrorCategory4nameEv",
            "__ZN5realm14ColumnListBase9get_listsEmRNS_5ValueIxEEm",
            "__ZThn8_N5realm10DictionaryD0Ev",
            "__ZN5realm5_impl16RealmCoordinator10begin_readENS_9VersionIDEb",
            "__ZN5realm4util19InterprocessCondVar16init_shared_partERNS1_10SharedPartE",
            "__ZN5realm4sync14MigrationStore11is_migratedEv",
            "__ZN5realm4sync9websocket6SocketC1ERNS1_6ConfigE",
            "__ZN5realm5_impl20ExternalCommitHelperC1ERNS0_16RealmCoordinatorERKNS_11RealmConfigE",
            "__ZNK5realm5Query8do_countEm",
            "__ZN5realm12object_store3Set6insertINS_3ObjEEENSt3__14pairImbEET_",
            "__ZN5realm8IndexSet6do_addENS_5_impl33MutableChunkedRangeVectorIteratorINSt3__111__wrap_iterIPNS1_18ChunkedRangeVector5ChunkEEEEEm",
            "__ZN5realm4UUIDC1ENS_10StringDataE",
            "__ZNK5realm10Decimal128eqERKS0_",
            "__ZNK5realm12object_store10Dictionary6freezeERKNSt3__110shared_ptrINS_5RealmEEE",
            "__ZN5realm5_impl12client_reset28remove_pending_client_resetsENSt3__110shared_ptrINS_11TransactionEEE",
            "__ZN5realm18TwoColumnsNodeBase38update_cached_leaf_pointers_for_columnERNS_9AllocatorERKNS_6ColKeyE",
            "__ZN5realm9SlabAlloc12attach_emptyEv",
            "__ZN5realm5Query10less_equalENS_6ColKeyENS_5MixedE",
            "__ZN5realm11SyncSession5pauseEv",
            "__ZN5realm11SyncSession35register_connection_change_callbackEONSt3__18functionIFvNS0_15ConnectionStateES3_EEE",
            "__ZN5realm12object_store10Dictionary10get_objectENS_10StringDataE",
            "__ZN5realm4sync16ChangesetEncoder12append_valueEy",
            "__ZN5realm11GroupWriter17recreate_freelistEm",
            "__ZN5realm5Realm15wait_for_changeEv",
            "__ZN5realm6ObjectC1ERKNSt3__110shared_ptrINS_5RealmEEENS_7ObjLinkE",
            "__ZN5realm5Realm10do_refreshEv",
            "__ZN5realm2DB16low_level_commitEyRNS_11TransactionEb",
            "__ZN5realm4bson4BsonC1ERKS1_",
            "__ZN5realm4bson4BsonaSERKS1_",
            "__ZN5realm16SectionedResults6freezeERKNSt3__110shared_ptrINS_5RealmEEE",
            "__ZN5realm4sync14HTTPParserBase28parse_first_line_of_responseENS_10StringDataERNS0_10HTTPStatusERS2_RNS_4util6LoggerE",
            "__ZN5realm13AsyncOpenTask35register_download_progress_notifierEONSt3__18functionIFvyyEEE",
            "__ZN5realm18DescriptorOrdering17remove_all_limitsEv",
            "__ZN5realm4sync15SyncReplication19populate_path_instrERNS0_5instr15PathInstructionERKNS_14CollectionBaseE",
            "__ZN5realm3app3App19refresh_custom_dataERKNSt3__110shared_ptrINS_8SyncUserEEEONS_4util14UniqueFunctionIFvNS2_8optionalINS0_8AppErrorEEEEEE",
            "__ZN5realm4util4File12get_file_posEi",
            "__ZN5realm10StringNodeINS_5EqualEE18_search_index_initEv",
            "__ZN5realm4util4File9rw_unlockEv",
            "__ZN5realm3Obj15spec_ndx2colkeyEm",
            "__ZN5realm4sync13ClientHistory21set_client_file_identENS0_15SaltedFileIdentEb",
            "__ZNK5realm18DescriptorOrdering12get_versionsEPKNS_5GroupERNS_13TableVersionsE",
            "__ZN5realm4sync9websocket6SocketD2Ev",
            "__ZN5realm5Table18create_empty_tableERNS_9AllocatorENS_8TableKeyE",
            "__ZN5realm2DB14do_begin_writeEv",
            "__ZNK5realm5Realm9duplicateEv",
            "__ZN5realm6SchemaC1ENSt3__16vectorINS_12ObjectSchemaENS1_9allocatorIS3_EEEE",
            "__ZN5realm4sync9websocket6Socket16async_write_pingEPKcmNS_4util14UniqueFunctionIFvvEEE",
            "__ZN5realm10Geospatial14point_from_objERKNS_3ObjENS_6ColKeyES4_",
            "__ZN5realm12ObjectSchemaC2ENSt3__112basic_stringIcNS1_11char_traitsIcEENS1_9allocatorIcEEEENS0_10ObjectTypeESt16initializer_listINS_8PropertyEE",
            "__ZN5realm11ClusterTree16init_from_parentEv",
            "__ZNK5realm11ArrayBinary7get_anyEm",
            "__ZN5realm4util5error15make_error_codeENS1_19basic_system_errorsE",
            "__ZNK5realm6LnkSet12is_subset_ofERKNS_14CollectionBaseE",
            "__ZN5realm5_impl15CopyReplication26add_class_with_primary_keyENS_8TableKeyENS_10StringDataENS_8DataTypeES3_bNS_5Table4TypeE",
            "__ZN5realm11Replication9add_classENS_8TableKeyENS_10StringDataENS_5Table4TypeE",
            "__ZN5realm4sync9websocket21DefaultSocketProvider7connectENSt3__110unique_ptrINS0_17WebSocketObserverENS3_14default_deleteIS5_EEEEONS0_17WebSocketEndpointE",
            "__ZN5realm4util3Uri9set_queryERKNSt3__112basic_stringIcNS2_11char_traitsIcEENS2_9allocatorIcEEEE",
            "__ZN5realm4sync9websocket6SocketC1EOS2_",
            "__ZN5realm7ResultsC1ENSt3__110shared_ptrINS_5RealmEEENS2_INS_14CollectionBaseEEENS1_8optionalINS_5QueryEEENS_14SortDescriptorE",
            "__ZNK5realm15SyncFileManager15copy_realm_fileERKNSt3__112basic_stringIcNS1_11char_traitsIcEENS1_9allocatorIcEEEES9_",
            "__ZN5realm4util4File8preallocEm",
            "__ZN5realm11ObjectStore8is_emptyERKNS_5GroupE",
            "__ZN5realm4sync18InstructionApplier12PathResolver7on_listERNS_7LstBaseE",
            "__Z27RLMCollectionSetValueForKeyPU31objcproto20RLMCollectionPrivate11objc_objectP8NSStringP11objc_object",
            "__ZN5realm4sync10ClientImpl7Session23get_client_reset_configEv",
            "__ZNK5realm5Query8find_allERKNS_18DescriptorOrderingE",
            "__ZN5realm5_impl19ListResultsNotifier11need_to_runEv",
            "__ZN5realm11ClusterTreeD1Ev",
            "__ZN5realm4sync12SubscriptionC2ENSt3__18optionalINS2_12basic_stringIcNS2_11char_traitsIcEENS2_9allocatorIcEEEEEES9_S9_",
            "__ZN5realm8SyncUser7log_outEv",
            "__Z13RLMDynamicSetP13RLMObjectBaseP11RLMPropertyP11objc_object",
            "__ZN5realm3LstINS_6ObjKeyEE9do_removeEm",
            "__ZN5realm4util10serializer11print_valueINS_11TypeOfValueEEENSt3__112basic_stringIcNS4_11char_traitsIcEENS4_9allocatorIcEEEET_",
            "__ZN5realm5QueryC1ENS_13ConstTableRefEONSt3__110unique_ptrINS_7ObjListENS2_14default_deleteIS4_EEEE",
            "__ZN5realm4util26encryption_note_reader_endERNS0_14SharedFileInfoEPKv",
            "__ZN5realm12ObjectSchema24property_for_public_nameENS_10StringDataE",
            "__ZNK5realm3Obj8get_pathEv",
            "___bid128dq_div",
            "__ZNK5realm15ArrayDecimal12810find_firstENS_10Decimal128Emm",
            "__ZN5realm4util3Uri12canonicalizeEv",
            "__ZThn24_NK5realm4sync13ClientHistory18find_history_entryEyyRNS0_12HistoryEntryE",
            "__ZN5realm36InvalidExternalSchemaChangeExceptionC2ERKNSt3__16vectorINS_31ObjectSchemaValidationExceptionENS1_9allocatorIS3_EEEE",
            "__ZN5realm5Group6attachEmbbmy",
            "__ZN5realm5_impl14ServerProtocol17make_mark_messageERNS_4util43BasicResettableExpandableBufferOutputStreamIcNSt3__111char_traitsIcEENS4_9allocatorIcEEEEyy",
            "__ZN5realm2DB14grab_read_lockENS0_12ReadLockInfo4TypeENS_9VersionIDE",
            "__ZN5realm4sync10ClientImpl10Connection23initiate_reconnect_waitEv",
            "__ZN13RLMSchemaInfo5beginEv",
            "__ZNK5realm14ExpressionNode8describeERNS_4util10serializer18SerialisationStateE",
            "__ZN5realm11SyncManager18set_logger_factoryENSt3__18functionIFNS1_10shared_ptrINS_4util6LoggerEEENS5_5LevelEEEE",
            "__ZN5realm12ArrayIntNull13init_from_memENS_6MemRefE",
            "__ZN5realm11Replication14dictionary_setERKNS_14CollectionBaseEmNS_5MixedES4_",
            "__ZNK5realm12object_store10Collection4hashEv",
            "__ZN5realm5_impl15CopyReplication17dictionary_insertERKNS_14CollectionBaseEmNS_5MixedES5_",
            "__ZNK5realm6Schema4findENS_8TableKeyE",
            "__ZN5realm4synclsERNSt3__113basic_ostreamIcNS1_11char_traitsIcEEEENS0_9format_pkE",
            "__ZN5realm4sync14SessionWrapperD2Ev",
            "__ZNK5realm3Obj14get_column_keyENS_10StringDataE",
            "_RLMObjectThaw",
            "__ZN5realm10ErrorCodes11from_stringENSt3__117basic_string_viewIcNS1_11char_traitsIcEEEE",
            "__ZN5realm3app14AppCredentials6customENSt3__112basic_stringIcNS2_11char_traitsIcEENS2_9allocatorIcEEEE",
            "__ZNKSt3__14hashIN5realm12object_store3SetEEclERKS3_",
            "__ZNK5realm5Table3minENS_6ColKeyEPNS_6ObjKeyE",
            "__ZNK5realm15LimitDescriptor15get_descriptionENS_13ConstTableRefE",
            "__ZN5realm13BackupHandler19restore_from_backupEv",
            "__ZNK5realm10ArrayMixed6verifyEv",
            "__ZN5realm5_impl23CollectionChangeBuilderC2ENS_8IndexSetES2_S2_NSt3__16vectorINS_19CollectionChangeSet4MoveENS3_9allocatorIS6_EEEEbb",
            "__ZN5realmrsERNSt3__113basic_istreamIcNS0_11char_traitsIcEEEERNS_9GlobalKeyE",
            "__Z37RLMManagedAccessorClassForObjectClassP10objc_classP15RLMObjectSchemaPKc",
            "__ZN5realm24get_disable_sync_to_diskEv",
            "__Z12RLMDidChangeRKNSt3__16vectorIN5realm14BindingContext13ObserverStateENS_9allocatorIS3_EEEERKNS0_IPvNS4_IS9_EEEE",
            "__ZN5realm5Query18size_greater_equalENS_6ColKeyEx",
            "__ZN5realm4sync14MigrationStoreC2ENSt3__110shared_ptrINS_2DBEEE",
            "__ZNK5realm10Decimal128gtERKS0_",
            "__ZNK5realm14ResultsSection12get_if_validEv",
            "__ZN5realm3app14AppCredentials7api_keyENSt3__112basic_stringIcNS2_11char_traitsIcEENS2_9allocatorIcEEEE",
            "__ZNK5realm11ArrayString7is_nullEm",
            "__ZN5realm17NotificationTokenaSEOS0_",
            "__ZN5realm5_impl12client_reset29RecoverLocalChangesetsHandlerclERKNS_4sync5instr10ArrayEraseE",
            "__ZN5realm5_impl12client_reset29RecoverLocalChangesetsHandler16RecoveryResolverD0Ev",
            "_RLMObjectBaseAddNotificationBlock",
            "__ZNK5realm4sync17SubscriptionStore14get_by_versionEx",
            "__ZN5realm13StaleAccessorD0Ev",
            "__ZN5realm4util10serializer11print_valueINS_8ObjectIdEEENSt3__112basic_stringIcNS4_11char_traitsIcEENS4_9allocatorIcEEEET_",
            "__ZNK5realm10Dictionary10find_valueENS_5MixedE",
            "__ZNK5realm4sync9ChangeseteqERKS1_",
            "__ZNK5realm19SyncMetadataManager25get_or_make_user_metadataERKNSt3__112basic_stringIcNS1_11char_traitsIcEENS1_9allocatorIcEEEES9_b",
            "__ZN5realm4sync16ChangesetEncoder12append_valueENS_4UUIDE",
            "__ZN5realm5_impl11transaction7advanceERNS_11TransactionEPNS_14BindingContextENS_9VersionIDE",
            "__ZN5realm5_impl16RealmCoordinator21init_external_helpersEv",
            "__ZN5realm4util24try_remove_dir_recursiveERKNSt3__112basic_stringIcNS1_11char_traitsIcEENS1_9allocatorIcEEEE",
            "__ZN5realm21AddressSpaceExhaustedD0Ev",
            "__ZN5realm11ObjectStore15set_schema_keysERKNS_5GroupERNS_6SchemaE",
            "__ZN5realm16SyncUserMetadata16set_user_profileERKNS_15SyncUserProfileE",
            "__ZN5realm5Group18DefaultTableWriter11write_namesERNS_5_impl12OutputStreamE",
            "___bid128qdq_fma",
            "__ZNK5realm3Obj19get_unfiltered_linkENS_6ColKeyE",
            "__ZN5realm5_impl12client_reset14transfer_groupERKNS_11TransactionERS2_RNS_4util6LoggerE",
            "__ZN5realm4synclsERNSt3__113basic_ostreamIcNS1_11char_traitsIcEEEERKNS0_12HTTPResponseE",
            "__ZN5realm9Allocator11get_defaultEv",
            "__ZN5realm5_impl23CollectionChangeBuilderC1ENS_8IndexSetES2_S2_NSt3__16vectorINS_19CollectionChangeSet4MoveENS3_9allocatorIS6_EEEEbb",
            "__ZN5realm12object_store3SetC2ERKS1_",
            "__ZN5realm4sync10ClientImpl7Session28on_flx_sync_version_completeEx",
            "__ZN5realm3applsERNSt3__113basic_ostreamIcNS1_11char_traitsIcEEEENS0_8AppErrorE",
            "__ZN5realm14BPlusTreeInner13init_from_memENS_6MemRefE",
            "__ZN5realm14ResultsSection3keyEv",
            "__ZN5realm19ThreadSafeReferenceC2EOS0_",
            "__ZN5realm4util19terminate_with_infoEPKcS2_lS2_OSt16initializer_listINS0_9PrintableEE",
            "__ZN5realm15ObjectChangeSet14insertions_addENS_6ObjKeyE",
            "__ZNK5realm10IndexArray29index_string_find_all_no_copyENS_5MixedERKNS_13ClusterColumnERNS_18InternalFindResultE",
            "__ZN5realm11GroupWriter18reserve_free_spaceEm",
            "__ZNK5realm4Spec7get_keyEm",
            "__ZN5realm5Table34free_local_id_after_hash_collisionENS_6ObjKeyE",
            "__ZNK5realm10Dictionary13align_indicesERNSt3__16vectorImNS1_9allocatorImEEEE",
            "__ZNK5realm12object_store10Dictionary3endEv",
            "__ZNK5realm5Table15find_first_nullENS_6ColKeyE",
            "__ZN5realm8Subexpr2INS_5MixedEE8containsERKS2_b",
            "__ZNR5realm12object_store10Dictionary35add_key_based_notification_callbackENS_4util14UniqueFunctionIFvNS_19DictionaryChangeSetEEEENSt3__18optionalINS7_6vectorINS9_INS7_4pairINS_8TableKeyENS_6ColKeyEEENS7_9allocatorISD_EEEENSE_ISG_EEEEEE",
            "__ZN5realm4sync16ChangesetEncoder12append_valueERKNS0_5instr7Payload4LinkE",
            "__ZNK5realm11ArrayString4sizeEv",
            "__Z25RLMPropertyTypeIsComputed15RLMPropertyType",
            "__ZN5realm3app15MongoCollection19find_one_and_deleteERKNS_4bson10IndexedMapINS2_4BsonEEEONS_4util14UniqueFunctionIFvONSt3__18optionalIS5_EENSB_INS0_8AppErrorEEEEEE",
            "__ZN5realm3app14AppCredentialsC1ERKS1_",
            "__ZNK5realm12object_store10Collection8validateERKNS_3ObjE",
            "__ZN5realm4sync7Session42wait_for_upload_complete_or_client_stoppedEv",
            "__ZNK5realm15SyncFileManager28legacy_hashed_partition_pathERKNSt3__112basic_stringIcNS1_11char_traitsIcEENS1_9allocatorIcEEEES9_",
            "__ZN5realm11Replication17dictionary_insertERKNS_14CollectionBaseEmNS_5MixedES4_",
            "__ZN5realm13ArrayBacklink5eraseEm",
            "__ZNK5realm10Dictionary4sortERNSt3__16vectorImNS1_9allocatorImEEEEb",
            "__ZN5realm5QueryC1ENS_13ConstTableRefERKNS_7ObjListE",
            "_RLMSetMainActor",
            "__ZN5realm15platform_timegmE2tm",
            "__ZN5realm10Decimal128C2ENS0_5Bid64E",
            "__ZN5realm5Table15add_column_listERS0_NS_10StringDataE",
            "__ZN5realm4sync13ClientHistory9set_groupEPNS_5GroupEb",
            "__ZN5realm11Replication16dictionary_eraseERKNS_14CollectionBaseEmNS_5MixedE",
            "__ZN5realm7metrics7MetricsD1Ev",
            "__ZN5realm4sync10ClientImpl10Connection24initiate_disconnect_waitEv",
            "__ZN5realm4sync10ClientImpl7Session27on_new_flx_subscription_setEx",
            "__ZN5realm10ErrorCodes12error_stringENS0_5ErrorE",
            "__ZN5realm6ObjectC1ERKNSt3__110shared_ptrINS_5RealmEEENS_10StringDataENS_6ObjKeyE",
            "__ZN5realm4sync16ChangesetEncoder7releaseEv",
            "__ZN5realm5TableD2Ev",
            "__ZN5realm5Group23prepare_top_for_historyEiiy",
            "__ZN5realm11ObjectStore26object_type_for_table_nameENS_10StringDataE",
            "__ZN5realm5Group6detachEv",
            "__ZN5realm5Realm23async_begin_transactionEONS_4util14UniqueFunctionIFvvEEEb",
            "__ZN5realm5_impl15TransformerImpl9MinorSide7prependENS_4sync11InstructionE",
            "__Z36RLMConvertRLMBSONArrayToBsonDocumentP7NSArrayIPU17objcproto7RLMBSON11objc_objectE",
            "__ZN5realm12object_store3Set10remove_anyENS_5MixedE",
            "__ZN5realm7metrics15TransactionInfoD1Ev",
            "__ZNK5realm11ClusterTree8IteratorptEv",
            "__ZN5realm14BPlusTreeInner13bptree_insertEmRNS_13BPlusTreeNode5StateENS_4util11FunctionRefIFmPS1_mEEE",
            "__ZN5realm16ClusterNodeInner4initENS_6MemRefE",
            "__ZNK5realm4util4File11map_reserveENS1_10AccessModeEmmRPNS0_20EncryptedFileMappingE",
            "__ZThn24_N5realm3app3App13call_functionERKNSt3__112basic_stringIcNS2_11char_traitsIcEENS2_9allocatorIcEEEERKNS2_6vectorINS_4bson4BsonENS6_ISD_EEEEONS_4util14UniqueFunctionIFvONS2_8optionalISD_EENSK_INS0_8AppErrorEEEEEE",
            "__ZThn64_N5realm16ClusterNodeInnerD0Ev",
            "__ZN5realm9SlabAlloc13slab_to_entryERKNS0_4SlabEm",
            "__ZN5realm3app14AppCredentialsaSERKS1_",
            "__ZNK5realm14SortDescriptor6sorterERKNS_5TableERKNS_14BaseDescriptor10IndexPairsE",
            "__ZN5realm5Realm8Internal10begin_readERS0_NS_9VersionIDE",
            "__ZN5realm5Group12remove_tableENS_10StringDataE",
            "__ZNK5realm5Realm23is_in_async_transactionEv",
            "__ZN5realm5_impl15ResultsNotifier17calculate_changesEv",
            "__ZN5realm4sync7network3ssl6Stream13ssl_handshakeERNSt3__110error_codeERNS1_7Service4WantE",
            "__ZN5realm5Table12set_embeddedEbb",
            "__ZN5realm4sync10ClientImpl7Session29initiate_integrate_changesetsEyNS0_18DownloadBatchStateERKNS0_12SyncProgressERKNSt3__16vectorINS0_11Transformer15RemoteChangesetENS7_9allocatorISA_EEEE",
            "__ZN5realm7ObjListD0Ev",
            "__ZN5realm5QueryD1Ev",
            "__ZNK5realm11StringIndex20has_duplicate_valuesEv",
            "__ZNK5realm3app14AppCredentials8providerEv",
            "__ZN5realm9TableView9KeyValues9move_fromERS1_",
            "__ZN5realm5Query12get_orderingEv",
            "__ZThn8_NK5realm20DictionaryLinkValues10get_objectEm",
            "__ZNK5realm4sync15SubscriptionSet5beginEv",
            "__ZN5realm4sync16ChangesetEncoder12append_bytesEPKvm",
            "___bid64qdd_fma",
            "__ZN5realm4sync18InstructionApplier12PathResolver10get_stringENS0_12InternStringE",
            "__ZN5realm4util10serializer11print_valueINS_9TimestampEEENSt3__112basic_stringIcNS4_11char_traitsIcEENS4_9allocatorIcEEEET_",
            "__ZN5realm4util7CondVar17handle_wait_errorEi",
            "__ZN5realm4sync13ClientHistory29record_current_schema_versionERNS_5ArrayEy",
            "__ZN5realm4sync18InstructionApplier12PathResolverC2EPS1_RKNS0_5instr15PathInstructionERKNSt3__117basic_string_viewIcNS8_11char_traitsIcEEEE",
            "__ZNK5realm4sync7network10SocketBase14local_endpointERNSt3__110error_codeE",
            "__ZN5realm4SpecD2Ev",
            "__ZN5realm5_impl12client_reset29RecoverLocalChangesetsHandlerclERKNS_4sync5instr11EraseObjectE",
            "__ZNK5realm12object_store10Dictionary5beginEv",
            "__ZNK5realm5Array6verifyEv",
            "__ZN5realm7metrics7MetricsC2Em",
            "__ZNK5realm17ExtendedColumnKey15get_descriptionEPKNS_5TableE",
            "__ZNK5realm4sync9Changeset11print_valueERNSt3__113basic_ostreamIcNS2_11char_traitsIcEEEERKNS0_5instr7PayloadE",
            "__ZN5realm15equal_case_foldENS_10StringDataEPKcS2_",
            "__ZN5realm4sync22MutableSubscriptionSet5clearEv",
            "__ZN5realm8Subexpr2INS_10StringDataEE8containsERKS2_b",
            "__Z12RLMExceptionRKN5realm9ExceptionE",
            "__ZN5realm5Table6detachENS0_15LifeCycleCookieE",
            "__ZN5realm3SetINS_5MixedEE8do_eraseEm",
            "__ZNK5realm17ChunkedBinaryData7is_nullEv",
            "__ZN5realm16ClusterNodeInner22nullify_incoming_linksENS_6ObjKeyERNS_12CascadeStateE",
            "__ZN5realm4sync19SessionWrapperStackD2Ev",
            "__ZN5realm15InvalidArgumentC1ENS_10ErrorCodes5ErrorENSt3__117basic_string_viewIcNS3_11char_traitsIcEEEE",
            "__ZN5realm15ObjectChangeSet17insertions_removeENS_6ObjKeyE",
            "__ZN5realm5Table13nullify_linksERNS_12CascadeStateE",
            "__Z36RLMConvertBsonDocumentToRLMBSONArrayNSt3__18optionalIN5realm4bson10IndexedMapINS2_4BsonEEEEE",
            "___bid32_from_int32",
            "__ZNK5realm12ArrayIntNull9get_chunkEmPNSt3__18optionalIxEE",
            "__ZN5realm5_impl12OutputStream8do_writeEPKcm",
            "__ZN5realm5_impl27NetworkReachabilityObserverD2Ev",
            "__ZNK5realm15SyncFileManager35preferred_realm_path_without_suffixERKNSt3__112basic_stringIcNS1_11char_traitsIcEENS1_9allocatorIcEEEES9_",
            "__ZN5realm5Query5groupEv",
            "__ZN5realm5Table19remove_search_indexENS_6ColKeyE",
            "__ZNK5realm4util4File11map_reserveENS1_10AccessModeEmm",
            "__ZN5realm4sync15SyncReplication10list_eraseERKNS_14CollectionBaseEm",
            "__ZN5realm4List4moveEmm",
            "__ZN5realm8IndexSet14add_shifted_byERKS0_S2_",
            "__ZN5realm4util10AESCryptor5cryptENS1_14EncryptionModeExPcPKcS5_",
            "__ZN5realm5_impl23CollectionChangeBuilder20clean_up_stale_movesEv",
            "__ZN5realm5Realm25call_completion_callbacksEv",
            "__ZN5realm3app3AppD2Ev",
            "__ZN5realm3app15MongoCollection10update_oneERKNS_4bson10IndexedMapINS2_4BsonEEES7_ONS_4util14UniqueFunctionIFvONS1_12UpdateResultENSt3__18optionalINS0_8AppErrorEEEEEE",
            "__ZN5realm5_impl14ChangesetIndex17erase_instructionENS1_13RangeIteratorE",
            "__ZNK5realm9SyncError15is_client_errorEv",
            "__ZN5realm5Query10less_equalENS_6ColKeyENS_10Decimal128E",
            "__ZNK5realm7metrics11MetricTimer15get_timer_ticksEv",
            "__ZN5realm10LogicErrorD1Ev",
            "__ZNK5realm22SyncFileActionMetadata13original_nameEv",
            "__ZNK5realm3app3App11switch_userERKNSt3__110shared_ptrINS_8SyncUserEEE",
            "__ZN5realm18DescriptorOrdering11append_sortENS_14SortDescriptorENS1_9MergeModeE",
            "__ZN5realm2DB22enable_wait_for_changeEv",
            "__ZN5realm5_impl11TableFriend23get_opposite_link_tableERKNS_5TableENS_6ColKeyE",
            "__ZN5realm4sync9websocket6Socket41initiate_server_websocket_after_handshakeEv",
            "__ZNK5realm3Obj14get_link_countENS_6ColKeyE",
            "__ZN5realm16ClusterNodeInnerC2ERNS_9AllocatorERKNS_11ClusterTreeE",
            "__ZN5realm11GroupWriter37search_free_space_in_part_of_freelistEm",
            "__ZN5realmlsERNSt3__113basic_ostreamIcNS0_11char_traitsIcEEEERKNS_6StatusE",
            "__ZN5realm15ArraySmallBlobs3addENS_10BinaryDataEb",
            "__ZN5realm4util21round_up_to_page_sizeEm",
            "__ZN5realm5Query7greaterENS_6ColKeyEi",
            "__ZN5realm11ClusterTree11insert_fastENS_6ObjKeyERKNS_11FieldValuesERNS_11ClusterNode5StateE",
            "__ZN5realm5RealmD2Ev",
            "__ZN5realm16SectionedResults22reset_section_callbackENS_4util14UniqueFunctionIFNS_5MixedES3_RKNSt3__110shared_ptrINS_5RealmEEEEEE",
            "__ZN5realm4util4File13get_unique_idERKNSt3__112basic_stringIcNS2_11char_traitsIcEENS2_9allocatorIcEEEE",
            "__ZN5realm4List10delete_allEv",
            "__ZN5realm4util10AESCryptor5writeEixPKcmPNS0_11WriteMarkerE",
            "__ZNK5realm12object_store10Collection21verify_in_transactionEv",
            "__ZN5realm5Query12set_orderingENS_4util8bind_ptrINS_18DescriptorOrderingEEE",
            "__ZNK5realm16SyncUserMetadata5stateEv",
            "__ZNK5realm12BinaryColumn6get_atEmRm",
            "__ZNK5realm19SyncMetadataManager24get_file_action_metadataENS_10StringDataE",
            "__ZNK5realm12object_store10Collection20get_parent_table_keyEv",
            "__ZN5realm5_impl23CollectionChangeBuilder6modifyEmm",
            "__ZN5realm4sync15SyncReplication5resetEv",
            "__ZN5realm6ObjectC1ERKNSt3__110shared_ptrINS_5RealmEEERKNS_12ObjectSchemaERKNS_3ObjESC_NS_6ColKeyE",
            "__ZN5realm7NotNode11evaluate_atEm",
            "__ZN21RLMObservationTrackerD1Ev",
            "__ZN5realm4sync16ChangesetEncoder16add_string_rangeENS_10StringDataE",
            "__ZN5realm4util3Uri8set_pathERKNSt3__112basic_stringIcNS2_11char_traitsIcEENS2_9allocatorIcEEEE",
            "__ZNK5realm3Obj3getIS0_EET_NS_6ColKeyE",
            "__ZNK5realm3Obj8is_validEv",
            "__ZN5realm4sync21PendingBootstrapStore5clearEv",
            "__ZNK5realm15ObjectChangeSet22modifications_containsENS_6ObjKeyERKNSt3__16vectorINS_6ColKeyENS2_9allocatorIS4_EEEE",
            "__ZN5realm9SlabAlloc17note_reader_startEPKv",
            "__ZNK5realm4sync18InstructionApplier19bad_transaction_logERKNSt3__112basic_stringIcNS2_11char_traitsIcEENS2_9allocatorIcEEEE",
            "__ZN5realm4sync13ClientHistory6ArraysC1ERNS_9AllocatorE",
            "__ZN5realm4sync10ClientImpl7Session11force_closeEv",
            "__ZN5realm9Tokenizer12get_instanceEv",
            "__ZNK5realm3Obj16get_target_tableENS_7ObjLinkE",
            "__ZN5realm5Table14create_objectsERKNSt3__16vectorINS_6ObjKeyENS1_9allocatorIS3_EEEE",
            "__ZN5realm4sync21PendingBootstrapStoreC2ENSt3__110shared_ptrINS_2DBEEERNS_4util6LoggerE",
            "__ZNK5realm10Dictionary6do_getEm",
            "__ZN5realm4sync26SyncMetadataSchemaVersionsC2ERKNSt3__110shared_ptrINS_11TransactionEEE",
            "__ZN5realm5_impl18TransactLogEncoder17select_collectionENS_6ColKeyENS_6ObjKeyE",
            "___bid32_from_uint32",
            "__ZN5realm5_impl14ClientProtocol20UploadMessageBuilder13add_changesetEyyyyNS_17ChunkedBinaryDataE",
            "__ZN5realm4sync9websocket6SocketC2ERNS1_6ConfigE",
            "__ZN5realm4sync7network3ssl6Stream8tcp_readEPvPm",
            "__ZNK5realm3app3App9all_usersEv",
            "__ZN5realm5Query7betweenENS_6ColKeyEii",
            "__ZNK5realm11SyncSession16connection_stateEv",
            "__ZN5realm12ObjectSchemaC2ENSt3__112basic_stringIcNS1_11char_traitsIcEENS1_9allocatorIcEEEESt16initializer_listINS_8PropertyEESA_S7_",
            "__ZN5realm8IndexSet8do_eraseENS_5_impl33MutableChunkedRangeVectorIteratorINSt3__111__wrap_iterIPNS1_18ChunkedRangeVector5ChunkEEEEEm",
            "__ZN5realm5GroupC2ERKNSt3__112basic_stringIcNS1_11char_traitsIcEENS1_9allocatorIcEEEEPKc",
            "__ZN5realm4util11compression14error_categoryEv",
            "__ZNK5realm9SyncError25is_client_reset_requestedEv",
            "__ZN5realm4sync7network3ssl6Stream9ssl_writeEPKcmRNSt3__110error_codeERNS1_7Service4WantE",
            "__ZNK5realm3Obj17get_all_backlinksENS_6ColKeyE",
            "__ZN5realm9SyncErrorC1ENSt3__110error_codeENS1_17basic_string_viewIcNS1_11char_traitsIcEEEEbNS1_8optionalIS6_EENS1_6vectorINS_4sync26CompensatingWriteErrorInfoENS1_9allocatorISB_EEEE",
            "__ZN5realm4sync14MigrationStore6createENSt3__110shared_ptrINS_2DBEEE",
            "__ZN5realm4sync10ClientImpl7Session24receive_download_messageERKNS0_12SyncProgressEyNS0_18DownloadBatchStateExRKNSt3__16vectorINS0_11Transformer15RemoteChangesetENS7_9allocatorISA_EEEE",
            "__ZN5realm5Query7greaterENS_6ColKeyEd",
            "__ZNK5realm7metrics7Metrics17num_query_metricsEv",
            "__ZN5realm4sync10ClientImpl10Connection16activate_sessionENSt3__110unique_ptrINS1_7SessionENS3_14default_deleteIS5_EEEE",
            "__ZN5realm5_impl18CollectionNotifier26recalculate_key_path_arrayEv",
            "__ZNK5realm22SyncFileActionMetadata6actionEv",
            "__ZN5realm4sync24ErrorTryAgainBackoffInfo5resetEv",
            "__ZN5realm5_impl14ClientProtocol20UploadMessageBuilderC1ERNS_4util43BasicResettableExpandableBufferOutputStreamIcNSt3__111char_traitsIcEENS5_9allocatorIcEEEERNS5_6vectorIcS9_EERNS3_11compression19CompressMemoryArenaE",
            "__ZN5realm4sync10ClientImpl10ConnectionD2Ev",
            "__ZN5realm11SyncSession27set_write_validator_factoryENSt3__18weak_ptrINS_4sync17SubscriptionStoreEEE",
            "__ZN5realm4sync7network7Service10Descriptor20deregister_for_asyncEv",
            "__ZN5realm5Query5equalENS_6ColKeyEb",
            "__ZNK5realm10Dictionary16init_from_parentEb",
            "__ZNK5realm3Obj15remove_backlinkENS_6ColKeyENS_7ObjLinkERNS_12CascadeStateE",
            "__ZThn128_N5realm12ArrayIntNull13init_from_refEm",
            "__ZN5realm4sync10ClientImpl7Session21complete_deactivationEv",
            "__ZN5realm3app14AppCredentialsC1ENS0_12AuthProviderENSt3__110unique_ptrINS_4bson10IndexedMapINS5_4BsonEEENS3_14default_deleteIS8_EEEE",
            "__ZNK5realm12object_store10Collection3maxENS_6ColKeyE",
            "__ZN5realm4sync6ClientC1ENS0_12ClientConfigE",
            "__ZN5realm5RealmD1Ev",
            "__ZN5realm10Decimal128C1Ev",
            "__ZNK5realm3app14AppCredentials17serialize_as_jsonEv",
            "__ZN5realm4util16RunLoopSchedulerC2EP11__CFRunLoop",
            "__ZN5realm9MixedNodeINS_5EqualEE16find_first_localEmm",
            "__ZN5realm4bson17holds_alternativeINSt3__16vectorINS0_4BsonENS2_9allocatorIS4_EEEEEEbRKS4_",
            "__ZN5realm4sync10ClientImpl10Connection27receive_query_error_messageEiNSt3__117basic_string_viewIcNS3_11char_traitsIcEEEExy",
            "__ZN5realm4sync7network3ssl6Stream12ssl_shutdownERNSt3__110error_codeERNS1_7Service4WantE",
            "__ZNK5realm17ExtendedColumnKey9get_valueERKNS_3ObjE",
            "__ZN5realm8SyncUser19refresh_custom_dataENS_4util14UniqueFunctionIFvNSt3__18optionalINS_3app8AppErrorEEEEEE",
            "__ZN5realm4sync10ClientImpl7Session21get_transact_reporterEv",
            "__ZN5realm13ArrayBacklink3addEmNS_6ObjKeyE",
            "__ZN5realm4sync10ClientImpl10Connection18make_logger_prefixEx",
            "__ZN5realm5Query7greaterENS_6ColKeyEf",
            "__ZN5realm5_impl30CollectionKeyPathChangeCheckerclENS_6ObjKeyE",
            "__ZN5realm8IndexSet5clearEv",
            "_RLMCreateAsymmetricObjectInRealm",
            "__ZNK5realm7metrics15TransactionInfo20get_transaction_typeEv",
            "__ZN5realm5Table17do_set_table_typeENS0_4TypeE",
            "__ZN5realm4sync7network7Service10Descriptor9read_someEPcmRNSt3__110error_codeE",
            "__ZN5realm5_impl14ChangesetIndex14scan_changesetERNS_4sync9ChangesetE",
            "__ZN5realm16SyncUserMetadata16mark_for_removalEv",
            "__ZN5realm4util15InvocationQueue10invoke_allEv",
            "__ZN5realm13BPlusTreeNodeD0Ev",
            "__ZN5realm6ObjectC1EOS0_",
            "__ZNK5realm3Obj7get_anyENS_6ColKeyE",
            "__ZNK5realm7Results9is_frozenEv",
            "__ZN5realm4sync16ChangesetEncoderclERKNS0_5instr8SetEraseE",
            "__ZN5realm7ColumnsINS_10DictionaryEE4sizeEv",
            "__ZN5realm13AsyncOpenTask5startENS_4util14UniqueFunctionIFvNS_19ThreadSafeReferenceESt13exception_ptrEEE",
            "__ZN5realm11Transaction6commitEv",
            "__ZN5realm17NotificationTokenD2Ev",
            "__ZN5realm5Table5clearEv",
            "__ZN5realm4sync15SubscriptionSet7refreshEv",
            "_RLMVerifyHasPrimaryKey",
            "__ZN5realm8Subexpr2INS_10StringDataEE4likeES1_b",
            "__ZNK5realm3Obj16get_listbase_ptrENS_6ColKeyE",
            "___bid128qd_div",
            "__ZN5realm5TableC1ERNS_9AllocatorE",
            "__ZN5realm11ClusterTree8IteratorpLEl",
            "__ZN5realm11SyncManagerD2Ev",
            "__ZN5realm8IndexSet9insert_atERKS0_",
            "__ZN5realm2DB10SharedInfoC1ENS_9DBOptions10DurabilityENS_11Replication11HistoryTypeEi",
            "__ZN5realm5Array29truncate_and_destroy_childrenEm",
            "__ZNK5realm10IndexArray21index_string_find_allERNSt3__16vectorINS_6ObjKeyENS1_9allocatorIS3_EEEENS_5MixedERKNS_13ClusterColumnEb",
            "__ZN5realm3Obj23assign_pk_and_backlinksERKS0_",
            "__ZN5realm5_impl16RealmCoordinator16unregister_realmEPNS_5RealmE",
            "__ZN5realm4sync7network3ssl7Context8ssl_initEv",
            "__ZN5realm5_impl15TransformerImpl9MinorSide7discardEv",
            "__ZN5realm4bson17holds_alternativeINS_10Decimal128EEEbRKNS0_4BsonE",
            "__ZN5realm7metrics7Metrics17report_fsync_timeERKNS_5GroupE",
            "__ZN5realm3SetINS_5MixedEE7migrateEv",
            "__ZN5realm3app15MongoCollection8find_oneERKNS_4bson10IndexedMapINS2_4BsonEEEONS_4util14UniqueFunctionIFvONSt3__18optionalIS5_EENSB_INS0_8AppErrorEEEEEE",
            "__ZN5realm5_impl16RealmCoordinator15wait_for_changeENSt3__110shared_ptrINS_11TransactionEEE",
            "__ZN5realm4sync17ClientReplication17prepare_changesetEPKcmy",
            "__ZN5realm11SyncSession11force_closeEv",
            "__ZN5realm17NotificationTokenC1ENSt3__110shared_ptrINS_5_impl18CollectionNotifierEEEy",
            "__ZN5realm5_impl16RealmCoordinator11clear_cacheEv",
            "__ZNK5realm4sync13ClientHistory6verifyEv",
            "__ZN5realm4util10AESCryptor9check_keyEPKh",
            "__ZNK5realm10Decimal128geERKS0_",
            "__ZN5realm10converters24InterRealmValueConverter9copy_listERKNS_3ObjERS2_Pb",
            "__Z34RLMEnsureDictionaryObservationInfoRNSt3__110unique_ptrI18RLMObservationInfoNS_14default_deleteIS1_EEEEP8NSStringP13RLMDictionaryP11objc_object",
            "__ZN5realm12ObjectSchemaC2ERKNS_5GroupENS_10StringDataENS_8TableKeyE",
            "__ZNK5realm12object_store3Set12is_subset_ofERKNS0_10CollectionE",
            "__ZN5realm6LnkLst31create_and_insert_linked_objectEm",
            "__ZNK5realm5Table7to_jsonERNSt3__113basic_ostreamIcNS1_11char_traitsIcEEEEmRKNS1_3mapINS1_12basic_stringIcS4_NS1_9allocatorIcEEEESB_NS1_4lessISB_EENS9_INS1_4pairIKSB_SB_EEEEEENS_14JSONOutputModeE",
            "__ZNK5realm5Query20get_outside_versionsERNS_13TableVersionsE",
            "__ZNK5realm13ArrayWithFind8find_allEPNS_13IntegerColumnExmmm",
            "__ZNO5realm7Results8snapshotEv",
            "__ZN5realm5Group37get_primary_key_columns_from_pk_tableENS_8TableRefE",
            "__ZN5realm4sync10ClientImpl10Connection9send_pingEv",
            "__ZNK5realm12ObjectSchema8validateERKNS_6SchemaERNSt3__16vectorINS_31ObjectSchemaValidationExceptionENS4_9allocatorIS6_EEEENS_20SchemaValidationModeE",
            "__ZN5realm3app3App24push_notification_clientERKNSt3__112basic_stringIcNS2_11char_traitsIcEENS2_9allocatorIcEEEE",
            "__ZN5realm8RealmJWTC1ERKNSt3__112basic_stringIcNS1_11char_traitsIcEENS1_9allocatorIcEEEE",
            "__ZN5realm4sync18InstructionApplierclERKNS0_5instr5ClearE",
            "__ZNK5realm4sync18InstructionApplier10get_stringENS0_12InternStringE",
            "__ZNK5realm4sync13ClientHistory24get_reciprocal_transformEyRb",
            "__ZN5realm5_impl12client_reset8ListPathC1ENS_8TableKeyENS_6ObjKeyE",
            "__ZN5realm4sync22MutableSubscriptionSet16insert_or_assignERKNS_5QueryE",
            "__ZN5realm4util7CondVar11init_failedEi",
            "__ZNK5realm13ClusterColumn13get_data_typeEv",
            "__ZNK5realm9SyncError34is_connection_level_protocol_errorEv",
            "__ZN5realm16SectionedResultsC1ENS_7ResultsENS1_24SectionedResultsOperatorENS_10StringDataE",
            "__ZN5realm4util10DirScannerD2Ev",
            "__ZN5realm5_impl16RealmCoordinator7compactEv",
            "__ZN5realm16ClusterNodeInnerC1ERNS_9AllocatorERKNS_11ClusterTreeE",
            "__ZNK5realm7Cluster9init_leafENS_6ColKeyEPNS_12ArrayPayloadE",
            "__ZN5realm5_impl17DeepChangeChecker23do_check_mixed_for_linkERNS_5GroupERNS_8TableRefENS_5MixedERKNSt3__16vectorINS_6ColKeyENS7_9allocatorIS9_EEEEm",
            "__ZNK5realm7metrics9QueryInfo15get_descriptionEv",
            "__ZN5realm7ResultsC1ENSt3__110shared_ptrINS_5RealmEEENS2_INS_14CollectionBaseEEENS_18DescriptorOrderingE",
            "__ZN5realm5Query9not_equalENS_6ColKeyES1_",
            "__ZN5realm10StringData9matchlikeERKS0_S2_",
            "__ZN5realm9MixedNodeINS_8EqualInsEE16find_first_localEmm",
            "__ZN5realm3app3App30UsernamePasswordProviderClient25retry_custom_confirmationERKNSt3__112basic_stringIcNS3_11char_traitsIcEENS3_9allocatorIcEEEEONS_4util14UniqueFunctionIFvNS3_8optionalINS0_8AppErrorEEEEEE",
            "__ZNK5realm3Obj13is_unresolvedENS_6ColKeyE",
            "__ZN5realm11ClusterNode13IteratorState4initERNS0_5StateENS_6ObjKeyE",
            "__ZN5realm8ObjectIdC1ENS_10StringDataE",
            "__ZN5realm5_impl23UnsupportedSchemaChangeC1Ev",
            "__ZN5realm11TypeOfValueC2ERKNS_5MixedE",
            "__ZN5realm10ErrorCodes13get_all_namesEv",
            "__ZN5realm20DictionaryLinkValuesC1ERKNS_10DictionaryE",
            "__ZN5realm4List4swapEmm",
            "__ZNK5realm10Dictionary6do_avgEPm",
            "___bid128dqd_fma",
            "__ZNK5realm9SlabAlloc21find_section_in_rangeEmmm",
            "__ZN5realm9SlabAlloc27get_next_block_if_mergeableEPNS0_9FreeBlockE",
            "__ZN5realm9SlabAlloc25is_file_on_streaming_formERKNS0_6HeaderE",
            "__ZN5realm15InvalidArgumentD1Ev",
            "__ZN5realm5Table22set_primary_key_columnENS_6ColKeyE",
            "__ZNK5realm5Group14get_used_spaceEv",
            "__ZN5realm15MigrationFailedD1Ev",
            "__ZNK5realm4sync17SubscriptionStore13would_refreshEy",
            "__ZN5realm9SlabAllocC2Ev",
            "__ZN5realm4sync14MigrationStore9load_dataEb",
            "__ZN5realm4sync10ClientImpl7Session20on_flx_sync_progressExNS0_18DownloadBatchStateE",
            "__ZNK5realm4sync17SubscriptionStore19get_by_version_implExNSt3__18optionalINS_9VersionIDEEE",
            "__ZN5realm4sync10ClientImpl7Session29process_pending_flx_bootstrapEv",
            "__ZNK5realm10Geospatial15get_type_stringEv",
            "__ZN5realm10ArrayMixed8set_nullEm",
            "__ZN5realm7metrics11MetricTimer6formatExRNSt3__113basic_ostreamIcNS2_11char_traitsIcEEEE",
            "__ZNK5realm4sync15SubscriptionSet2atEm",
            "__ZN5realm19DictionaryChangeSetaSERKS0_",
            "__ZNK13RLMSchemaInfo3endEv",
            "__ZN5realm5Realm6notifyEv",
            "__ZN5realm4util9BacktraceC2EOS1_",
            "__ZN5realm4sync18InstructionApplierclERKNS0_5instr12CreateObjectE",
            "__ZN5realm6ObjectC2ERKNSt3__110shared_ptrINS_5RealmEEENS_10StringDataEm",
            "__ZN5realm5_impl15ResultsNotifierC1ERNS_7ResultsE",
            "__ZNK5realm4sync17SubscriptionStore21get_tables_for_latestERKNS_11TransactionE",
            "__ZN5realm16ClusterNodeInner18update_from_parentEv",
            "__ZNK5realm3Obj13has_backlinksEb",
            "__ZNK5realm5Query5countEv",
            "__ZN5realm3app3App26update_metadata_and_resendEONS0_7RequestEONS_4util14UniqueFunctionIFvRKNS0_8ResponseEEEERKNSt3__18optionalINSC_12basic_stringIcNSC_11char_traitsIcEENSC_9allocatorIcEEEEEE",
            "__ZN5realm11ArrayBinary12upgrade_leafEm",
            "__ZN5realm5_impl17WeakRealmNotifierC2ERKNSt3__110shared_ptrINS_5RealmEEEb",
            "__ZN5realm10Dictionary8do_eraseEmNS_5MixedE",
            "__ZN5realm4synclsERNSt3__113basic_ostreamIcNS1_11char_traitsIcEEEERKNS0_11HTTPRequestE",
            "__ZNK5realm16ArrayStringShort14compare_stringERKS0_",
            "__ZN5realm4sync10ClientImpl7Session7suspendERKNS0_16SessionErrorInfoE",
            "__ZN5realm6SchemaD2Ev",
            "__ZNK5realm9TableView14sync_if_neededEv",
            "__ZN5realm9MixedNodeINS_5EqualEE4initEb",
            "__ZN5realm3app15MongoCollection19find_one_and_deleteERKNS_4bson10IndexedMapINS2_4BsonEEERKNS1_23FindOneAndModifyOptionsEONS_4util14UniqueFunctionIFvONSt3__18optionalIS5_EENSE_INS0_8AppErrorEEEEEE",
            "__ZN5realm6LnkSet17remove_target_rowEm",
            "__Z23RLMCreateObjectAccessorR12RLMClassInfoON5realm3ObjE",
            "__ZN5realm15QueryStateCount5matchEmNS_5MixedE",
            "__ZN5realm4sync15SyncReplication19populate_path_instrERNS0_5instr15PathInstructionERKNS_14CollectionBaseEj",
            "__ZN5realm15ObjectChangeSet17modifications_addENS_6ObjKeyENS_6ColKeyE",
            "__ZN5realm5Mixed25data_types_are_comparableENS_8DataTypeES1_",
            "__ZN5realm19ThreadSafeReferenceC1EOS0_",
            "__ZN5realm11GroupWriter9MapWindow5flushEv",
            "__ZNK5realm3Obj15get_setbase_ptrENS_6ColKeyE",
            "__ZNK5realm5Table10get_objkeyENS_9GlobalKeyE",
            "__ZN5realm4sync23protocol_error_categoryEv",
            "_RLMEventIsActive",
            "__ZN5realm11SyncSession18external_referenceEv",
            "__ZNK5realm5Group23get_file_format_versionEv",
            "__ZN5realm11NoSuchTableD0Ev",
            "__ZN5realm3app15MongoCollection10insert_oneERKNS_4bson10IndexedMapINS2_4BsonEEEONS_4util14UniqueFunctionIFvONSt3__18optionalIS4_EENSB_INS0_8AppErrorEEEEEE",
            "__ZN5realm19ThreadSafeReferenceC2INSt3__110shared_ptrINS_5RealmEEEEERKT_",
            "__ZN5realm2DB19upgrade_file_formatEbiii",
            "__ZNK5realm15SyncFileManager12remove_realmERKNSt3__112basic_stringIcNS1_11char_traitsIcEENS1_9allocatorIcEEEES9_S9_S9_",
            "__ZNK5realm13ArrayBigBlobs6get_atEmRm",
            "__ZN5realm4sync7network7Service9IoReactor16wait_and_advanceENSt3__16chrono10time_pointINS5_12steady_clockENS5_8durationIxNS4_5ratioILl1ELl1000000000EEEEEEESC_RbRNS2_9OperQueueINS2_9AsyncOperEEE",
            "__ZN5realm4Spec4initENS_6MemRefE",
            "__ZN5realm5QueryC1ERKS0_",
            "__ZNK5realm5Table9count_intENS_6ColKeyEx",
            "__ZNK5realm7LinkMap15get_origin_ndxsENS_6ObjKeyEm",
            "__ZN5realm5QueryaaERKS0_",
            "__ZNK5realm11SyncManager20get_existing_sessionERKNSt3__112basic_stringIcNS1_11char_traitsIcEENS1_9allocatorIcEEEE",
            "__ZNK5realm5Query11eval_objectERKNS_3ObjE",
            "__ZNK5realm5_impl16RealmCoordinator18get_schema_versionEv",
            "__ZN5realm12object_store3Set12assign_unionERKNS0_10CollectionE",
            "__ZN5realm4sync13ClientHistory20update_sync_progressERKNS0_12SyncProgressEPKyNSt3__110shared_ptrINS_11TransactionEEE",
            "__ZN5realm4sync16ChangesetEncoder12append_valueENS_9TimestampE",
            "__ZN5realm11Transaction11do_end_readEv",
            "__ZN5realm4sync13ClientHistory24set_oldest_bound_versionEy",
            "__ZN5realm29MissingPropertyValueExceptionC1ERKNSt3__112basic_stringIcNS1_11char_traitsIcEENS1_9allocatorIcEEEES9_",
            "__ZN5realm4sync9websocket6Socket36force_handshake_response_for_testingEiNSt3__112basic_stringIcNS3_11char_traitsIcEENS3_9allocatorIcEEEE",
            "__ZN5realm9SlabAlloc8get_fileEv",
            "__ZNK5realm11SyncSession5stateEv",
            "__ZN5realm5_impl11transaction7advanceERKNSt3__110shared_ptrINS_11TransactionEEEPNS_14BindingContextEONS0_15NotifierPackageE",
            "__ZN5realm5Group24validate_primary_columnsEv",
            "__ZNK5realm8SyncUser12access_tokenEv",
            "__ZN5realm18StringNodeFulltextC2ENS_10StringDataENS_6ColKeyENSt3__110unique_ptrINS_7LinkMapENS3_14default_deleteIS5_EEEE",
            "__ZN5realm3Obj3setINS_5MixedEEERS0_NS_6ColKeyET_b",
            "__ZNK5realm5Table20find_backlink_columnENS_6ColKeyENS_8TableKeyE",
            "__ZN5realm11ClusterTreeC1EPNS_5TableERNS_9AllocatorEm",
            "__ZN5realm4sync10ClientImpl7Session26get_flx_subscription_storeEv",
            "__ZN5realm11SyncManager24set_session_multiplexingEb",
            "__ZNK5realm5_impl27NetworkReachabilityObserver19reachability_statusEv",
            "__ZN5realm9GlobalKeyC2ENS_5MixedE",
            "__ZN5realm5_impl12client_reset29RecoverLocalChangesetsHandlerC1ERNS_11TransactionES4_RNS_4util6LoggerE",
            "__ZN5realm12object_store10CollectionC2ENSt3__110shared_ptrINS_5RealmEEENS2_10unique_ptrINS_14CollectionBaseENS2_14default_deleteIS7_EEEE",
            "__ZN5realm19SyncMetadataManager25set_current_user_identityERKNSt3__112basic_stringIcNS1_11char_traitsIcEENS1_9allocatorIcEEEE",
            "__ZN5realm4util4File6removeERKNSt3__112basic_stringIcNS2_11char_traitsIcEENS2_9allocatorIcEEEE",
            "__ZN5realm3app3App30UsernamePasswordProviderClient12confirm_userERKNSt3__112basic_stringIcNS3_11char_traitsIcEENS3_9allocatorIcEEEESB_ONS_4util14UniqueFunctionIFvNS3_8optionalINS0_8AppErrorEEEEEE",
            "__ZNK5realm12object_store3SeteqERKS1_",
            "__ZN5realm16ClusterNodeInner20update_sub_tree_sizeEv",
            "__ZN5realm21WrongTransactionStateD2Ev",
            "__ZNK5realm4sync17SubscriptionStore16get_version_infoEv",
            "__ZN5realm12ObjectSchemaC1ENSt3__112basic_stringIcNS1_11char_traitsIcEENS1_9allocatorIcEEEENS0_10ObjectTypeESt16initializer_listINS_8PropertyEE",
            "__ZN5realm5Table10add_columnERS0_NS_10StringDataE",
            "__ZNK5realm3Obj18_get_linked_objectENS_6ColKeyENS_5MixedE",
            "__ZNK5realm16ArrayStringShort5countENS_10StringDataEmm",
            "__ZN5realm5_impl14ChangesetIndex21merge_conflict_groupsERNS1_13ConflictGroupES3_",
            "__ZN5realm5_impl15ResultsNotifier18prepare_to_deliverEv",
            "__ZN5realm7Results15IteratorWrapper3getERKNS_5TableEm",
            "__ZNK5realm3Obj4_getINS_6ObjKeyEEET_NS_6ColKey3IdxE",
            "__ZN5realmlsERNSt3__113basic_ostreamIcNS0_11char_traitsIcEEEENS_10ErrorCodes5ErrorE",
            "__ZN5realm4util10serializer18SerialisationState17get_variable_nameENS_13ConstTableRefE",
            "__ZN5realm9SlabAlloc11find_largerENS0_8FreeListEi",
            "__ZN5realm4sync14HTTPParserBase19parse_method_stringENS_10StringDataE",
            "__ZNK5realm5Table15get_primary_keyENS_6ObjKeyE",
            "__ZNK5realm5Array9get_chunkILm0EEEvmPx",
            "__ZNK5realm5Table8get_nameEv",
            "__ZN5realm11TransactionD1Ev",
            "__ZNK5realm18DescriptorOrderingixEm",
            "__ZN5realm4sync13ClientHistory37transform_and_apply_server_changesetsENS_4util4SpanINS0_9ChangesetELm18446744073709551615EEENSt3__110shared_ptrINS_11TransactionEEERNS2_6LoggerERyb",
            "__ZNK5realm5Mixed3getINSt3__18optionalINS_8ObjectIdEEEEET_v",
            "__ZN5realm5Realm7convertERKNS_11RealmConfigEb",
            "__ZN5realm11Replication14prepare_commitEy",
            "__ZN5realm10StringNodeINS_5EqualEE17_find_first_localEmm",
            "__ZN5realm12object_store3Set10remove_allEv",
            "__ZNK5realm5Query5countERKNS_18DescriptorOrderingE",
            "__ZN5realm11ArrayBinary13init_from_memENS_6MemRefE",
            "__ZN5realm12ArrayIntNull16init_from_parentEv",
            "__ZN5realm4sync10ClientImpl7Session17send_mark_messageEv",
            "__ZN5realm11Transaction18set_transact_stageENS_2DB13TransactStageE",
            "__ZN5realm5Query5equalENS_6ColKeyEf",
            "__ZN5realm6ObjectC1Ev",
            "__ZN5realm4bson4BsonC1EOS1_",
            "__ZN5realm4sync7network7Service3runEv",
            "__ZN5realm5Group12rename_tableENS_8TableKeyENS_10StringDataEb",
            "__ZN5realm5QueryaSEOS0_",
            "___bid128_to_int64_xrninta",
            "__ZN5realm5_impl15ResultsNotifier27do_add_required_change_infoERNS0_21TransactionChangeInfoE",
            "_RLMGetSwiftPropertyFloat",
            "__ZN5realm22SyncFileActionMetadata6removeEv",
            "__ZN5realm4sync14SessionWrapper11force_closeEv",
            "__ZN5realmlsERNSt3__113basic_ostreamIcNS0_11char_traitsIcEEEERKNS_9GlobalKeyE",
            "__ZN5realm5_impl12client_reset11track_resetENSt3__110shared_ptrINS_11TransactionEEENS_16ClientResyncModeE",
            "__ZN5realm4sync18InstructionApplierclERKNS0_5instr10ArrayEraseE",
            "__ZNK5realm5_impl12client_reset8ListPath7ElementeqERKS3_",
            "__ZN5realm4util14SemaphoreMutex8try_lockEv",
            "__ZN5realm5_impl23CollectionChangeBuilder5clearEm",
            "__ZN5realm5Group5writeERNSt3__113basic_ostreamIcNS1_11char_traitsIcEEEEiRNS0_11TableWriterEbby",
            "__ZN5realm10QueryGroupaSERKS0_",
            "__ZNK5realm5Table10find_firstINS_4nullEEENS_6ObjKeyENS_6ColKeyET_",
            "__ZN5realm11OutOfBoundsD2Ev",
            "__ZN5realm11SyncSession23nonsync_transact_notifyEy",
            "__ZNK5realm13ArrayBacklink18get_backlink_countEm",
            "__ZNK5realm4sync14SessionWrapper26has_flx_subscription_storeEv",
            "__ZN5realm5Realm16get_frozen_realmENS_11RealmConfigENS_9VersionIDE",
            "__ZN5realm4bson17holds_alternativeINS0_10IndexedMapINS0_4BsonEEEEEbRKS3_",
            "__ZN5realm4util22DispatchQueueScheduler6invokeEONS0_14UniqueFunctionIFvvEEE",
            "__ZN5realm8SyncUser20update_refresh_tokenEONSt3__112basic_stringIcNS1_11char_traitsIcEENS1_9allocatorIcEEEE",
            "__ZN13RLMSchemaInfo25appendDynamicObjectSchemaENSt3__110unique_ptrIN5realm12ObjectSchemaENS0_14default_deleteIS3_EEEEP15RLMObjectSchemaP8RLMRealm",
            "__ZN5realm11TransactionD2Ev",
            "__ZN5realm11Transaction14import_copy_ofERKNSt3__110unique_ptrINS_7ObjListENS1_14default_deleteIS3_EEEE",
            "__ZN5realm3app3App24UserAPIKeyProviderClient14create_api_keyERKNSt3__112basic_stringIcNS3_11char_traitsIcEENS3_9allocatorIcEEEERKNS3_10shared_ptrINS_8SyncUserEEEONS_4util14UniqueFunctionIFvONS1_10UserAPIKeyENS3_8optionalINS0_8AppErrorEEEEEE",
            "__ZN5realm4sync10ClientImpl10Connection20handle_write_messageEv",
            "__ZN5realm18DisableReplicationD1Ev",
            "__ZN5realm5Realm10write_copyEv",
            "__ZN5realm4Spec13update_colkeyENS_6ColKeyEmNS_8TableKeyE",
            "__ZN5realm8Subexpr2INS_5MixedEE9not_equalERKS2_b",
            "__ZN5realmlsERNSt3__113basic_ostreamIcNS0_11char_traitsIcEEEERKNS_3ObjE",
            "__ZN5realm5_impl16RealmCoordinator10write_copyENS_10StringDataEPKc",
            "__ZN5realm4sync7network3ssl6Stream8tcp_readEPKvPvPm",
            "__ZN5realm5GroupC1ENS_10BinaryDataEb",
            "__ZN5realm4sync18InstructionApplier14get_table_nameERKNS0_5instr16TableInstructionERKNSt3__117basic_string_viewIcNS6_11char_traitsIcEEEE",
            "__ZThn24_N5realm3app3AppD0Ev",
            "__ZN5realm4sync16ChangesetEncoderclERKNS0_5instr12CreateObjectE",
            "__ZNK5realm5_impl12client_reset8ListPathneERKS2_",
            "__ZN5realm4sync14SessionWrapperD0Ev",
            "__ZNK5realm7metrics15TransactionInfo23get_num_decrypted_pagesEv",
            "__ZNK5realm5Realm11verify_openEv",
            "__ZN5realm5_impl12client_reset29RecoverLocalChangesetsHandler16RecoveryResolver13on_dictionaryERNS_10DictionaryE",
            "__ZN5realm4util6Thread8get_nameERNSt3__112basic_stringIcNS2_11char_traitsIcEENS2_9allocatorIcEEEE",
            "__ZNK5realm5Query15get_descriptionERNS_4util10serializer18SerialisationStateE",
            "__ZNK5realm7Results13validate_readEv",
            "__ZN5realm4util6gmtimeEl",
            "__ZN5realm25SchemaValidationExceptionC2ERKNSt3__16vectorINS_31ObjectSchemaValidationExceptionENS1_9allocatorIS3_EEEE",
            "__ZN5realm3app15MongoCollection8find_oneERKNS_4bson10IndexedMapINS2_4BsonEEERKNS1_11FindOptionsEONS_4util14UniqueFunctionIFvONSt3__18optionalIS5_EENSE_INS0_8AppErrorEEEEEE",
            "__ZN5realm11StringIndex11create_nodeERNS_9AllocatorEb",
            "__ZN5realm5Array13init_from_memENS_6MemRefE",
            "__ZN5realm11SyncSession24ConnectionChangeNotifier16invoke_callbacksENS0_15ConnectionStateES2_",
            "__ZNK5realm5Query4findEv",
            "__ZN5realm5Realm22translate_schema_errorEv",
            "__ZN5realm5_impl20SyncProgressNotifier17set_local_versionEy",
            "__ZN5realm15ArraySmallBlobs13init_from_memENS_6MemRefE",
            "__ZN5realm3app3App9link_userERKNSt3__110shared_ptrINS_8SyncUserEEERKNS0_14AppCredentialsEONS_4util14UniqueFunctionIFvS7_NS2_8optionalINS0_8AppErrorEEEEEE",
            "__ZN5realm5Realm15get_full_schemaEv",
            "__ZN5realm4util8make_dirERKNSt3__112basic_stringIcNS1_11char_traitsIcEENS1_9allocatorIcEEEE",
            "__ZNK5realm12ArrayKeyBaseILi1EE6verifyEv",
            "__ZNK5realm5Query15get_descriptionEv",
            "__ZN5realm4util12mmap_reserveERKNS0_14FileAttributesEmmRPNS0_20EncryptedFileMappingE",
            "__ZN5realm4sync7Session7abandonEv",
            "__ZN5realm4sync9websocket6Socket16async_write_textEPKcmNS_4util14UniqueFunctionIFvvEEE",
            "__ZN5realm4sync14SessionWrapper20on_upload_completionEv",
            "__ZN5realm9SlabAlloc11get_top_refEPKcm",
            "_RLMDefaultDirectoryForBundleIdentifier",
            "__ZN5realm7ResultsD2Ev",
            "__ZN5realm18MultipleSyncAgentsD2Ev",
            "__ZNK5realm8IndexSet7unshiftEm",
            "__ZThn24_N5realm3app3App13call_functionERKNSt3__110shared_ptrINS_8SyncUserEEERKNS2_12basic_stringIcNS2_11char_traitsIcEENS2_9allocatorIcEEEERKNS2_6vectorINS_4bson4BsonENSB_ISI_EEEEONS_4util14UniqueFunctionIFvONS2_8optionalISI_EENSP_INS0_8AppErrorEEEEEE",
            "__ZNK5realm14ResultsSection11get_sectionEv",
            "__ZNK5realm9TableView11count_floatENS_6ColKeyEf",
            "__ZN5realm19ThreadSafeReferenceD2Ev",
            "__ZN5realm5_impl12client_reset8ListPath7ElementC1ENS_6ColKeyE",
            "__ZN5realm3app15MongoCollectionC2ERKNSt3__112basic_stringIcNS2_11char_traitsIcEENS2_9allocatorIcEEEESA_RKNS2_10shared_ptrINS_8SyncUserEEERKNSB_INS0_16AppServiceClientEEESA_",
            "__ZN5realm5_impl23CollectionChangeBuilder9calculateERKNS_7ObjKeysES4_NS_4util11FunctionRefIFbNS_6ObjKeyEEEEb",
            "__ZNK5realm14ArrayTimestamp10find_firstINS_5EqualEEEmNS_9TimestampEmm",
            "__ZN5realm5_impl12client_reset8ListPath7ElementC1Em",
            "___bid128qd_mul",
            "__ZN5realm11SyncManager12log_out_userERKNSt3__112basic_stringIcNS1_11char_traitsIcEENS1_9allocatorIcEEEE",
            "__ZNK5realm5Table13links_to_selfENS_6ColKeyE",
            "__ZN5realm11ObjectStore22apply_additive_changesERNS_5GroupERKNSt3__16vectorINS_12SchemaChangeENS3_9allocatorIS5_EEEEb",
            "__ZN5realm10ArrayMixed13init_from_memENS_6MemRefE",
            "__ZN5realm11NotNullableD0Ev",
            "__ZN5realm4bson17holds_alternativeINSt3__19nullopt_tEEEbRKNS0_4BsonE",
            "__ZNK5realm12object_store10Collection4sizeEv",
            "__ZN5realm4sync22MutableSubscriptionSet10insert_subERKNS0_12SubscriptionE",
            "__ZNK5realm3Obj18get_collection_ptrENS_6ColKeyE",
            "__ZN5realm5_impl18CollectionNotifier13find_callbackEy",
            "__ZN5realm4sync16ChangesetEncoder12append_valueEx",
            "__ZNK5realm8IndexSet5shiftEm",
            "__ZN21RLMObservationTracker10willChangeEP18RLMObservationInfoP8NSString16NSKeyValueChangeP10NSIndexSet",
            "__ZN5realm5_impl16RealmCoordinator12do_get_realmEONS_11RealmConfigERNSt3__110shared_ptrINS_5RealmEEENS4_8optionalINS_9VersionIDEEERNS_4util17CheckedUniqueLockE",
            "__ZNK18RLMObservationInfo10willChangeEP8NSString16NSKeyValueChangeP10NSIndexSet",
            "__ZNK5realm16ClusterNodeInner7try_getENS_6ObjKeyERNS_11ClusterNode5StateE",
            "__ZN5realm5GroupC1Ev",
            "__ZNK5realm13ArrayBigBlobs6verifyEv",
            "__ZNK5realm5Array15upper_bound_intEx",
            "__ZN5realm4sync14SessionWrapper15report_progressEv",
            "__ZN5realm9ExceptionC1ENS_10ErrorCodes5ErrorENSt3__117basic_string_viewIcNS3_11char_traitsIcEEEE",
            "__ZN5realm5_impl12client_reset29RecoverLocalChangesetsHandler12resolve_pathERNS1_8ListPathENS_3ObjES5_NS_4util14UniqueFunctionIFvRNS_7LstBaseES9_EEE",
            "__ZN5realm11Replication10initializeERNS_2DBE",
            "__ZNK5realm11ClusterNode3getENS_6ObjKeyERNS0_5StateE",
            "__ZNK5realm15SyncFileManager22legacy_realm_file_pathERKNSt3__112basic_stringIcNS1_11char_traitsIcEENS1_9allocatorIcEEEES9_",
            "__ZNK5realm3app3App22function_call_url_pathEv",
            "__ZN5realm10StringNodeINS_8EqualInsEE18_search_index_initEv",
            "__ZNK5realm5Table20find_first_object_idENS_6ColKeyENS_8ObjectIdE",
            "__ZThn8_NK5realm20DictionaryLinkValues7get_keyEm",
            "__ZN5realm16InvalidColumnKeyD2Ev",
            "___bid64dqq_fma",
            "__ZN5realm5Realm10run_writesEv",
            "___bid128_sub",
            "__Z23RLMCreateObjectAccessorR12RLMClassInfox",
            "__ZN5realm4Spec17create_empty_specERNS_9AllocatorE",
            "__ZN5realm3app15MongoCollection25find_one_and_replace_bsonERKNS_4bson10IndexedMapINS2_4BsonEEES7_RKNS1_23FindOneAndModifyOptionsEONS_4util14UniqueFunctionIFvONSt3__18optionalIS4_EENSE_INS0_8AppErrorEEEEEE",
            "__ZN5realm23SchemaMismatchExceptionC2ERKNSt3__16vectorINS_31ObjectSchemaValidationExceptionENS1_9allocatorIS3_EEEE",
            "__ZN5realm5Query4lessENS_6ColKeyEi",
            "__ZNK5realm13BackupHandler24must_restore_from_backupEi",
            "__ZNK5realm11StringIndex12get_last_keyEv",
            "__ZN5realm4sync14SessionWrapperD1Ev",
            "__ZN5realm4bson4BsonC2EOS1_",
            "__ZN5realm5_impl14ObjectNotifier8reattachEv",
            "__ZN5realm14SortDescriptorC2ENSt3__16vectorINS2_INS_17ExtendedColumnKeyENS1_9allocatorIS3_EEEENS4_IS6_EEEENS2_IbNS4_IbEEEE",
            "__ZNK5realm4sync13ClientHistory10get_statusERyRNS0_15SaltedFileIdentERNS0_12SyncProgressEPb",
            "__ZNK5realm15SyncFileManager14user_directoryERKNSt3__112basic_stringIcNS1_11char_traitsIcEENS1_9allocatorIcEEEE",
            "__ZN5realm5Group18validate_top_arrayERKNS_5ArrayERKNS_9SlabAllocENSt3__18optionalImEENS8_IyEE",
            "__ZN5realm5_impl12client_reset29RecoverLocalChangesetsHandler16RecoveryResolver7on_listERNS_7LstBaseE",
            "__ZN5realm7ResultsaSERKS0_",
            "__ZN5realm15InvalidTableRefD1Ev",
            "__ZNK5realm6Schema7compareERKS0_NS_10SchemaModeEb",
            "__Z13RLMCacheRealmP21RLMRealmConfigurationP12RLMSchedulerP8RLMRealm",
            "__ZN5realm11SyncSession13become_pausedENS_4util17CheckedUniqueLockE",
            "__ZN5realm14TableNameInUseD2Ev",
            "__ZN5realm10LogicErrorC1ENS_10ErrorCodes5ErrorENSt3__117basic_string_viewIcNS3_11char_traitsIcEEEE",
            "__ZN5realm7Results13get_tableviewEv",
            "__ZNKR5realm7Results8snapshotEv",
            "__ZNR5realm7Results25add_notification_callbackENS_24CollectionChangeCallbackENSt3__18optionalINS2_6vectorINS4_INS2_4pairINS_8TableKeyENS_6ColKeyEEENS2_9allocatorIS8_EEEENS9_ISB_EEEEEE",
            "__ZN5realm4sync6Client22cancel_reconnect_delayEv",
            "__ZN5realm4util5Mutex16attr_init_failedEi",
            "__ZN5realm4sync10ClientImpl10Connection21initiate_connect_waitEv",
            "__ZN5realm4util4File7MapBase5unmapEv",
            "__ZN5realm4sync18InstructionApplierclERKNS0_5instr6UpdateE",
            "__ZN5realm11StringIndex18insert_with_offsetENS_6ObjKeyENS_10StringDataERKNS_5MixedEm",
            "__ZNK5realm5Table13count_decimalENS_6ColKeyENS_10Decimal128E",
            "__ZN5realm11GroupWriter9MapWindow7matchesEmm",
            "__ZNK5realm6LnkSet10intersectsERKNS_14CollectionBaseE",
            "__ZN5realm4util4File4moveERKNSt3__112basic_stringIcNS2_11char_traitsIcEENS2_9allocatorIcEEEESA_",
            "__ZN5realm7NotNode15find_first_loopEmm",
            "__ZNK5realm16ClusterNodeInner10nb_columnsEv",
            "__ZNK5realm22SyncFileActionMetadata8new_nameEv",
            "__ZN5realm4sync10ClientImpl10Connection20schedule_urgent_pingEv",
            "_RLMSetSwiftPropertyDate",
            "__ZNK5realm4sync7network3ssl13ErrorCategory7messageEi",
            "__ZN5realm3app3App11init_loggerEv",
            "__ZN5realm4util20EncryptedFileMapping9extend_toEmm",
            "__Z19RLMPredicateToQueryP11NSPredicateP15RLMObjectSchemaP9RLMSchemaRN5realm5GroupE",
            "__ZN5realm8Subexpr2INS_10BinaryDataEE9ends_withES1_b",
            "__ZN5realm5_impl12OutputStream11write_arrayEPKcmj",
            "__ZNK5realm13ArrayWithFind4findEixmmmPNS_14QueryStateBaseE",
            "__ZN5realm11ClusterTreeD2Ev",
            "__ZN5realm16IllegalOperationD1Ev",
            "__ZNK12RLMClassInfo19computedTableColumnEP11RLMProperty",
            "__ZN5realm4util10AESCryptor14try_read_blockEixPc",
            "__ZNK5realm7Cluster6verifyEv",
            "__ZNKSt3__14hashIN5realm4ListEEclERKS2_",
            "__ZN5realm4sync9websocket21DefaultSocketProviderD1Ev",
            "__ZN5realm5Query9set_tableENS_8TableRefE",
            "__ZNK5realm3Obj4_getINS_10StringDataEEET_NS_6ColKey3IdxE",
            "___bid128_to_string",
            "__ZNK5realm4bson4BsoneqERKS1_",
            "__ZNK5realm4util16RunLoopScheduler10can_invokeEv",
            "__ZNK5realm10ArrayMixed10find_firstENS_5MixedEmm",
            "__ZNK5realm6Object15verify_attachedEv",
            "__ZN5realm10Dictionary9try_eraseENS_5MixedE",
            "__ZN5realm3LstINS_5MixedEE9do_removeEm",
            "__ZN5realm29InvalidSchemaVersionExceptionC1Eyyb",
            "__ZN5realm4sync10ClientImpl10Connection11force_closeEv",
            "__ZNK5realm20DictionaryLinkValues7get_keyEm",
            "__Z23RLMConvertBsonToRLMBSONRKN5realm4bson4BsonE",
            "__ZN5realm12object_store3Set17assign_differenceERKNS0_10CollectionE",
            "__ZN5realm3app10PushClient17deregister_deviceERKNSt3__110shared_ptrINS_8SyncUserEEEONS_4util14UniqueFunctionIFvNS2_8optionalINS0_8AppErrorEEEEEE",
            "__ZN18RLMObservationInfoC2ER12RLMClassInfoN5realm6ObjKeyEP11objc_object",
            "__ZN5realm5_impl16RealmCoordinator19do_get_cached_realmERKNS_11RealmConfigENSt3__110shared_ptrINS_4util9SchedulerEEE",
            "__ZN5realm12object_store10CollectionC2EOS1_",
            "__ZN5realm4sync13ClientHistory25get_upload_download_bytesEPNS_2DBERyS4_S4_S4_S4_",
            "__ZN5realm4sync7network10SocketBase6cancelEv",
            "___bid128_to_int64_xint",
            "__ZN5realm4util20EncryptedFileMapping12refresh_pageEmm",
            "__ZN5realm8IndexSetC1ESt16initializer_listImE",
            "__ZN5realm11ClusterTree8Iterator12get_positionEv",
            "__ZNK5realm12object_store10Dictionary8get_pairEm",
            "__ZN5realm3app15MongoCollection16insert_many_bsonERKNSt3__16vectorINS_4bson4BsonENS2_9allocatorIS5_EEEEONS_4util14UniqueFunctionIFvONS2_8optionalIS5_EENSD_INS0_8AppErrorEEEEEE",
            "__ZN5realm4sync7network3ssl7Context19ssl_use_verify_fileERKNSt3__112basic_stringIcNS4_11char_traitsIcEENS4_9allocatorIcEEEERNS4_10error_codeE",
            "__ZN5realm4sync7network15make_error_codeENS1_13ResolveErrorsE",
            "__ZNK5realm16SyncUserMetadata12access_tokenEv",
            "_RLMObjectBaseObjectSchema",
            "__ZN5realm10SyncConfigC1ENSt3__110shared_ptrINS_8SyncUserEEEPKc",
            "__ZNK5realm2DB18get_allocated_sizeEv",
            "__ZN5realm4util10serializer18SerialisationState15get_column_nameENS_13ConstTableRefENS_6ColKeyE",
            "__ZN5realm4util9Backtrace7captureEv",
            "__ZN5realm5Table15migrate_subspecEv",
            "__ZN5realm11TypeOfValueC1ERKNSt3__112basic_stringIcNS1_11char_traitsIcEENS1_9allocatorIcEEEE",
            "__ZNK5realm10Decimal128dvES0_",
            "__ZN5realm11ClusterTree5clearERNS_12CascadeStateE",
            "__ZN5realm4sync10ClientImpl10Connection10disconnectERKNS0_16SessionErrorInfoE",
            "__ZThn24_N5realm4sync13ClientHistory24set_reciprocal_transformEyNS_10BinaryDataE",
            "__ZThn64_N5realm16ClusterNodeInnerD1Ev",
            "__ZN5realm11SyncManager24do_has_existing_sessionsEv",
            "__ZN5realm14TableNameInUseD1Ev",
            "_RLMGetSwiftPropertyMap",
            "__ZN5realm6ObjectC2EOS0_",
            "__ZN5realm5MixedC1ERKNS_3ObjE",
            "__ZN5realm5Table14add_column_setERS0_NS_10StringDataE",
            "__ZN5realm5Table15add_column_listENS_8DataTypeENS_10StringDataEb",
            "__ZN5realm8SyncUser12all_sessionsEv",
            "__ZNK5realm15SyncFileManager28get_existing_realm_file_pathERKNSt3__112basic_stringIcNS1_11char_traitsIcEENS1_9allocatorIcEEEES9_S9_S9_",
            "__ZN5realm12object_store10CollectionC2ERKNS_6ObjectEPKNS_8PropertyE",
            "__ZN5realm5Query10less_equalENS_6ColKeyENS_8ObjectIdE",
            "__ZN5realm17NotificationToken10unregisterEv",
            "__ZN5realm4sync15SyncReplication14dictionary_setERKNS_14CollectionBaseEmNS_5MixedES5_",
            "__ZN5realm4sync13ClientHistory24set_reciprocal_transformEyNS_10BinaryDataE",
            "__ZNK5realm18DescriptorOrdering15get_descriptionENS_13ConstTableRefE",
            "__ZN5realm17ColumnsDescriptorC2ENSt3__16vectorINS2_INS_17ExtendedColumnKeyENS1_9allocatorIS3_EEEENS4_IS6_EEEE",
            "__ZNK5realm10ArrayMixed16ensure_int_arrayEv",
            "__ZN5realm11SyncManager14OnlyForTesting36voluntary_disconnect_all_connectionsERS0_",
            "__ZN5realm5Query10less_equalENS_6ColKeyENS_4UUIDE",
            "__ZN5realm6Status9ErrorInfoC2ENS_10ErrorCodes5ErrorENSt3__117basic_string_viewIcNS4_11char_traitsIcEEEE",
            "__ZNK5realm5Table18get_index_in_groupEv",
            "__ZN5realm4sync18InstructionApplier12PathResolver13resolve_fieldERNS_3ObjENS0_12InternStringE",
            "__ZN5realm18DescriptorOrderingC2ERKS0_",
            "__ZN5realm4Node5allocEmm",
            "__ZN5realm16SyncUserMetadata16set_access_tokenERKNSt3__112basic_stringIcNS1_11char_traitsIcEENS1_9allocatorIcEEEE",
            "__ZN5realm4sync10ClientImpl10Connection36get_active_appservices_connection_idEv",
            "__ZN5realm5Realm17begin_transactionEv",
            "__ZNK5realm3app3App22make_streaming_requestERKNSt3__110shared_ptrINS_8SyncUserEEERKNS2_12basic_stringIcNS2_11char_traitsIcEENS2_9allocatorIcEEEERKNS2_6vectorINS_4bson4BsonENSB_ISI_EEEERKNS2_8optionalISD_EE",
            "__ZN5realm5_impl23CollectionChangeBuilder4moveEmm",
            "__ZThn24_N5realm3app3AppD1Ev",
            "__ZN5realm15MigrationFailedD2Ev",
            "__ZNK5realm6LnkLst15get_sorted_viewENS_14SortDescriptorE",
            "__ZN5realm11SyncSession5closeENS_4util17CheckedUniqueLockE",
            "__ZN5realm11GroupWriter17extend_free_spaceEm",
            "__ZN5realm4util4File15get_size_staticERKNSt3__112basic_stringIcNS2_11char_traitsIcEENS2_9allocatorIcEEEE",
            "__ZNK5realm11StringIndex8is_emptyEv",
            "__ZN5realm2DB12delete_filesERKNSt3__112basic_stringIcNS1_11char_traitsIcEENS1_9allocatorIcEEEEPbb",
            "__ZN5realm5_impl15TransformerImpl32flush_reciprocal_transform_cacheERNS_4sync16TransformHistoryE",
            "__ZNK5realm5Table5whereERKNS_20DictionaryLinkValuesE",
            "__ZN5realm13BPlusTreeLeaf15bptree_traverseENS_4util11FunctionRefIFNS_15IteratorControlEPNS_13BPlusTreeNodeEmEEE",
            "__ZN5realm4sync14MigrationStore20create_subscriptionsERKNS0_17SubscriptionStoreE",
            "__ZN5realm8Subexpr2INS_10StringDataEE5equalERKS2_b",
            "__ZN5realm5_impl16RealmCoordinator22enable_wait_for_changeEv",
            "__ZNK5realm4Spec20find_backlink_columnENS_8TableKeyEm",
            "__ZN5realm4util20LocalThresholdLogger6do_logENS0_6Logger5LevelERKNSt3__112basic_stringIcNS4_11char_traitsIcEENS4_9allocatorIcEEEE",
            "__ZN5realm8ObjectIdC2ERKNSt3__15arrayIhLm12EEE",
            "___bid128_to_bid64",
            "__ZN5realm6Schema4findERKNS_12ObjectSchemaE",
            "__ZNK5realm4sync9Changeset7get_keyERKN5mpark7variantIJNS2_9monostateExNS_9GlobalKeyENS0_12InternStringENS_8ObjectIdENS_4UUIDEEEE",
            "___bid128qqd_fma",
            "__ZN5realm4util19InterprocessCondVarC2Ev",
            "__ZNK5realm9Exception11code_stringEv",
            "__ZNK5realm10Decimal128mlEx",
            "__ZN5realm4sync10ClientImpl10Connection19initiate_ping_delayEx",
            "__ZN5realm10Geospatial13is_geospatialENS_8TableRefENS_6ColKeyE",
            "__ZN5realm11GroupWriter9MapWindowC2EmRNS_4util4FileEmmPNS2_11WriteMarkerE",
            "__ZNK5realm8SyncUser12sync_managerEv",
            "__ZN5realm4sync22MutableSubscriptionSetC2ENSt3__18weak_ptrIKNS0_17SubscriptionStoreEEENS2_10shared_ptrINS_11TransactionEEENS_3ObjENS_4util10TaggedBoolINS0_20MakingMutableCopyTagEEE",
            "__ZN5realm5_impl12OutputStream5writeEPKcm",
            "__ZNK5realm5TableeqERKS0_",
            "__ZN5realm19ObjectAlreadyExistsD2Ev",
            "__ZN5realm11SyncManager18close_all_sessionsEv",
            "__ZN5realm3SetINS_5MixedEE8do_clearEv",
            "__ZN5realm11SyncManager15run_file_actionERNS_22SyncFileActionMetadataE",
            "__ZN5realm3app14AppCredentialsC2ENS0_12AuthProviderENSt3__110unique_ptrINS_4bson10IndexedMapINS5_4BsonEEENS3_14default_deleteIS8_EEEE",
            "__ZNK5realm13BackupHandler23is_accepted_file_formatEi",
            "__ZN5realm14BPlusTreeInnerC1EPNS_13BPlusTreeBaseE",
            "__ZN5realm4sync10ClientImpl10Connection20receive_mark_messageEyy",
            "__ZNK5realm9SlabAlloc14get_total_sizeEv",
            "__ZN5realm5_impl12client_reset8ListPath7ElementC2Em",
            "__ZN5realm10converters25InterRealmObjectConverterC2ENS_13ConstTableRefENS_8TableRefEPNS0_23EmbeddedObjectConverterE",
            "__ZNK5realm4sync18InstructionApplier20table_for_class_nameENS_10StringDataE",
            "__Z28RLMValidateSetObservationKeyP8NSStringP6RLMSet",
            "__ZN5realm15FileAccessErrorC1ENS_10ErrorCodes5ErrorENSt3__117basic_string_viewIcNS3_11char_traitsIcEEEES7_i",
            "__ZN5realm5Query9not_equalENS_6ColKeyENS_4UUIDE",
            "__ZN5realm5_impl12client_reset8ListPath7ElementC2ERKNS1_13InternDictKeyE",
            "__ZN5realm10DictionaryaSERKS0_",
            "__ZN5realm5_impl27NetworkReachabilityObserver20reachability_changedEv",
            "__ZN5realm4sync10ClientImpl10Connection19read_or_write_errorENSt3__110error_codeENS3_17basic_string_viewIcNS3_11char_traitsIcEEEE",
            "__ZN5realm12RuntimeErrorD0Ev",
            "__ZN5realm4util10AESCryptor13set_file_sizeEx",
            "__ZN5realm4util4File14get_free_spaceERKNSt3__112basic_stringIcNS2_11char_traitsIcEENS2_9allocatorIcEEEE",
            "__ZN5realm8Subexpr2INS_10BinaryDataEE9ends_withERKS2_b",
            "__ZNK5realm10Dictionary3endEv",
            "__ZN5realm4util9BacktraceC1EOS1_",
            "__ZN5realm19ThreadSafeReferenceaSEOS0_",
            "__ZNK5realm5Group7to_jsonERNSt3__113basic_ostreamIcNS1_11char_traitsIcEEEEmPNS1_3mapINS1_12basic_stringIcS4_NS1_9allocatorIcEEEESB_NS1_4lessISB_EENS9_INS1_4pairIKSB_SB_EEEEEENS_14JSONOutputModeE",
            "__ZN5realm13ArrayBacklink6removeEmNS_6ObjKeyE",
            "__Z24RLMCreateManagedAccessorP10objc_classP12RLMClassInfo",
            "_RLMSetSwiftPropertyInt64",
            "__ZNK5realm3Obj22get_linkcollection_ptrENS_6ColKeyE",
            "__ZN5realm10LogicErrorC2ENS_10ErrorCodes5ErrorENSt3__117basic_string_viewIcNS3_11char_traitsIcEEEE",
            "__ZN5realm5_impl18CollectionNotifier31get_object_modification_checkerERKNS0_21TransactionChangeInfoENS_13ConstTableRefE",
            "__ZN5realm7Results5clearEv",
            "__ZN5realm21AuditObjectSerializer19reset_link_accessesEv",
            "__ZNK5realm10Dictionary16remove_backlinksERNS_12CascadeStateE",
            "__ZN5realm13BackupHandler13ensure_loggerEv",
            "__ZN5realm5Table17invalidate_objectENS_6ObjKeyE",
            "__ZNK5realm5Group5writeERNSt3__113basic_ostreamIcNS1_11char_traitsIcEEEEb",
            "__ZN5realm4util18uri_percent_encodeERKNSt3__112basic_stringIcNS1_11char_traitsIcEENS1_9allocatorIcEEEE",
            "__ZN5realm20SortedListComparatorclExNS_5MixedE",
            "__ZNK5realm12object_store3Set4findIiEEmRKT_",
            "__ZN5realm13BPlusTreeBase7destroyEv",
            "__ZN5realm4sync14SessionWrapper26get_flx_subscription_storeEv",
            "__ZN5realm14ColumnListBase11set_clusterEPKNS_7ClusterE",
            "__ZN5realm4util34encryption_mark_pages_for_IV_checkEPNS0_20EncryptedFileMappingE",
            "__ZN5realm12LinkPathPartC1ENS_6ColKeyENS_13ConstTableRefE",
            "__ZN5realm2DB17AsyncCommitHelper4mainEv",
            "__ZN5realm11StringIndex32insert_to_existing_list_at_lowerENS_6ObjKeyENS_5MixedERNS_13IntegerColumnERKNS_21IntegerColumnIteratorE",
            "__ZN5realm13BPlusTreeBase12replace_rootENSt3__110unique_ptrINS_13BPlusTreeNodeENS1_14default_deleteIS3_EEEE",
            "__ZN5realm12utf8_compareENS_10StringDataES0_",
            "__ZN5realm4sync15SyncReplication19populate_path_instrERNS0_5instr15PathInstructionERKNS_5TableENS_6ObjKeyENS_6ColKeyE",
            "__ZNK5realm4sync15SubscriptionSet5stateEv",
            "__ZN5realm4sync10ClientImpl10Connection27websocket_connected_handlerERKNSt3__112basic_stringIcNS3_11char_traitsIcEENS3_9allocatorIcEEEE",
            "__ZN5realm4sync21PendingBootstrapStore17pop_front_pendingERKNSt3__110shared_ptrINS_11TransactionEEEm",
            "__ZN5realm4util10serializer11print_valueIbEENSt3__112basic_stringIcNS3_11char_traitsIcEENS3_9allocatorIcEEEET_",
            "__ZN5realm4util6Thread11join_failedEi",
            "__ZN5realm4util14SemaphoreMutexD1Ev",
            "__ZN5realm4sync14MigrationStore5clearENSt3__111unique_lockINS2_5mutexEEE",
            "__ZN5realm18DisableReplicationC2ERNS_11TransactionE",
            "__ZNK5realm3app3App13get_app_routeERKNSt3__18optionalINS2_12basic_stringIcNS2_11char_traitsIcEENS2_9allocatorIcEEEEEE",
            "__ZN5realm4sync7network8Acceptor6listenEiRNSt3__110error_codeE",
            "__ZN5realm6ObjectC1ENSt3__110shared_ptrINS_5RealmEEEPKNS_12ObjectSchemaERKNS_3ObjESA_NS_6ColKeyE",
            "__ZN5realm3Obj12add_backlinkENS_6ColKeyENS_6ObjKeyE",
            "__ZNK5realm10Dictionary12find_any_keyENS_5MixedE",
            "__ZNK5realm14SortDescriptor15get_descriptionENS_13ConstTableRefE",
            "__ZN5realm12ObjectSchema24set_primary_key_propertyEv",
            "__ZNK5realm10Dictionary8get_pairEm",
            "__ZN5realm4util10serializer11print_valueINS_10StringDataEEENSt3__112basic_stringIcNS4_11char_traitsIcEENS4_9allocatorIcEEEET_",
            "__ZN5realm5_impl27NetworkReachabilityObserver15start_observingEv",
            "__ZNK5realm11Transaction7copy_toENSt3__110shared_ptrIS0_EE",
            "__ZNK5realm17ExtendedColumnKey13is_collectionEv",
            "__ZN5realm5_impl14ClientProtocol25make_query_change_messageERNS_4util43BasicResettableExpandableBufferOutputStreamIcNSt3__111char_traitsIcEENS4_9allocatorIcEEEEyxNS4_17basic_string_viewIcS6_EE",
            "__ZNK5realm3Obj7get_anyENSt3__111__wrap_iterIPNS1_12basic_stringIcNS1_11char_traitsIcEENS1_9allocatorIcEEEEEESA_",
            "_RLMGetSwiftPropertyDouble",
            "__ZN5realm4sync18InstructionApplier9get_tableERKNS0_5instr16TableInstructionERKNSt3__117basic_string_viewIcNS6_11char_traitsIcEEEE",
            "__ZNK5realm5Table18find_first_decimalENS_6ColKeyENS_10Decimal128E",
            "__ZN5realm2DB18create_new_historyERNS_11ReplicationE",
            "__ZN5realm3app3App13call_functionERKNSt3__112basic_stringIcNS2_11char_traitsIcEENS2_9allocatorIcEEEERKNS2_6vectorINS_4bson4BsonENS6_ISD_EEEEONS_4util14UniqueFunctionIFvONS2_8optionalISD_EENSK_INS0_8AppErrorEEEEEE",
            "__Z27RLMGetAnyCachedRealmForPathRKNSt3__112basic_stringIcNS_11char_traitsIcEENS_9allocatorIcEEEE",
            "__ZNK5realm18DistinctDescriptor15get_descriptionENS_13ConstTableRefE",
            "__ZN5realm36InvalidExternalSchemaChangeExceptionC1ERKNSt3__16vectorINS_31ObjectSchemaValidationExceptionENS1_9allocatorIS3_EEEE",
            "__ZN5realm5_impl14ServerProtocol18make_error_messageEiRNS_4util43BasicResettableExpandableBufferOutputStreamIcNSt3__111char_traitsIcEENS4_9allocatorIcEEEENS_4sync13ProtocolErrorEPKcmby",
            "__ZNK5realm5Array10find_firstExmm",
            "__ZN5realm4sync16ChangesetEncoderclERKNS0_5instr9ArrayMoveE",
            "__ZN5realm8IndexSet4findEmNS_5_impl33MutableChunkedRangeVectorIteratorINSt3__111__wrap_iterIPNS1_18ChunkedRangeVector5ChunkEEEEE",
            "__ZN5realm4sync9websocket6Socket25initiate_server_handshakeEv",
            "__ZNK5realm11SyncManager10get_loggerEv",
            "__ZN5realm12object_store3Set6removeINS_3ObjEEENSt3__14pairImbEERKT_",
            "__ZN5realm11GroupWriterD2Ev",
            "__ZN5realm4util4File21prealloc_if_supportedExm",
            "__ZN5realm18DisableReplicationD2Ev",
            "__ZN5realm5RealmC2ENS_11RealmConfigENSt3__18optionalINS_9VersionIDEEENS2_10shared_ptrINS_5_impl16RealmCoordinatorEEENS0_13MakeSharedTagE",
            "__ZN5realm23MaximumFileSizeExceededD1Ev",
            "__ZN5realm16SectionedResultsC2ENS_7ResultsENS1_24SectionedResultsOperatorENS_10StringDataE",
            "__ZN5realm11FieldValuesC1ESt16initializer_listINS_10FieldValueEE",
            "__ZN5realm14KeyAlreadyUsedD0Ev",
            "__ZN5realm4sync10ClientImpl7Session29process_flx_bootstrap_messageERKNS0_12SyncProgressENS0_18DownloadBatchStateExRKNSt3__16vectorINS0_11Transformer15RemoteChangesetENS7_9allocatorISA_EEEE",
            "__ZN5realm5_impl27NetworkReachabilityObserverC1ENSt3__18optionalINS2_12basic_stringIcNS2_11char_traitsIcEENS2_9allocatorIcEEEEEENS_4util14UniqueFunctionIFvNS0_25NetworkReachabilityStatusEEEE",
            "__ZN5realm9SlabAlloc27convert_from_streaming_formEm",
            "__ZNK5realm5Table20find_backlink_originENS_10StringDataES1_",
            "__ZN5realm5Group12rename_tableENS_10StringDataES1_b",
            "__ZN5realm5_impl12ListNotifier27do_add_required_change_infoERNS0_21TransactionChangeInfoE",
            "__ZN5realm5Query13greater_equalENS_6ColKeyEi",
            "__ZN5realm4sync15make_error_codeENS0_13ProtocolErrorE",
            "__ZN5realm4sync7network10SocketBase4bindERKNS1_8EndpointERNSt3__110error_codeE",
            "__ZN5realm4bson17RegularExpressionC1ENSt3__112basic_stringIcNS2_11char_traitsIcEENS2_9allocatorIcEEEENS1_6OptionE",
            "__ZN5realm20CrossTableLinkTargetD1Ev",
            "__ZN5realm6ObjectC2ENSt3__110shared_ptrINS_5RealmEEEPKNS_12ObjectSchemaERKNS_3ObjESA_NS_6ColKeyE",
            "__ZN5realm8SyncUser15revive_sessionsEv",
            "__ZN5realm4sync10ClientImpl10Connection27close_due_to_protocol_errorENSt3__110error_codeENS3_8optionalINS3_17basic_string_viewIcNS3_11char_traitsIcEEEEEE",
            "__ZN5realm4sync10ClientImpl7Session27on_connection_state_changedENS0_15ConnectionStateERKNSt3__18optionalINS0_16SessionErrorInfoEEE",
            "__ZN5realm4sync15SyncReplication17select_collectionERKNS_14CollectionBaseE",
            "__ZNK5realm5Table32global_to_local_object_id_hashedENS_9GlobalKeyE",
            "__ZN5realm14ExpressionNodeC2ERKS0_",
            "__ZN5realm28UnsupportedFileFormatVersionC1Ei",
            "__ZN5realm4sync18InstructionApplier12PathResolver6on_setERNS_7SetBaseE",
            "__ZN5realm5_impl15NotifierPackageC1ENSt3__16vectorINS2_10shared_ptrINS0_18CollectionNotifierEEENS2_9allocatorIS6_EEEEPNS0_16RealmCoordinatorE",
            "__ZNK5realm4List4findINS_3ObjEEEmRKT_",
            "__ZN5realm15ArraySmallBlobs3getEPKcmRNS_9AllocatorE",
            "__ZN5realm11ArrayStringC2ERNS_9AllocatorE",
            "__ZNK12RLMClassInfo21propertyForPrimaryKeyEv",
            "__ZN5realm4util3Uri8set_authERKNSt3__112basic_stringIcNS2_11char_traitsIcEENS2_9allocatorIcEEEE",
            "__ZN5realm20ColumnDictionaryKeys8evaluateEmRNS_9ValueBaseE",
            "__ZN5realm11GroupWriterD1Ev",
            "__Z21RLMGetObservationInfoP18RLMObservationInfoN5realm6ObjKeyER12RLMClassInfo",
            "__Z11context_forRKNSt3__110shared_ptrIN5realm8SyncUserEEE",
            "__ZNK5realm5Table17find_first_stringENS_6ColKeyENS_10StringDataE",
            "__ZNK5realm9ArrayBlob6get_atERm",
            "__ZN5realm15string_like_insENS_10StringDataES0_S0_",
            "__ZN5realm4sync13ClientHistory6ArraysC1ERNS_9AllocatorERNS_5GroupEm",
            "__ZN5realm3app3App24handle_redirect_responseEONS0_7RequestERKNS0_8ResponseEONS_4util14UniqueFunctionIFvS6_EEE",
            "__ZNK5realm5Query3avgENS_6ColKeyEPm",
            "__ZN5realm5Query8links_toENS_6ColKeyENS_6ObjKeyE",
            "__ZN5realm7metrics7Metrics17report_write_timeERKNS_5GroupE",
            "__ZN5realm5Query4lessENS_6ColKeyES1_",
            "__ZN5realm4sync21PendingBootstrapStore13pending_statsEv",
            "__ZN5realm4util6Logger27set_default_level_thresholdENS1_5LevelE",
            "__ZThn16_N5realm14BPlusTreeInnerD0Ev",
            "__ZN5realm10cpuid_initEv",
            "__ZN5realm11SyncManagerD1Ev",
            "__ZN5realm4util7CondVar14destroy_failedEi",
            "__ZN5realm4util10DirScannerD1Ev",
            "__ZN5realm5Group23refresh_dirty_accessorsEv",
            "__ZN5realm5_impl18ChunkedRangeVector9push_backENSt3__14pairImmEE",
            "__ZN5realm4sync10ClientImplD1Ev",
            "__ZN5realm4sync11ObjectIDSet5eraseENS_10StringDataERKN5mpark7variantIJNS3_9monostateExS2_NS_9GlobalKeyENS_8ObjectIdENS_4UUIDEEEE",
            "__ZNK5realm4sync17SubscriptionStore24get_next_pending_versionExy",
            "__ZN5realm25SchemaValidationExceptionC1ERKNSt3__16vectorINS_31ObjectSchemaValidationExceptionENS1_9allocatorIS3_EEEE",
            "_RLMObjectBaseAreEqual",
            "__ZNK5realm7metrics11MetricTimer24calc_elapsed_nanosecondsENSt3__16chrono10time_pointINS3_12steady_clockENS3_8durationIxNS2_5ratioILl1ELl1000000000EEEEEEESA_",
            "__ZNK5realm7metrics17MetricTimerResult23get_elapsed_nanosecondsEv",
            "__ZNK5realm9GlobalKey9to_stringEv",
            "__ZN5realm4util4File7resolveERKNSt3__112basic_stringIcNS2_11char_traitsIcEENS2_9allocatorIcEEEESA_",
            "__ZN5realm4sync18InstructionApplier12PathResolver20on_null_link_advanceENS_10StringDataES3_",
            "__ZNK5realm8SyncUser12is_logged_inEv",
            "__ZN5realm3LstINS_7ObjLinkEE9do_removeEm",
            "__ZNK5realm4List3getINS_5MixedEEET_m",
            "__ZN5realm4util20MemoryInputStreambuf9showmanycEv",
            "__ZN5realm7metrics7Metrics23start_write_transactionEv",
            "__ZN5realm4util3Uri10set_schemeERKNSt3__112basic_stringIcNS2_11char_traitsIcEENS2_9allocatorIcEEEE",
            "__ZN5realm7ResultsaSEOS0_",
            "__ZN5realm11StringIndex17node_insert_splitEmm",
            "__ZN5realmeqERKNS_12ObjectSchemaES2_",
            "__ZN5realm4sync10ClientImpl7Session12on_suspendedERKNS0_16SessionErrorInfoE",
            "__ZNK5realm11StringIndex6verifyEv",
            "__ZN5realm4util4File7MapBase4syncEv",
            "__ZN5realm13AsyncOpenTaskC1ENSt3__110shared_ptrINS_5_impl16RealmCoordinatorEEENS2_INS_11SyncSessionEEE",
            "__ZN5realm5_impl16RealmCoordinator5closeEv",
            "__ZN5realm5_impl20ExternalCommitHelperC2ERNS0_16RealmCoordinatorERKNS_11RealmConfigE",
            "__ZNK5realm5Table16get_parent_groupEv",
            "__ZN5realm4util4File8sync_mapEiPvm",
            "__ZN5realm4sync7network3ssl6Stream15do_ssl_shutdownEv",
            "__ZN5realm4sync10ClientImpl7Session18send_ident_messageEv",
            "__ZN5realm4util19InterprocessCondVarD1Ev",
            "__ZN5realm5_impl12client_reset29RecoverLocalChangesetsHandler16RecoveryResolver19set_last_path_indexEj",
            "__ZN5realm5GroupD1Ev",
            "__ZN5realm10converters24InterRealmValueConverter8copy_setERKNS_3ObjERS2_Pb",
            "__ZN5realm11SyncSession15handle_bad_authERKNSt3__110shared_ptrINS_8SyncUserEEENS_6StatusENS1_17basic_string_viewIcNS1_11char_traitsIcEEEE",
            "__ZN5realm17NotificationTokenC1EOS0_",
            "__ZNK5realm4sync13ClientHistory14get_changesetsEyyPNS_14BinaryIteratorE",
            "__ZN5realm8IndexSetC2ESt16initializer_listImE",
            "__ZN5realm5_impl12client_reset29RecoverLocalChangesetsHandler16RecoveryResolver20on_null_link_advanceENS_10StringDataES4_",
            "__ZN5realm15FileAccessErrorD2Ev",
            "__ZN5realm11SyncSession9do_reviveEONS_4util17CheckedUniqueLockE",
            "__ZN5realm4sync7network10SocketBase9do_assignERKNS1_14StreamProtocolEiRNSt3__110error_codeE",
            "__ZNK5realm6Object28validate_property_for_setterERKNS_8PropertyE",
            "__ZN5realm5Query8fulltextENS_6ColKeyENS_10StringDataERKNS_7LinkMapE",
            "__ZN5realm11ClusterTree12replace_rootENSt3__110unique_ptrINS_11ClusterNodeENS1_14default_deleteIS3_EEEE",
            "__ZN5realm4List6insertINS_3ObjEEEvmT_",
            "__ZNK5realm4Spec27get_opposite_link_table_keyEm",
            "__ZN5realm10ArrayMixedC1ERNS_9AllocatorE",
            "__ZN5realm7metrics7Metrics9add_queryENS0_9QueryInfoE",
            "__ZN5realm12object_store10CollectionaSEOS1_",
            "__ZNK5realm11ClusterTree3getEmRNS_6ObjKeyE",
            "__ZNK5realm13TableVersionseqERKS0_",
            "__ZN5realm3Obj19remove_one_backlinkENS_6ColKeyENS_6ObjKeyE",
            "__ZN5realm5_impl18CollectionNotifier33report_collection_root_is_deletedEv",
            "__ZN5realm9ExceptionC2ENS_6StatusE",
            "__ZN5realm4util11compression35decompress_nonportable_input_streamERNS0_11InputStreamERm",
            "__ZN5realm5Realm6freezeEv",
            "__ZN5realm10Decimal128C2Ex",
            "__ZNR5realm12object_store10Collection25add_notification_callbackENS_24CollectionChangeCallbackENSt3__18optionalINS3_6vectorINS5_INS3_4pairINS_8TableKeyENS_6ColKeyEEENS3_9allocatorIS9_EEEENSA_ISC_EEEEEE",
            "__ZNK5realm10Dictionary3avgEPm",
            "__ZN5realm5Realm25add_schema_change_handlerEv",
            "__ZN5realm5QueryC2ENS_13ConstTableRefEPNS_9TableViewE",
            "__ZN13RLMSchemaInfoC1EP8RLMRealm",
            "__ZN5realm5Table38allocate_local_id_after_hash_collisionENS_9GlobalKeyES1_NS_6ObjKeyE",
            "__ZNK5realm5_impl12client_reset8ListPatheqERKS2_",
            "__ZN5realm4sync13ClientHistory27set_client_file_ident_in_wtEyNS0_15SaltedFileIdentE",
            "__ZN5realm4sync13ClientHistory33set_local_origin_timestamp_sourceENS_4util14UniqueFunctionIFyvEEE",
            "__ZN5realm4util10serializer11print_valueIfEENSt3__112basic_stringIcNS3_11char_traitsIcEENS3_9allocatorIcEEEET_",
            "__ZN5realm14BPlusTreeInner12bptree_eraseEmNS_4util11FunctionRefIFmPNS_13BPlusTreeNodeEmEEE",
            "__ZNK5realm7Cluster12dump_objectsExNSt3__112basic_stringIcNS1_11char_traitsIcEENS1_9allocatorIcEEEE",
            "__ZN5realm12query_parser11SyntaxErrorD1Ev",
            "__ZN5realm5_impl12virtual2realEPKNS_9BPlusTreeINS_6ObjKeyEEEm",
            "__ZN5realm3app11MongoClient2dbERKNSt3__112basic_stringIcNS2_11char_traitsIcEENS2_9allocatorIcEEEE",
            "__ZN5realm4sync15SyncReplication17dictionary_updateERKNS_14CollectionBaseERKNS_5MixedES7_",
            "__ZN5realm10DictionaryC1ERNS_9AllocatorENS_6ColKeyEm",
            "__ZN5realm11ArrayBinary5eraseEm",
            "__ZN5realm4sync15SyncReplication30create_object_with_primary_keyEPKNS_5TableENS_6ObjKeyENS_5MixedE",
            "__ZN5realm3Obj3setINS_7ObjLinkEEERS0_NS_6ColKeyET_b",
            "__ZN5realm4sync22MutableSubscriptionSetC1ENSt3__18weak_ptrIKNS0_17SubscriptionStoreEEENS2_10shared_ptrINS_11TransactionEEENS_3ObjENS_4util10TaggedBoolINS0_20MakingMutableCopyTagEEE",
            "__ZN5realm5Query4lessENS_6ColKeyENS_9TimestampE",
            "___bid128dd_mul",
            "__ZN5realm9TableView4sortENS_6ColKeyEb",
            "__ZN5realm4bson17holds_alternativeINS_9TimestampEEEbRKNS0_4BsonE",
            "__ZN5realm4util4File7MapBase5flushEv",
            "_RLMGetSwiftPropertySet",
            "__ZN5realm5_impl12ListNotifier12release_dataEv",
            "__ZN5realm5Table16ensure_graveyardEv",
            "__ZNK5realm10Decimal128mlEm",
            "__ZN5realm5_impl19ListResultsNotifier19do_prepare_handoverERNS_11TransactionE",
            "__ZN5realm5_impl14ClientProtocol19make_unbind_messageERNS_4util43BasicResettableExpandableBufferOutputStreamIcNSt3__111char_traitsIcEENS4_9allocatorIcEEEEy",
            "__ZN5realm4sync21PendingBootstrapStoreC1ENSt3__110shared_ptrINS_2DBEEERNS_4util6LoggerE",
            "__ZN5realm4util16RunLoopScheduler6invokeEONS0_14UniqueFunctionIFvvEEE",
            "__ZN5realm4util4File21is_prealloc_supportedEv",
            "__ZN5realm3Obj16ensure_writeableEv",
            "_RLMRealmPathForFileAndBundleIdentifier",
            "__ZN5realm4util19InterprocessCondVar10notify_allEv",
            "__ZN5realm4sync13ClientHistory26compress_stored_changesetsEv",
            "__ZN5realm7ResultsC1EOS0_",
            "__ZN5realm5_impl12ListNotifierC1ENSt3__110shared_ptrINS_5RealmEEERKNS_14CollectionBaseENS_12PropertyTypeE",
            "__ZN5realm13ArrayUnsigned9set_widthEh",
            "__ZN5realm5_impl12client_reset29RecoverLocalChangesetsHandlerclERKNS_4sync5instr9ArrayMoveE",
            "__ZNK5realm9SlabAlloc12do_translateEm",
            "__ZN5realm4sync6Client36voluntary_disconnect_all_connectionsEv",
            "__ZN5realm4sync10ClientImpl7Session10on_resumedEv",
            "__ZN5realm4sync24ErrorTryAgainBackoffInfo6updateERKNS0_17ProtocolErrorInfoE",
            "__ZN5realm3app15MongoCollection20find_one_and_replaceERKNS_4bson10IndexedMapINS2_4BsonEEES7_RKNS1_23FindOneAndModifyOptionsEONS_4util14UniqueFunctionIFvONSt3__18optionalIS5_EENSE_INS0_8AppErrorEEEEEE",
            "__ZN5realm5Query5equalENS_6ColKeyEx",
            "__ZNK5realm4bson4Bson6toJsonEv",
            "__ZN5realm5QueryC2ENS_13ConstTableRefENSt3__110unique_ptrINS_9TableViewENS2_14default_deleteIS4_EEEE",
            "__ZNK5realm5Realm24read_transaction_versionEv",
            "__ZNK5realm12object_store10Collection15verify_attachedEv",
            "__ZN5realm4util16RunLoopSchedulerC1EP11__CFRunLoop",
            "__ZN5realm7Results3minENS_6ColKeyE",
            "__ZN5realm11SyncSession17send_test_commandENSt3__112basic_stringIcNS1_11char_traitsIcEENS1_9allocatorIcEEEE",
            "__ZN5realm11ClusterTree6updateENS_4util11FunctionRefIFvPNS_7ClusterEEEE",
            "__ZN5realm4sync6ClientD1Ev",
            "__ZNK5realm12object_store3Set8find_anyENS_5MixedE",
            "_RLMDeleteAllObjectsFromRealm",
            "__ZN5realm14BPlusTreeInner6createEm",
            "__ZN5realm19ColumnDictionaryKey8evaluateEmRNS_9ValueBaseE",
            "__ZN5realm5Array8truncateEm",
            "__ZNK5realm7ColumnsINS_10StringDataEE8fulltextES1_",
            "__ZN5realm12RuntimeErrorD1Ev",
            "__ZN5realm4sync18InstructionApplierclERKNS0_5instr9SetInsertE",
            "__ZN5realm13BPlusTreeBaseD0Ev",
            "__ZN5realm4sync7Session7refreshERKNSt3__112basic_stringIcNS2_11char_traitsIcEENS2_9allocatorIcEEEE",
            "__ZN5realm4util22DispatchQueueSchedulerC1EP16dispatch_queue_s",
            "__ZNK5realm13ArrayWithFind13first_set_bitEj",
            "__ZN5realm4sync16ChangesetEncoder13append_stringENS0_17StringBufferRangeE",
            "__ZN5realm5_impl16RealmCoordinator12freeze_realmERKNS_5RealmE",
            "__Z20RLMValidatedPropertyP15RLMObjectSchemaP8NSString",
            "__ZN5realm14QueryStateBase7dyncastEv",
            "__ZN5realm5QueryC2ENSt3__110unique_ptrINS_10ExpressionENS1_14default_deleteIS3_EEEE",
            "__ZN5realm4sync22MutableSubscriptionSet5eraseENSt3__111__wrap_iterIPKNS0_12SubscriptionEEE",
            "__ZNK5realm5Mixed3getINSt3__18optionalIxEEEET_v",
            "__ZN5realm5_impl15ResultsNotifier3runEv",
            "__ZNK5realm13BPlusTreeNode16get_context_flagEv",
            "__ZN5realm4sync9websocket24websocket_error_categoryEv",
            "__ZNK5realm5Table17find_all_fulltextENS_6ColKeyENS_10StringDataE",
            "__ZN5realm5_impl12client_reset29RecoverLocalChangesetsHandler16RecoveryResolver9on_finishEv",
            "__ZN5realm21AuditObjectSerializer9get_fieldERN8nlohmann10basic_jsonINSt3__13mapENS3_6vectorENS3_12basic_stringIcNS3_11char_traitsIcEENS3_9allocatorIcEEEEbxydS9_NS1_14adl_serializerEEERKNS_3ObjENS_6ColKeyE",
            "__ZNK5realm6Object17property_for_nameENS_10StringDataE",
            "__ZNK5realm12object_store10Dictionary10get_objectENS_10StringDataE",
            "__ZN5realm4sync7network13DeadlineTimer11get_serviceEv",
            "__Z39RLMSetConfigInfoForClientResetCallbacksRN5realm10SyncConfigEP21RLMRealmConfiguration",
            "__ZN5realm4sync13ClientHistory17set_sync_progressERKNS0_12SyncProgressEPKyRNS0_11VersionInfoE",
            "_RLMInitializeUnmanagedSwiftValueStorage",
            "__ZN5realm11ClusterTree13nullify_linksENS_6ObjKeyERNS_12CascadeStateE",
            "__ZN5realm3app3App24UserAPIKeyProviderClient14delete_api_keyERKNS_8ObjectIdERKNSt3__110shared_ptrINS_8SyncUserEEEONS_4util14UniqueFunctionIFvNS6_8optionalINS0_8AppErrorEEEEEE",
            "__ZNK5realm15SyncFileManager18remove_user_realmsERKNSt3__112basic_stringIcNS1_11char_traitsIcEENS1_9allocatorIcEEEERKNS1_6vectorIS7_NS5_IS7_EEEE",
            "__ZN5realm10ArrayMixed6createEv",
            "__ZN5realm3app3AppD0Ev",
            "__ZN5realm4util13base64_decodeENS_10StringDataEPcm",
            "__ZN5realm4util13base64_encodeEPKcmPcm",
            "__ZNK5realm11ArrayBinary7is_nullEm",
            "___bid128qd_sub",
            "__ZNK5realm5Query8validateEv",
            "__ZN5realm11ArrayString6createEv",
            "__ZN5realm5Table21do_insert_root_columnENS_6ColKeyENS_10ColumnTypeENS_10StringDataENS_8DataTypeE",
            "__ZN5realm5_impl12client_reset8ListPath6appendERKNS2_7ElementE",
            "__ZN5realm9SlabAlloc27get_prev_block_if_mergeableEPNS0_9FreeBlockE",
            "___bid128dd_sub",
            "__ZN5realm11Transaction14import_copy_ofENS_13ConstTableRefE",
            "__ZN5realm3app8AppUtils11find_headerERKNSt3__112basic_stringIcNS2_11char_traitsIcEENS2_9allocatorIcEEEERKNS2_3mapIS8_S8_NS2_4lessIS8_EENS6_INS2_4pairIS9_S8_EEEEEE",
            "__ZN5realm8SyncUser23update_state_and_tokensENS0_5StateERKNSt3__112basic_stringIcNS2_11char_traitsIcEENS2_9allocatorIcEEEESA_",
            "__ZNK5realm10Dictionary6do_maxEPm",
            "__ZN5realm3app3App6Config10DeviceInfoC2ENSt3__112basic_stringIcNS4_11char_traitsIcEENS4_9allocatorIcEEEESA_SA_SA_SA_SA_SA_SA_",
            "__ZN5realm5_impl15CopyReplication10set_insertERKNS_14CollectionBaseEmNS_5MixedE",
            "__ZN5realm5_impl12client_reset29RecoverLocalChangesetsHandlerclERKNS_4sync5instr6UpdateE",
            "__ZNK5realm3Obj13get_table_keyEv",
            "__ZN5realm4Spec19convert_column_keysENS_8TableKeyE",
            "__ZN5realm5Table12fully_detachEv",
            "__ZN5realm7metrics15TransactionInfoC1ENS1_15TransactionTypeE",
            "__ZN5realm4util3Uri8set_fragERKNSt3__112basic_stringIcNS2_11char_traitsIcEENS2_9allocatorIcEEEE",
            "__ZN5realm5Table18update_from_parentEv",
            "__ZNK5realm16SectionedResults9is_frozenEv",
            "__ZN5realm10DictionaryC2ERNS_9AllocatorENS_6ColKeyEm",
            "__ZN5realm5_impl20ClientResetOperation14clean_up_stateEv",
            "__ZNK5realm16SyncUserMetadata16realm_file_pathsEv",
            "__ZN5realm19SyncMetadataManagerC2ENSt3__112basic_stringIcNS1_11char_traitsIcEENS1_9allocatorIcEEEEbNS1_8optionalINS1_6vectorIcS6_EEEE",
            "__ZN5realm2DB23wait_for_change_releaseEv",
            "__ZN5realm5Query9end_groupEv",
            "__ZN5realm4sync22MutableSubscriptionSet5eraseERKNS_5QueryE",
            "__ZN5realm4util9Printable9print_allERNSt3__113basic_ostreamIcNS2_11char_traitsIcEEEERKSt16initializer_listIS1_Eb",
            "__ZN5realm18DescriptorOrderingC1ERKS0_",
            "__Z27RLMEnsureSetObservationInfoRNSt3__110unique_ptrI18RLMObservationInfoNS_14default_deleteIS1_EEEEP8NSStringP6RLMSetP11objc_object",
            "__ZN5realm5Realm27get_latest_subscription_setEv",
            "__ZN5realm8IndexSet8erase_atERKS0_",
            "__ZN5realm4sync7network6Socket7connectERKNS1_8EndpointERNSt3__110error_codeE",
            "__ZN5realm5Realm21run_async_completionsEv",
            "__ZN18RLMObservationInfoC1EP11objc_object",
            "_RLMInitializeManagedSwiftValueStorage",
            "__ZN5realm5_impl12ListNotifier3runEv",
            "__ZN5realm4util27data_size_to_encrypted_sizeEx",
            "__ZN5realm13BackupHandler12prep_loggingEv",
            "__ZN5realm11ObjectStore29verify_valid_external_changesERKNSt3__16vectorINS_12SchemaChangeENS1_9allocatorIS3_EEEE",
            "__ZN5realm11SyncSession15become_inactiveENS_4util17CheckedUniqueLockENS_6StatusE",
            "__ZN5realm5Query13greater_equalENS_6ColKeyENS_10Decimal128E",
            "__ZN5realm8ObjectIdC2ENS_10StringDataE",
            "__ZNK5realm6LnkSet14is_superset_ofERKNS_14CollectionBaseE",
            "__ZN5realm23MaximumFileSizeExceededD2Ev",
            "__ZNK5realm5Group16get_sync_file_idEv",
            "__ZN5realm13BPlusTreeLeaf13bptree_accessEmNS_4util11FunctionRefIFvPNS_13BPlusTreeNodeEmEEE",
            "__ZNK5realm5Array13do_write_deepERNS_5_impl15ArrayWriterBaseEb",
            "__ZN5realm12object_store10CollectionC2ERKS1_",
            "__ZN5realm11GroupWriter9MapWindow21aligned_to_mmap_blockEm",
            "__ZN5realm4sync16ChangesetEncoder12append_valueERKNS0_5instr7PayloadE",
            "__ZN5realm4sync14MigrationStore26convert_sync_config_to_flxENSt3__110shared_ptrINS_10SyncConfigEEE",
            "__ZN5realm4sync7network3ssl6Stream11do_ssl_readEPcm",
            "__ZNK5realm3Obj16replace_backlinkENS_6ColKeyENS_7ObjLinkES2_RNS_12CascadeStateE",
            "__ZN5realm10converters24InterRealmValueConverterC1ENS_13ConstTableRefENS_6ColKeyES2_S3_PNS0_23EmbeddedObjectConverterE",
            "__ZN5realm5Query8containsENS_6ColKeyENS_10BinaryDataEb",
            "__ZN5realm21AddressSpaceExhaustedD1Ev",
            "__ZNK5realm5Group5writeERNS_4util4FileEPKcyRNS0_11TableWriterE",
            "__ZN5realm5_impl15ResultsNotifier13get_tableviewERNS_9TableViewE",
            "__ZN5realm3app15MongoCollection10update_oneERKNS_4bson10IndexedMapINS2_4BsonEEES7_bONS_4util14UniqueFunctionIFvONS1_12UpdateResultENSt3__18optionalINS0_8AppErrorEEEEEE",
            "__ZN5realm4util14SharedFileInfoC1EPKh",
            "__ZN5realm8IndexSet8erase_atEm",
            "__ZNK5realm11ClusterTree8is_validENS_6ObjKeyE",
            "__ZN5realm8Subexpr2INS_10StringDataEE4likeERKS2_b",
            "__ZN5realm4Node16do_copy_on_writeEm",
            "___bid128_add",
            "__ZNK5realm4UUID9to_base64Ev",
            "__ZN5realm5Group13attach_sharedEmmbNS_9VersionIDE",
            "___bid128_from_string",
            "__ZNK5realm9Exception4whatEv",
            "__ZN5realm4util20EncryptedFileMapping12read_barrierEPKvmPFmPKcEb",
            "__ZNK5realm10Decimal1289to_stringEv",
            "__ZNK5realm5Table6verifyEv",
            "__ZN5realm5Realm12delete_filesERKNSt3__112basic_stringIcNS1_11char_traitsIcEENS1_9allocatorIcEEEEPb",
            "__ZN5realm4sync7network3ssl6Stream19ssl_set_verify_modeENS2_10VerifyModeERNSt3__110error_codeE",
            "__ZN5realm3app11MongoClientD2Ev",
            "__ZN5realm11SyncSession20download_fresh_realmENS_4sync17ProtocolErrorInfo6ActionE",
            "__ZN5realm11SyncManager21has_existing_sessionsEv",
            "__ZN5realm2DB16claim_sync_agentEv",
            "__ZN5realm5Table26get_objkey_from_global_keyENS_9GlobalKeyE",
            "__ZNK5realm7Cluster7try_getENS_6ObjKeyERNS_11ClusterNode5StateE",
            "__ZN5realm4bson5parseERKNSt3__117basic_string_viewIcNS1_11char_traitsIcEEEE",
            "__ZN5realm5QueryC2ENS_13ConstTableRefERKNS_7ObjListE",
            "__ZN5realm4sync13ClientHistory22add_sync_history_entryERKNS0_12HistoryEntryE",
            "__ZNK5realm5Mixed7compareERKS0_",
            "_RLMSetSwiftPropertyNil",
            "__ZN5realm4sync16ChangesetEncoder12append_valueERKN5mpark7variantIJNS2_9monostateExNS_9GlobalKeyENS0_12InternStringENS_8ObjectIdENS_4UUIDEEEE",
            "__ZN5realm8Subexpr2INS_10StringDataEE9not_equalERKS2_b",
            "__ZN5realm5TableD1Ev",
            "__ZNK5realm14ArrayTimestamp10find_firstINS_12GreaterEqualEEEmNS_9TimestampEmm",
            "__ZN5realm3app15MongoCollection5countERKNS_4bson10IndexedMapINS2_4BsonEEExONS_4util14UniqueFunctionIFvOyNSt3__18optionalINS0_8AppErrorEEEEEE",
            "__ZN5realm5Realm8Internal6get_dbERS0_",
            "_RLMSetSkipBackupAttribute",
            "__ZN5realm11StringIndex9do_deleteENS_6ObjKeyENS_10StringDataEm",
            "__ZN5realm4sync17SubscriptionStore30initialize_subscriptions_tableEONSt3__110shared_ptrINS_11TransactionEEEb",
            "__ZN5realm4util22get_file_info_for_fileERNS0_4FileE",
            "__ZNK5realm11TypeOfValue7matchesERKNS_5MixedE",
            "__ZNK5realm4util20EncryptedFileMapping9page_addrEm",
            "__ZNK5realm11SyncSession14get_file_identEv",
            "__ZN5realm5_impl15CopyReplication13insert_columnEPKNS_5TableENS_6ColKeyENS_8DataTypeENS_10StringDataEPS2_",
            "__ZN5realm7Results11has_changedEv",
            "__ZN5realm5_impl15CopyReplication30create_object_with_primary_keyEPKNS_5TableENS_6ObjKeyENS_5MixedE",
            "__ZNK5realm15ArraySmallBlobs10find_firstENS_10BinaryDataEbmm",
            "__ZN5realm5Query5equalENS_6ColKeyENS_4UUIDE",
            "__ZN5realm5Group13clear_historyEv",
            "__ZNK5realm15SyncFileManager12remove_realmERKNSt3__112basic_stringIcNS1_11char_traitsIcEENS1_9allocatorIcEEEE",
            "__ZN5realm4sync18InstructionApplier12PathResolver19on_dict_key_advanceENS_10StringDataE",
            "__ZN5realm16SyncUserIdentityC2ERKNSt3__112basic_stringIcNS1_11char_traitsIcEENS1_9allocatorIcEEEES9_",
            "__ZNK5realm5Table22contains_unique_valuesENS_6ColKeyE",
            "__ZNK5realm9TableView13count_decimalENS_6ColKeyENS_10Decimal128E",
            "__ZN5realm11Replication15do_select_tableEPKNS_5TableE",
            "__ZN5realm4sync10ClientImpl10Connection14enlist_to_sendEPNS1_7SessionE",
            "__ZN5realm5Table21populate_search_indexENS_6ColKeyE",
            "__ZN5realm4util6Logger18get_default_loggerEv",
            "__ZN5realm5_impl16RealmCoordinator21assert_no_open_realmsEv",
            "__ZNK5realm11Transaction11get_historyEv",
            "__ZN5realm4sync7network7Service5resetEv",
            "__ZNK5realm4util16RunLoopScheduler10is_same_asEPKNS0_9SchedulerE",
            "__ZN5realm3app15MongoCollectionC1ERKNSt3__112basic_stringIcNS2_11char_traitsIcEENS2_9allocatorIcEEEESA_RKNS2_10shared_ptrINS_8SyncUserEEERKNSB_INS0_16AppServiceClientEEESA_",
            "__ZN5realm4sync10ClientImpl10Connection22resume_active_sessionsEv",
            "__ZN5realm4util4File7MapBase13try_extend_toEm",
            "__ZN5realm5Query8add_nodeENSt3__110unique_ptrINS_10ParentNodeENS1_14default_deleteIS3_EEEE",
            "__ZN5realm23MaximumFileSizeExceededD0Ev",
            "__ZN5realm9TokenizerD2Ev",
            "__ZN5realm4SpecD1Ev",
            "__ZN5realm3app3App23log_in_with_credentialsERKNS0_14AppCredentialsEONS_4util14UniqueFunctionIFvRKNSt3__110shared_ptrINS_8SyncUserEEENS7_8optionalINS0_8AppErrorEEEEEE",
            "__ZN5realm4sync9websocket21DefaultSocketProvider10event_loopEv",
            "__ZN5realm4sync15SyncReplication13create_objectEPKNS_5TableENS_9GlobalKeyE",
            "__ZN5realm4sync22valid_http_status_codeEj",
            "__ZN5realm11SyncSessionD2Ev",
            "__ZNK5realm11ArrayBinary6verifyEv",
            "__ZN5realm11Transaction20close_read_with_lockEv",
            "__ZNK5realm6LnkSet10set_equalsERKNS_14CollectionBaseE",
            "__ZNK5realm4bson4Bson9to_stringEv",
            "__ZN5realm4sync25load_sync_metadata_schemaERKNSt3__110shared_ptrINS_11TransactionEEEPNS1_6vectorINS0_17SyncMetadataTableENS1_9allocatorIS8_EEEE",
            "__ZN5realm9SlabAlloc12merge_blocksEPNS0_9FreeBlockES2_",
            "__ZN5realm15InvalidTableRefD0Ev",
            "__ZN5realm5Table20create_linked_objectEv",
            "__ZN5realm12query_parser11SyntaxErrorD2Ev",
            "__ZN5realm5_impl17update_unresolvedERNSt3__16vectorImNS1_9allocatorImEEEEPKNS_9BPlusTreeINS_6ObjKeyEEE",
            "__ZN5realm3app3App10do_requestEONS0_7RequestEONS_4util14UniqueFunctionIFvRKNS0_8ResponseEEEEb",
            "__ZN5realm12query_parser11SyntaxErrorD0Ev",
            "__ZN5realm17NotificationToken13suppress_nextEv",
            "__ZN5realm12object_store3SetC1EOS1_",
            "__ZN5realm4sync18InstructionApplierclERKNS0_5instr8AddTableE",
            "__ZNK5realm5Table25validate_column_is_uniqueENS_6ColKeyE",
            "__ZN5realm2DB4openERNS_11ReplicationENS_9DBOptionsE",
            "__ZN5realm5Array3setEmx",
            "__ZN5realm11StringIndex10set_targetERKNS_13ClusterColumnE",
            "___bid64qd_add",
            "__ZN5realm4bson17RegularExpressionC2ENSt3__112basic_stringIcNS2_11char_traitsIcEENS2_9allocatorIcEEEERKS8_",
            "__Z29RLMObjectAddNotificationBlockP13RLMObjectBaseU13block_pointerFvbP7NSArrayIP17RLMPropertyChangeEP7NSErrorEPS1_IP8NSStringEPU28objcproto17OS_dispatch_queue8NSObject",
            "__ZN5realm4sync14SessionWrapper17on_flx_sync_errorExNSt3__117basic_string_viewIcNS2_11char_traitsIcEEEE",
            "__ZN5realm11SyncSession25update_subscription_storeEb",
            "__ZN5realm11SyncSession14handle_refreshERKNSt3__110shared_ptrIS0_EEb",
            "__ZNK5realm14ArrayTimestamp10find_firstINS_9LessEqualEEEmNS_9TimestampEmm",
            "__ZN5realm4List10get_objectEm",
            "__ZN5realm4sync9websocket6Socket17async_write_closeEPKcmNS_4util14UniqueFunctionIFvvEEE",
            "__ZN5realm5Query2OrEv",
            "__ZN5realm4sync7network7Service10Descriptor18add_initiated_operENSt3__110unique_ptrINS2_6IoOperENS2_18LendersOperDeleterEEENS2_4WantE",
            "__ZNK5realm12object_store3Set10intersectsERKNS0_10CollectionE",
            "__ZN5realm19SyncMetadataManager10open_realmEbb",
            "__ZNK5realm4List7get_anyEm",
            "_RLMGetSwiftPropertyDoubleOptional",
            "__ZNK5realm4ListeqERKS0_",
            "__ZNK5realm4util10AESCryptor10check_hmacEPKvmRKNSt3__15arrayIhLm28EEE",
            "___bid64_from_int32",
            "__ZN5realm12RuntimeErrorC1ENS_10ErrorCodes5ErrorENSt3__117basic_string_viewIcNS3_11char_traitsIcEEEE",
            "__ZN5realm4sync9websocket19http_error_categoryEv",
            "__ZN5realm4sync10ClientImpl10Connection23handle_message_receivedENS_4util4SpanIKcLm18446744073709551615EEE",
            "__ZN5realm10converters24InterRealmValueConverter10copy_valueERKNS_3ObjERS2_Pb",
            "__ZN5realm5Group18update_num_objectsEv",
            "__ZN5realm7ColumnsINS_10DictionaryEE3keyERKNS_5MixedE",
            "__ZN5realm5QueryD2Ev",
            "__ZN5realm4sync15SyncReplication13insert_columnEPKNS_5TableENS_6ColKeyENS_8DataTypeENS_10StringDataEPS2_",
            "__ZNK5realm9SlabAlloc20translate_memory_posEm",
            "__ZN5realm17QueryStateFindAllINS_13IntegerColumnEE5matchEmNS_5MixedE",
            "__ZN5realm4sync10ClientImpl17remove_connectionERNS1_10ConnectionE",
            "__ZN5realm4util22DispatchQueueSchedulerD0Ev",
            "__ZN5realm4sync15SubscriptionSetC1ENSt3__18weak_ptrIKNS0_17SubscriptionStoreEEERKNS_11TransactionENS_3ObjENS_4util10TaggedBoolINS0_20MakingMutableCopyTagEEE",
            "__ZN5realm5_impl12ListNotifier6attachERKNS_14CollectionBaseE",
            "__ZNK5realm4util9Printable3strEv",
            "__ZNK5realm5_impl18CollectionNotifier22any_callbacks_filteredEv",
            "__ZN5realm4sync16ChangesetEncoder13encode_singleERKNS0_9ChangesetE",
            "__ZN5realm4sync7network3ssl6Stream16do_ssl_handshakeEv",
            "__ZN5realm11Transaction19upgrade_file_formatEi",
            "__ZN5realm4util32file_path_by_appending_extensionERKNSt3__112basic_stringIcNS1_11char_traitsIcEENS1_9allocatorIcEEEES9_",
            "__ZNK5realm9SlabAlloc28get_file_path_for_assertionsEv",
            "__ZN5realm11SyncSession26register_progress_notifierEONSt3__18functionIFvyyEEENS_5_impl20SyncProgressNotifier12NotifierTypeEb",
            "__ZN5realm4sync10ClientImpl7Session15call_debug_hookERKNS_18SyncClientHookDataE",
            "__ZNK5realm4bson4BsonneERKS1_",
            "__ZThn8_N5realm7ColumnsINS_10DictionaryEE4sizeEv",
            "__ZN5realm12ObjectSchemaC1ERKNS_5GroupENS_10StringDataENS_8TableKeyE",
            "__ZN5realm9SlabAlloc26consolidate_free_read_onlyEv",
            "__ZN5realm16SyncUserMetadata14set_identitiesENSt3__16vectorINS_16SyncUserIdentityENS1_9allocatorIS3_EEEE",
            "__ZN5realm5Group16advance_transactEmPNS_4util11InputStreamEb",
            "__ZN5realm11Transaction6freezeEv",
            "__ZN5realm11TransactionC2ENSt3__110shared_ptrINS_2DBEEEPNS_9SlabAllocERNS3_12ReadLockInfoENS3_13TransactStageE",
            "__ZN5realm5_impl14ObjectNotifierC1ENSt3__110shared_ptrINS_5RealmEEENS_8TableKeyENS_6ObjKeyE",
            "__ZN5realm11NotNullableD1Ev",
            "__ZN5realm11SyncSession27existing_external_referenceEv",
            "__ZN5realm2DB18async_sync_to_diskENS_4util14UniqueFunctionIFvvEEE",
            "___bid32_from_int64",
            "__ZNK5realm5Table13get_object_idENS_6ObjKeyE",
            "__ZN5realm4util20EncryptedFileMapping17reclaim_untouchedERmS2_",
            "__ZN5realm3LstINS_7ObjLinkEE6do_setEmS1_",
            "__ZN5realm5Table10add_columnENS_8DataTypeENS_10StringDataEb",
            "__ZN5realm5Query4lessENS_6ColKeyEf",
            "__ZN5realm14ExpressionNode13table_changedEv",
            "__ZN5realm4sync13ClientHistory18update_from_parentEy",
            "_RLMGetCachedRealm",
            "__ZNK5realm5Table13find_all_nullENS_6ColKeyE",
            "__ZNK5realm6LnkSet21is_strict_superset_ofERKNS_14CollectionBaseE",
            "__ZN5realm4util20MemoryInputStreambuf9pbackfailEi",
            "__ZN5realm3app14AppCredentials6googleEONS_4util12TaggedStringINS0_10IdTokenTagEEE",
            "__ZNK5realm10Dictionary4sizeEv",
            "__ZNK5realm7metrics9QueryInfo14get_table_nameEv",
            "__ZN5realm4util20EncryptedFileMapping8validateEv",
            "__ZN5realm8Subexpr2INS_10BinaryDataEE5equalES1_b",
            "__ZN5realm5QueryC2ENS_13ConstTableRefEONSt3__110unique_ptrINS_7ObjListENS2_14default_deleteIS4_EEEE",
            "__ZNK5realm8IndexSet8containsEm",
            "__ZN5realm11ArrayBinary3addENS_10BinaryDataE",
            "__Z25RLMUnmanagedFastEnumerateP11objc_objectP22NSFastEnumerationState",
            "__ZNK5realm5_impl12client_reset11ListTracker20requires_manual_copyEv",
            "__ZN5realm20CrossTableLinkTargetD2Ev",
            "_RLMGetSwiftPropertyObject",
            "__ZN5realm5_impl12client_reset25perform_client_reset_diffENSt3__110shared_ptrINS_2DBEEES5_NS_4sync15SaltedFileIdentERNS_4util6LoggerENS_16ClientResyncModeEbPbPNS6_17SubscriptionStoreENS8_14UniqueFunctionIFvxEEE",
            "__ZN5realm4sync18InstructionApplierclERKNS0_5instr11ArrayInsertE",
            "__ZNK5realm12object_store10Collection3minENS_6ColKeyE",
            "__ZN5realm4util11hmac_sha256ENS0_4SpanIKhLm18446744073709551615EEENS1_IhLm32EEENS1_IS2_Lm32EEE",
            "__ZN5realm4util12try_make_dirERKNSt3__112basic_stringIcNS1_11char_traitsIcEENS1_9allocatorIcEEEE",
            "__ZN5realm11Replication10list_clearERKNS_14CollectionBaseE",
            "__ZN5realm13BackupHandler15cleanup_backupsEv",
            "__ZThn64_N5realm7ClusterD0Ev",
            "__ZN5realm16ArrayStringShort5eraseEm",
            "__ZN5realm11SyncSession6resumeEv",
            "__ZN5realm16TableKeyIterator8load_keyEv",
            "__ZN5realm16ArrayStringShort8set_nullEm",
            "__ZNK5realm16ClusterNodeInner8traverseENS_4util11FunctionRefIFNS_15IteratorControlEPKNS_7ClusterEEEEx",
            "__ZN5realm4sync15SyncReplication15emit_class_nameERKNS_5TableE",
            "__ZN5realm7metrics11MetricTimerC2ENSt3__110shared_ptrINS0_17MetricTimerResultEEE",
            "__ZN5realm4List3setINS_3ObjEEEvmT_",
            "__ZN5realm11OutOfBoundsC2ENSt3__117basic_string_viewIcNS1_11char_traitsIcEEEEmm",
            "__ZN5realm4sync7network10SocketBase10set_optionENS2_8opt_enumEPKvmRNSt3__110error_codeE",
            "__ZN5realm11ClusterTree23create_root_from_parentEPNS_11ArrayParentEm",
            "__ZN5realm4util20MemoryInputStreambuf9underflowEv",
            "__ZN5realm4sync7network9host_nameEv",
            "__ZN5realm5_impl16RealmCoordinator15bind_to_contextERNS_5RealmE",
            "__ZN5realm5Table14update_indexesENS_6ObjKeyERKNS_11FieldValuesE",
            "__ZN5realm3app3App13call_functionERKNSt3__110shared_ptrINS_8SyncUserEEERKNS2_12basic_stringIcNS2_11char_traitsIcEENS2_9allocatorIcEEEERKNS2_6vectorINS_4bson4BsonENSB_ISI_EEEERKNS2_8optionalISD_EEONS_4util14UniqueFunctionIFvONSN_ISI_EENSN_INS0_8AppErrorEEEEEE",
            "__ZN5realm4util6Logger16get_level_prefixENS1_5LevelE",
            "__ZNK5realm10Dictionary6do_minEPm",
            "__ZNK5realm6LnkSet19is_strict_subset_ofERKNS_14CollectionBaseE",
            "__ZNK5realm10Dictionary7get_anyEm",
            "_RLMSetAsyncOpenQueue",
            "__ZN5realm3app3App30UsernamePasswordProviderClient14register_emailERKNSt3__112basic_stringIcNS3_11char_traitsIcEENS3_9allocatorIcEEEESB_ONS_4util14UniqueFunctionIFvNS3_8optionalINS0_8AppErrorEEEEEE",
            "__Z26RLMRealmTranslateExceptionPU15__autoreleasingP7NSError",
            "__ZN5realm4bson17holds_alternativeINS0_6MinKeyEEEbRKNS0_4BsonE",
            "__ZN5realm3app15MongoCollection16update_many_bsonERKNS_4bson10IndexedMapINS2_4BsonEEES7_bONS_4util14UniqueFunctionIFvONSt3__18optionalIS4_EENSB_INS0_8AppErrorEEEEEE",
            "__ZN5realm4util9Scheduler12make_runloopEP11__CFRunLoop",
            "__ZN5realm8Subexpr2INS_10BinaryDataEE8containsERKS2_b",
            "__ZN5realm4sync9websocket6Config31websocket_text_message_receivedEPKcm",
            "__ZN18RLMObservationInfo6setRowERKN5realm5TableENS0_6ObjKeyE",
            "__ZN5realm3Obj28create_and_set_linked_objectENS_6ColKeyEb",
            "__ZN5realm5_impl20ExternalCommitHelperD1Ev",
            "__ZN5realm4sync16ChangesetEncoder12append_valueENS0_5instr7Payload4TypeE",
            "__ZN5realm3app14AppCredentialsC2ERKS1_",
            "__ZN5realm5Realm15transaction_refEv",
            "__ZThn24_N5realm3app3App13call_functionERKNSt3__110shared_ptrINS_8SyncUserEEERKNS2_12basic_stringIcNS2_11char_traitsIcEENS2_9allocatorIcEEEERKNS2_6vectorINS_4bson4BsonENSB_ISI_EEEERKNS2_8optionalISD_EEONS_4util14UniqueFunctionIFvONSN_ISI_EENSN_INS0_8AppErrorEEEEEE",
            "__ZN5realm5Query11begins_withENS_6ColKeyENS_10StringDataEb",
            "__ZN5realm10Dictionary7migrateEv",
            "_please_report_this_issue_in_github_realm_realm_core_v_13_15_0",
            "__ZNK5realm3Obj8get_specEv",
            "__ZN5realm4sync7network7Service4stopEv",
            "__ZN5realm7metrics9QueryInfoD1Ev",
            "__ZNK5realm7Results5limitEm",
            "__ZN5realm18DescriptorOrdering6appendEOS0_",
            "__ZN5realm5_impl14ClientProtocol22make_flx_ident_messageERNS_4util43BasicResettableExpandableBufferOutputStreamIcNSt3__111char_traitsIcEENS4_9allocatorIcEEEEyNS_4sync15SaltedFileIdentERKNSB_12SyncProgressExNS4_17basic_string_viewIcS6_EE",
            "__ZN5realm11GroupWriterD0Ev",
            "__ZNK5realm10IndexArray20index_string_all_insENS_10StringDataERNSt3__16vectorINS_6ObjKeyENS2_9allocatorIS4_EEEERKNS_13ClusterColumnE",
            "__ZN5realm15InvalidArgumentC2ENSt3__117basic_string_viewIcNS1_11char_traitsIcEEEE",
            "__ZN5realm2DB10SharedInfoC2ENS_9DBOptions10DurabilityENS_11Replication11HistoryTypeEi",
            "__ZNK5realm9TableView35get_descriptor_ordering_descriptionEv",
            "__ZN5realm4sync10ClientImpl7Session27check_for_upload_completionEv",
            "__ZN5realm5_impl18CollectionNotifier20package_for_deliveryEv",
            "__Z18RLMSetErrorOrThrowP7NSErrorPU15__autoreleasingS0_",
            "__ZNK5realm5Realm22get_number_of_versionsEv",
            "__ZN5realm16ClusterNodeInner4moveEmPNS_11ClusterNodeEx",
            "__ZN5realm11SyncSession37unregister_connection_change_callbackEy",
            "__ZN5realm4sync14SessionWrapper29get_appservices_connection_idEv",
            "__ZN5realm5Table19migrate_column_infoEv",
            "__ZN5realm4util28encryption_note_reader_startERNS0_14SharedFileInfoEPKv",
            "__ZN5realm5Realm13update_schemaENS_6SchemaEyNSt3__18functionIFvNS2_10shared_ptrIS0_EES5_RS1_EEENS3_IFvS5_EEEb",
            "__ZNK5realm3ObjeqERKS0_",
            "__ZN5realm11SyncSession12handle_errorENS_4sync16SessionErrorInfoE",
            "__ZN5realm7Results15IteratorWrapperC1ERKS1_",
            "__ZN12RLMClassInfoC1EP8RLMRealmP15RLMObjectSchemaPKN5realm12ObjectSchemaE",
            "__ZNK5realm3Obj4_getINS_10BinaryDataEEET_NS_6ColKey3IdxE",
            "__ZN5realm2DB11has_changedERNSt3__110shared_ptrINS_11TransactionEEE",
            "__ZN5realm4sync16ChangesetEncoderclERKNS0_5instr9SetInsertE",
            "__ZN5realm9SlabAlloc23init_mapping_managementEy",
            "__ZN5realm11SyncSession16handle_reconnectEv",
            "__ZN5realm4sync9websocket30get_simplified_websocket_errorENS1_14WebSocketErrorE",
            "__ZN5realm11StringIndex5clearEv",
            "__ZN5realm4sync18InstructionApplier12PathResolverD2Ev",
            "__ZN5realm4sync7network3ssl7Context11ssl_destroyEv",
            "__ZN5realm5_impl18CollectionNotifier24add_required_change_infoERNS0_21TransactionChangeInfoE",
            "__ZN5realm7Results15IteratorWrapperaSERKS1_",
            "__ZNK5realm13ArrayBigBlobs5countENS_10BinaryDataEbmm",
            "__ZN5realm4sync7network7Service9IoReactor8add_operERNS2_10DescriptorENSt3__110unique_ptrINS2_6IoOperENS2_18LendersOperDeleterEEENS2_4WantE",
            "__ZN5realm6LnkSet22remove_all_target_rowsEv",
            "__ZNK5realm5_impl18CollectionNotifier12is_for_realmERNS_5RealmE",
            "__ZN5realm5_impl12ListNotifierC2ENSt3__110shared_ptrINS_5RealmEEERKNS_14CollectionBaseENS_12PropertyTypeE",
            "__ZN5realm8SyncUser10invalidateEv",
            "__ZN5realm5Realm37schema_change_needs_write_transactionERNS_6SchemaERNSt3__16vectorINS_12SchemaChangeENS3_9allocatorIS5_EEEEy",
            "__ZN5realm6ObjectC1ERKNSt3__110shared_ptrINS_5RealmEEENS_10StringDataEm",
            "__ZNK5realm16ArrayStringShort7is_nullEm",
            "__ZN5realm3app3App7log_outEONS_4util14UniqueFunctionIFvNSt3__18optionalINS0_8AppErrorEEEEEE",
            "__ZN5realm3app3App14get_cached_appERKNSt3__112basic_stringIcNS2_11char_traitsIcEENS2_9allocatorIcEEEERKNS2_8optionalIS8_EE",
            "__ZN5realm11GroupWriterC2ERNS_5GroupENS_9DBOptions10DurabilityEPNS_4util11WriteMarkerE",
            "__ZN5realm6SchemaC2ESt16initializer_listINS_12ObjectSchemaEE",
            "__ZN5realm8Subexpr2INS_5MixedEE8containsES1_b",
            "__ZN5realm11Transaction27commit_and_continue_writingEv",
            "__ZN5realm14BaseDescriptor6Sorter18cache_first_columnERNS0_10IndexPairsE",
            "__ZN5realm6SchemaC2EOS0_",
            "__ZN5realm10DictionaryC2ERKNS_3ObjENS_6ColKeyE",
            "__ZN5realm4sync22parse_remote_changesetERKNS0_11Transformer15RemoteChangesetERNS0_9ChangesetE",
            "__ZN5realm5QueryntEv",
            "__Z12RLMExceptionP8NSStringz",
            "__ZN5realm6SchemaC2Ev",
            "__ZN5realm4sync7network6Socket8shutdownENS2_13shutdown_typeERNSt3__110error_codeE",
            "__ZN5realm4util4File10parent_dirERKNSt3__112basic_stringIcNS2_11char_traitsIcEENS2_9allocatorIcEEEE",
            "__ZNK5realm3Obj3getINS_10GeospatialEEET_NS_6ColKeyE",
            "__ZNK12RLMClassInfo9isDynamicEv",
            "__ZN5realm11SyncSession18do_restart_sessionENS_4util17CheckedUniqueLockE",
            "__ZN5realm4util10AESCryptor4readEixPcmPNS0_13WriteObserverE",
            "__ZN5realm5Query9size_lessENS_6ColKeyEx",
            "__ZNK5realm4sync7network28SecureTransportErrorCategory4nameEv",
            "__ZN5realm4sync13ClientHistory20do_trim_sync_historyEm",
            "__ZN5realm7Results24evaluate_query_if_neededEb",
            "__ZNK5realm12object_store10Collection17record_audit_readERKNS_3ObjE",
            "__ZN18RLMObservationInfo22prepareForInvalidationEv",
            "__ZN5realm6SchemaaSERKS0_",
            "__ZN5realm19murmur2_or_cityhashEPKhm",
            "__ZN5realm4Spec18update_from_parentEv",
            "__ZN5realm4sync16ChangesetEncoder5resetEv",
            "__ZN5realm5_impl12client_reset29RecoverLocalChangesetsHandlerC2ERNS_11TransactionES4_RNS_4util6LoggerE",
            "__ZN5realm11Transaction22initialize_replicationEv",
            "__ZN5realm4util20EncryptedFileMapping13write_barrierEPKvm",
            "__ZNK5realm5Table14get_class_nameEv",
            "__ZN5realm5Query9and_queryERKS0_",
            "__ZN5realm3app3App15make_sync_routeERKNSt3__112basic_stringIcNS2_11char_traitsIcEENS2_9allocatorIcEEEE",
            "__ZN5realm11Replication17history_type_nameEi",
            "__ZNK5realm4sync17SubscriptionStore18supercede_prior_toENSt3__110shared_ptrINS_11TransactionEEEx",
            "__ZN5realm5_impl20ClientResetOperation8finalizeENS_4sync15SaltedFileIdentEPNS2_17SubscriptionStoreENS_4util14UniqueFunctionIFvxEEE",
            "__ZN5realm5_impl12client_reset29RecoverLocalChangesetsHandler37copy_lists_with_unrecoverable_changesEv",
            "__ZNK5realm10Decimal128leERKS0_",
            "__ZN5realm12query_parser17InvalidQueryErrorD2Ev",
            "__ZN5realm4sync10ClientImpl7Session23cancel_resumption_delayEv",
            "__ZN5realm5Group12remove_tableEmNS_8TableKeyE",
            "__ZNK5realm5_impl16RealmCoordinator17get_cached_schemaERNS_6SchemaERyS4_",
            "__ZN5realm4sync10ClientImpl7Session8activateEv",
            "__ZN5realm4sync13ClientHistory6ArraysC2ERNS_9AllocatorERNS_5GroupEm",
            "__ZN5realm4sync15SyncReplication11list_insertERKNS_14CollectionBaseEmNS_5MixedEm",
            "__ZN5realm4sync15SyncReplication10list_clearERKNS_14CollectionBaseE",
            "__ZN5realm4sync15SyncReplication12erase_columnEPKNS_5TableENS_6ColKeyE",
            "__ZNK5realm12object_store10Dictionary8find_anyENS_5MixedE",
            "__ZN5realm5QueryC2ERKS0_",
            "_RLMSetSwiftPropertyFloat",
            "__ZN5realm4util7CondVar16attr_init_failedEi",
            "__ZN5realm5Query7greaterENS_6ColKeyES1_",
            "__ZNK5realm5Table15find_first_boolENS_6ColKeyEb",
            "__ZN5realm4util11compression22decompress_nonportableERNS0_11InputStreamERNS0_12AppendBufferIcEE",
            "__ZN5realm5_impl14ClientProtocol23make_json_error_messageERNS_4util43BasicResettableExpandableBufferOutputStreamIcNSt3__111char_traitsIcEENS4_9allocatorIcEEEEyiNS4_17basic_string_viewIcS6_EE",
            "__ZNK5realm5Query8find_allEm",
            "__ZN5realm3app10PushClientD2Ev",
            "__ZN5realm8Subexpr2INS_5MixedEE5equalERKS2_b",
            "__ZNK5realm12object_store3Set9get_queryEv",
            "__ZN5realm4util11hmac_sha224ENS0_4SpanIKhLm18446744073709551615EEENS1_IhLm28EEENS1_IS2_Lm32EEE",
            "__ZN5realm4sync16ChangesetEncoderclERKNS0_5instr8AddTableE",
            "__ZN5realm5_impl16RealmCoordinator16clear_all_cachesEv",
            "__ZN5realm11SyncManager14set_user_agentENSt3__112basic_stringIcNS1_11char_traitsIcEENS1_9allocatorIcEEEE",
            "__ZN5realm25ModifyPrimaryKeyExceptionC2ERKNSt3__112basic_stringIcNS1_11char_traitsIcEENS1_9allocatorIcEEEES9_",
            "__ZN5realm4util11compression14compress_boundEm",
            "__ZN5realm5QueryC1Ev",
            "__ZNK5realm15SyncFileManager26legacy_local_identity_pathERKNSt3__112basic_stringIcNS1_11char_traitsIcEENS1_9allocatorIcEEEES9_",
            "___bid64dq_add",
            "__ZN5realm3app3App15provider_clientINS1_24UserAPIKeyProviderClientEEET_v",
            "__ZN5realm4util16RunLoopSchedulerD2Ev",
            "__ZN5realm4util9BacktraceaSERKS1_",
            "__ZN5realm4util9SchedulerD2Ev",
            "__ZN5realm4sync32SyncMetadataSchemaVersionsReaderC1ERKNSt3__110shared_ptrINS_11TransactionEEE",
            "__ZN5realm16TableKeyIteratorppEv",
            "__ZN5realm2DB14close_internalENSt3__111unique_lockINS_4util17InterprocessMutexEEEb",
            "__ZNK5realm12object_store3Set21is_strict_superset_ofERKNS0_10CollectionE",
            "__ZN5realm11ClusterTree8Iterator2goEm",
            "__ZN5realm4sync14SessionWrapper28on_flx_sync_version_completeEx",
            "__ZN5realm10Decimal128C1Ey",
            "__ZN18RLMObservationInfo14removeObserverEv",
            "__ZN5realm4util14try_remove_dirERKNSt3__112basic_stringIcNS1_11char_traitsIcEENS1_9allocatorIcEEEE",
            "__ZN5realm4sync16ChangesetEncoderclERKNS0_5instr10AddIntegerE",
            "__ZN5realm13ArrayBigBlobs6insertEmNS_10BinaryDataEb",
            "__ZN5realm4util12PrefixLogger6do_logENS0_6Logger5LevelERKNSt3__112basic_stringIcNS4_11char_traitsIcEENS4_9allocatorIcEEEE",
            "__ZNK5realm5Table10find_firstINSt3__18optionalIdEEEENS_6ObjKeyENS_6ColKeyET_",
            "__ZN5realm11TypeOfValueC2Ex",
            "__ZNK5realm10Dictionary11do_find_keyENS_5MixedE",
            "__ZN5realm10Decimal128C2ENS_10StringDataE",
            "__ZN5realm11ArrayString5eraseEm",
            "__ZNK5realm12ArrayIntNull8find_allEPNS_13IntegerColumnENSt3__18optionalIxEEmmm",
            "__ZN5realm16SectionedResults4copyEONS_7ResultsE",
            "__ZNK5realm4sync8FieldSet8containsENS_10StringDataES2_RKN5mpark7variantIJNS3_9monostateExS2_NS_9GlobalKeyENS_8ObjectIdENS_4UUIDEEEE",
            "__ZNK5realm6Schema4findERKNS_12ObjectSchemaE",
            "__ZN5realm5_impl19ListResultsNotifier16get_list_indicesERNSt3__18optionalINS2_6vectorImNS2_9allocatorImEEEEEE",
            "__ZN5realm10Decimal128C1ENS_10StringDataE",
            "__ZN5realm5_impl18CollectionNotifier12add_callbackENS_24CollectionChangeCallbackENSt3__18optionalINS3_6vectorINS5_INS3_4pairINS_8TableKeyENS_6ColKeyEEENS3_9allocatorIS9_EEEENSA_ISC_EEEEEE",
            "__ZN5realm5Query9not_equalENS_6ColKeyEf",
            "__ZN5realm4synclsERNSt3__113basic_ostreamIcNS1_11char_traitsIcEEEENS_10SyncConfig11ProxyConfig4TypeE",
            "__ZNK5realm12object_store3Set4findINS_3ObjEEEmRKT_",
            "__ZN5realm3app14AppCredentialsC2ENS0_12AuthProviderESt16initializer_listINSt3__14pairIPKcNS_4bson4BsonEEEE",
            "__ZN5realm3app15MongoCollection19find_one_and_updateERKNS_4bson10IndexedMapINS2_4BsonEEES7_RKNS1_23FindOneAndModifyOptionsEONS_4util14UniqueFunctionIFvONSt3__18optionalIS5_EENSE_INS0_8AppErrorEEEEEE",
            "__ZN5realm3app3App20refresh_access_tokenERKNSt3__110shared_ptrINS_8SyncUserEEEbONS_4util14UniqueFunctionIFvNS2_8optionalINS0_8AppErrorEEEEEE",
            "__ZN5realm5_impl12client_reset29RecoverLocalChangesetsHandler16RecoveryResolver21on_list_index_advanceEj",
            "__ZN5realm4sync7network3ssl6Stream23ssl_use_verify_callbackERKNSt3__18functionIFbRKNS4_12basic_stringIcNS4_11char_traitsIcEENS4_9allocatorIcEEEEtPKcmiiEEERNS4_10error_codeE",
            "__ZN5realm10ArrayMixed3addENS_5MixedE",
            "__ZThn128_NK5realm12ArrayIntNull7get_anyEm",
            "__ZNK5realm10Decimal1286to_intERx",
            "__ZN5realm4util7CondVarC2ENS1_18process_shared_tagE",
            "__ZN5realm19SyncMetadataManagerC1ENSt3__112basic_stringIcNS1_11char_traitsIcEENS1_9allocatorIcEEEEbNS1_8optionalINS1_6vectorIcS6_EEEE",
            "__Z21RLMRequestFromRequestRKN5realm3app7RequestE",
            "__ZN5realm19ThreadSafeReference7Payload20refresh_target_realmERNS_5RealmE",
            "_RLMGetSwiftPropertyFloatOptional",
            "__ZN5realm12ObjectSchemaD1Ev",
            "__ZN5realm4sync15SyncReplication9add_classENS_8TableKeyENS_10StringDataENS_5Table4TypeE",
            "__ZN5realm5Query5equalENS_6ColKeyENS_8ObjectIdE",
            "__ZN5realm5_impl15NotifierPackage14before_advanceEv",
            "__ZN5realm5Realm10reset_fileERNS_6SchemaERNSt3__16vectorINS_12SchemaChangeENS3_9allocatorIS5_EEEE",
            "__ZN5realm4util4File5writeEPKcm",
            "__ZN5realm3app11WatchStream20advance_buffer_stateEv",
            "__ZN5realm7metrics11MetricTimer6formatEx",
            "__ZN5realm14ArrayTimestamp6createEv",
            "__ZN5realm5_impl15TransformerImpl27transform_remote_changesetsERNS_4sync16TransformHistoryEyyNS_4util4SpanINS2_9ChangesetELm18446744073709551615EEENS5_14UniqueFunctionIFbPKS7_EEERNS5_6LoggerE",
            "__ZN5realm5_impl16RealmCoordinator16advance_to_readyERNS_5RealmE",
            "__ZN5realm7Results8index_ofINS_3ObjEEEmRKT_",
            "__ZN5realm5Realm10set_schemaERKNS_6SchemaES1_",
            "__ZN5realm7Cluster19ensure_general_formEv",
            "__ZNK5realm10Decimal1287compareERKS0_",
            "__ZNK5realm10Decimal128dvEm",
            "__ZN5realm6LnkLst17remove_target_rowEm",
            "__ZN5realm9TokenizerD0Ev",
            "__ZN5realm5_impl11transaction5beginERKNSt3__110shared_ptrINS_11TransactionEEEPNS_14BindingContextEONS0_15NotifierPackageE",
            "__ZN5realm11ArrayBinary6insertEmNS_10BinaryDataE",
            "__ZN5realm12object_store3Set10insert_anyENS_5MixedE",
            "__ZN5realm11ArrayString6detachEv",
            "__ZN5realm11SyncSession17shutdown_and_waitEv",
            "__ZN5realm25ReadOnlyPropertyExceptionC1ERKNSt3__112basic_stringIcNS1_11char_traitsIcEENS1_9allocatorIcEEEES9_",
            "__ZNK5realm11SyncManager27get_existing_session_lockedERKNSt3__112basic_stringIcNS1_11char_traitsIcEENS1_9allocatorIcEEEE",
            "__ZNK5realm4sync13ClientHistory26sum_of_history_entry_sizesEyy",
            "__ZN5realm5_impl16RealmCoordinator16get_cached_realmERKNS_11RealmConfigENSt3__110shared_ptrINS_4util9SchedulerEEE",
            "__ZN5realm4sync9websocket6Config33websocket_binary_message_receivedEPKcm",
            "__ZN5realm4util4File7MapBase11try_reserveERKS1_NS1_10AccessModeEmmPNS0_13WriteObserverE",
            "__ZN5realm5Query18handle_pending_notEv",
            "__ZN5realm5Query7betweenENS_6ColKeyEdd",
            "__ZN5realm4sync10ClientImpl47wait_for_session_terminations_or_client_stoppedEv",
            "__ZNK5realm4util4File3mapENS1_10AccessModeEmRPNS0_20EncryptedFileMappingEim",
            "__ZNK12RLMClassInfo12isSwiftClassEv",
            "__ZN5realm6SchemaC1EOS0_",
            "__ZNK5realm4util4File8get_pathEv",
            "_RLMInitializeSwiftAccessor",
            "__ZN5realm10Decimal128C1ENS0_5Bid64E",
            "__ZN5realm13BPlusTreeBase20create_root_from_refEm",
            "__ZN5realm4sync18InstructionApplier12PathResolver17on_column_advanceENS_6ColKeyE",
            "__ZN5realm11GroupWriter9MapWindow4syncEv",
            "__ZN5realm5Query5equalENS_6ColKeyENS_10StringDataEb",
            "__ZN5realm4sync15SyncReplication8list_setERKNS_14CollectionBaseEmNS_5MixedE",
            "__ZN5realm20PropertyTypeMismatchD2Ev",
            "__ZNK5realm7Cluster7get_ndxENS_6ObjKeyEm",
            "__ZN5realm4util10serializer18SerialisationState16describe_columnsERKNS_7LinkMapENS_6ColKeyE",
            "__ZN5realm5Query9not_equalENS_6ColKeyEd",
            "__ZN5realm10Dictionary31create_and_insert_linked_objectENS_5MixedE",
            "__ZN5realm6ObjectC2ERKNSt3__110shared_ptrINS_5RealmEEENS_10StringDataENS_6ObjKeyE",
            "__ZN5realm3ObjC1ENS_8TableRefENS_6MemRefENS_6ObjKeyEm",
            "__ZN5realm4sync9websocket15make_error_codeENS1_14WebSocketErrorE",
            "__ZN5realm4sync14HTTPParserBase17parse_header_lineEm",
            "__ZNK5realm14BPlusTreeInner6verifyEv",
            "__ZN5realm5Table24has_any_embedded_objectsEv",
            "__ZN5realm3app14AppCredentials5appleENSt3__112basic_stringIcNS2_11char_traitsIcEENS2_9allocatorIcEEEE",
            "__ZNK5realm8SyncUser29access_token_refresh_requiredEv",
            "__ZN5realm3LstINS_5MixedEE8do_clearEv",
            "__ZN5realm4util19InterprocessCondVar4waitERNS0_17InterprocessMutexEPK8timespec",
            "__ZNK5realm6Object6freezeENSt3__110shared_ptrINS_5RealmEEE",
            "__ZN5realm16search_case_foldENS_10StringDataEPKcS2_m",
            "__ZNK5realm5Table20find_opposite_columnENS_6ColKeyE",
            "__ZN5realm5Realm18cancel_transactionEv",
            "__ZN5realm16ClusterNodeInner13insert_columnENS_6ColKeyE",
            "__ZN5realm11SyncSession25create_subscription_storeEv",
            "__ZN5realm2DB22release_all_read_locksEv",
            "__ZN5realm5Query5equalENS_6ColKeyES1_",
            "__ZN5realm4bson17holds_alternativeIiEEbRKNS0_4BsonE",
            "__ZN5realm5Group26get_history_schema_versionEv",
            "__ZN5realm7metrics17MetricTimerResultC2Ev",
            "__ZN5realm4util4File15last_write_timeERKNSt3__112basic_stringIcNS2_11char_traitsIcEENS2_9allocatorIcEEEE",
            "__ZN5realm4sync7network8Resolver13initiate_operENSt3__110unique_ptrINS1_7Service15ResolveOperBaseENS5_18LendersOperDeleterEEE",
            "__ZThn8_N5realm10DictionaryD1Ev",
            "__ZN5realm5_impl18TransactLogEncoder12select_tableENS_8TableKeyE",
            "__ZN5realm36InvalidReadOnlySchemaChangeExceptionC2ERKNSt3__16vectorINS_31ObjectSchemaValidationExceptionENS1_9allocatorIS3_EEEE",
            "__ZN5realm4util4File8for_eachERKNSt3__112basic_stringIcNS2_11char_traitsIcEENS2_9allocatorIcEEEENS0_11FunctionRefIFbSA_SA_EEE",
            "__ZN5realm15InvalidArgumentC1ENSt3__117basic_string_viewIcNS1_11char_traitsIcEEEE",
            "__ZN5realm8Subexpr2INS_10StringDataEE11begins_withES1_b",
            "__ZN5realm11GroupWriter9MapWindow24encryption_write_barrierEPvm",
            "__ZNK5realm15ObjectChangeSet18deletions_containsENS_6ObjKeyE",
            "__ZN5realm7Cluster4initENS_6MemRefE",
            "__ZN5realm2DB6createERNS_11ReplicationERKNSt3__112basic_stringIcNS3_11char_traitsIcEENS3_9allocatorIcEEEERKNS_9DBOptionsE",
            "__ZN5realm5_impl12client_reset29RecoverLocalChangesetsHandler16RecoveryResolver17on_column_advanceENS_6ColKeyE",
            "__ZN5realm4util5error27basic_system_error_categoryEv",
            "___bid64qq_mul",
            "__ZN5realm4sync9websocket21DefaultSocketProviderD0Ev",
            "_RLMRealmRefreshAsync",
            "__ZN5realm7Cluster4moveEmPNS_11ClusterNodeEx",
            "__ZNK5realm10Decimal1287is_nullEv",
            "__ZN5realm5_impl16RealmCoordinatorC2Ev",
            "__ZN5realm10murmur2_32EPKhm",
            "__ZN5realm12RuntimeErrorD2Ev",
            "__ZN5realm4sync10ClientImpl7Session21receive_error_messageERKNS0_17ProtocolErrorInfoE",
            "_RLMDynamicGetByName",
            "__ZN5realm11Transaction27commit_and_continue_as_readEb",
            "__ZN5realm11SyncSession20update_configurationENS_10SyncConfigE",
            "__ZN5realm4util22DispatchQueueSchedulerC2EP16dispatch_queue_s",
            "__ZN5realm11LinksToNodeINS_8NotEqualEE16find_first_localEmm",
            "__ZNK5realm12object_store3Set19is_strict_subset_ofERKNS0_10CollectionE",
            "__ZN5realm6SchemaC1ERKS0_",
            "__ZN5realm4util20EncryptedFileMappingC1ERNS0_14SharedFileInfoEmPvmNS0_4File10AccessModeEPNS0_13WriteObserverEPNS0_11WriteMarkerE",
            "__ZN18RLMObservationInfo14recordObserverERN5realm3ObjEP12RLMClassInfoP15RLMObjectSchemaP8NSString",
            "__ZN5realm5_impl15ResultsNotifier19do_prepare_handoverERNS_11TransactionE",
            "__ZN5realm4sync15SyncReplication7add_intEPKNS_5TableENS_6ColKeyENS_6ObjKeyEx",
            "_RLMAddNotificationBlock",
            "__ZNK5realm13ConstTableRefdeEv",
            "__ZN5realm11SyncManager16set_current_userERKNSt3__112basic_stringIcNS1_11char_traitsIcEENS1_9allocatorIcEEEE",
            "__ZNK5realm10Geospatial8get_typeEv",
            "__ZN5realm6SchemaC1Ev",
            "__ZNK5realm10IndexArray23index_string_find_firstENS_5MixedERKNS_13ClusterColumnE",
            "__ZN5realm16DefaultTokenizer4nextEv",
            "__ZN5realm5_impl25check_for_last_unresolvedEPNS_9BPlusTreeINS_6ObjKeyEEE",
            "__ZN5realm12object_store10Dictionary15insert_embeddedENS_10StringDataE",
            "__ZN5realm11LinksToNodeINS_5EqualEE16find_first_localEmm",
            "__ZN5realm7metrics7Metrics20end_read_transactionEmmmmm",
            "__ZNK5realm11SyncManager27get_existing_active_sessionERKNSt3__112basic_stringIcNS1_11char_traitsIcEENS1_9allocatorIcEEEE",
            "__ZNK5realm4sync15SubscriptionSet16snapshot_versionEv",
            "__ZNK5realm14ResultsSectionixEm",
            "__ZN5realm10ArrayMixed4moveERS0_m",
            "__ZN5realm4sync16ChangesetEncoder12append_valueENS_8DataTypeE",
            "__ZN5realm4sync22MutableSubscriptionSet21insert_or_assign_implENSt3__111__wrap_iterIPKNS0_12SubscriptionEEENS2_8optionalINS2_12basic_stringIcNS2_11char_traitsIcEENS2_9allocatorIcEEEEEESE_SE_",
            "__ZN5realm4sync9websocket21DefaultSocketProvider14state_wait_forERNSt3__111unique_lockINS3_5mutexEEENS2_5StateE",
            "__ZNK5realm4sync15SubscriptionSet11to_ext_jsonEv",
            "__ZN5realm16ClusterNodeInner23adjust_keys_first_childEx",
            "__ZN5realm5Realm16cache_new_schemaEv",
            "__ZN5realm4List10insert_anyEmNS_5MixedE",
            "__ZN5realm3app3App9configureERKNS_16SyncClientConfigE",
            "__ZN5realm4util20EncryptedFileMapping23mark_pages_for_IV_checkEv",
            "__ZN5realm7ResultsC2ENSt3__110shared_ptrINS_5RealmEEENS_5QueryENS_18DescriptorOrderingE",
            "__ZN5realm2DB18release_sync_agentEv",
            "__ZNK5realm5Query4initEv",
            "__ZNK5realm4util4File12is_same_fileERKS1_",
            "__ZNK5realm12object_store10DictionaryneERKS1_",
            "__ZN5realm14ResultsSection5indexEv",
            "__ZN5realm4sync13ClientHistory13add_changesetENS_10BinaryDataES2_",
            "__ZN5realm6ObjectD1Ev",
            "__ZN5realm3app15MongoCollection14aggregate_bsonERKNSt3__16vectorINS_4bson4BsonENS2_9allocatorIS5_EEEEONS_4util14UniqueFunctionIFvONS2_8optionalIS5_EENSD_INS0_8AppErrorEEEEEE",
            "__ZNK5realm3app3App12current_userEv",
            "__ZN5realm4util9localtimeEl",
            "__ZNK5realm16ClusterNodeInner12dump_objectsExNSt3__112basic_stringIcNS1_11char_traitsIcEENS1_9allocatorIcEEEE",
            "__ZNK12RLMClassInfo22propertyForTableColumnEN5realm6ColKeyE",
            "__ZNK5realm4Node15calc_item_countEmm",
            "__ZNK5realm5Realm22has_pending_async_workEv",
            "__ZN18RLMObservationInfoD1Ev",
            "_RLMSetSwiftBridgeCallback",
            "__ZNK5realm11ClusterTree13get_table_refEv",
            "__ZN5realm13BPlusTreeBaseD1Ev",
            "__ZNK5realm11ArrayString3getEm",
            "__ZN5realm21AddressSpaceExhaustedD2Ev",
            "__ZN5realm8SyncUser19update_access_tokenEONSt3__112basic_stringIcNS1_11char_traitsIcEENS1_9allocatorIcEEEE",
            "__ZN5realm5Table20free_collision_tableEv",
            "__ZN5realm4sync10ClientImpl10Connection24websocket_closed_handlerEbNS_6StatusE",
            "__ZN5realm5Table17erase_root_columnENS_6ColKeyE",
            "__ZNK5realm11ArrayBinary6get_atEmRm",
            "__ZNK5realm18DescriptorOrdering18will_limit_to_zeroEv",
            "__ZN5realm4sync10ClientImpl7Session21initiate_deactivationEv",
            "___bid_round256_58_76",
            "__ZN5realm7Cluster13insert_columnENS_6ColKeyE",
            "__ZN5realm5GroupC1EPNS_9SlabAllocE",
            "__ZN5realm11SyncManager9all_usersEv",
            "__ZN5realm5Query9not_equalENS_6ColKeyENS_8ObjectIdE",
            "__ZNK5realm3Obj7to_jsonERNSt3__113basic_ostreamIcNS1_11char_traitsIcEEEEmRKNS1_3mapINS1_12basic_stringIcS4_NS1_9allocatorIcEEEESB_NS1_4lessISB_EENS9_INS1_4pairIKSB_SB_EEEEEERNS1_6vectorINS_7ObjLinkENS9_ISM_EEEENS_14JSONOutputModeE",
            "__ZN5realm8ObjectIdC2ENS_9TimestampEii",
            "__ZN5realm12object_store10CollectionC2ENS_12PropertyTypeE",
            "__ZN5realm5Table16add_search_indexENS_6ColKeyENS_9IndexTypeE",
            "__ZN5realm10ParentNode5matchERKNS_3ObjE",
            "__ZN5realm5_impl14ServerProtocol20make_unbound_messageERNS_4util43BasicResettableExpandableBufferOutputStreamIcNSt3__111char_traitsIcEENS4_9allocatorIcEEEEy",
            "__ZN5realm15ArrayDecimal1286insertEmNS_10Decimal128E",
            "__ZNK5realm5Array15lower_bound_intEx",
            "__ZN5realm7ClusterD0Ev",
            "__ZNK5realm15LimitDescriptor7executeERNS_14BaseDescriptor10IndexPairsERKNS1_6SorterEPKS1_",
            "__ZN5realm5Query5equalENS_6ColKeyEd",
            "__ZN5realm5Query5equalENS_6ColKeyENS_4nullE",
            "_RLMGetSwiftPropertyUUID",
            "___bid128_from_uint64",
            "__ZN5realm4sync18InstructionApplierclERKNS0_5instr9ArrayMoveE",
            "__ZN5realm4sync19parse_authorizationERKNSt3__112basic_stringIcNS1_11char_traitsIcEENS1_9allocatorIcEEEE",
            "__ZN5realm5_impl20ExternalCommitHelper13notify_othersEv",
            "__ZNK5realm5Mixed14export_to_typeINS_10Decimal128EEET_v",
            "__ZNK5realm4sync10ClientImpl10Connection22is_flx_sync_connectionEv",
            "__ZN5realm4sync7network3ssl6Stream11verify_peerEv",
            "__ZN5realm4bson17holds_alternativeIdEEbRKNS0_4BsonE",
            "__ZN5realm4sync7network7Service9IoReactor18advance_active_opsERNS2_9OperQueueINS2_9AsyncOperEEE",
            "__ZN5realm3Obj3setINS_6ObjKeyEEERS0_NS_6ColKeyET_b",
            "__ZN5realm14IndexEvaluator4initEPNS_11StringIndexENS_5MixedE",
            "__ZN5realm3app3App6Config10DeviceInfoC1Ev",
            "__ZN5realm16SyncUserMetadata6removeEv",
            "__ZN5realm4util20EncryptedFileMappingD2Ev",
            "__ZNK12RLMClassInfo11tableColumnEP8NSString",
            "__ZN5realm5Realm5closeEv",
            "__ZNK5realm8SyncUser15do_is_logged_inEv",
            "__ZN5realm3Obj7set_anyENS_6ColKeyENS_5MixedEb",
            "_RLMDynamicGet",
            "__ZN5realm5Realm18commit_transactionEv",
            "__ZNK5realm16ClusterNodeInner3getEmRNS_11ClusterNode5StateE",
            "__ZN5realm7ResultsC2Ev",
            "__ZN5realm4sync10ClientImpl7Session25send_test_command_messageEv",
            "__ZN5realm9TableView5limitENS_15LimitDescriptorE",
            "__ZN5realm4util4File7compareERKNSt3__112basic_stringIcNS2_11char_traitsIcEENS2_9allocatorIcEEEESA_",
            "__ZN5realm5_impl12client_reset29RecoverLocalChangesetsHandler16RecoveryResolver17on_dictionary_keyERNS_10DictionaryENS_5MixedE",
            "__ZN5realm12contains_insENS_10StringDataEPKcS2_mRKNSt3__15arrayIhLm256EEE",
            "__ZN5realm4sync18InstructionApplier12PathResolver8on_errorERKNSt3__112basic_stringIcNS3_11char_traitsIcEENS3_9allocatorIcEEEE",
            "__ZN5realm5Table23validate_primary_columnEv",
            "__ZN5realm19ThreadSafeReferenceC1Ev",
            "__ZNK5realm4util4File9map_fixedENS1_10AccessModeEPvmim",
            "__ZN5realm4util9Scheduler11make_frozenENS_9VersionIDE",
            "__ZN5realm8Subexpr2INS_5MixedEE9not_equalES1_b",
            "__ZN5realm4util9PrintableC1ENS_10StringDataE",
            "__ZN5realm11OutOfBoundsD1Ev",
            "__ZN5realm5Table12find_all_intENS_6ColKeyEx",
            "__ZN5realm4sync22MutableSubscriptionSet5eraseENS_10StringDataE",
            "__ZThn128_NK5realm12ArrayInteger7get_anyEm",
            "__ZN5realm4util11compression10decompressENS0_4SpanIKcLm18446744073709551615EEENS2_IcLm18446744073709551615EEE",
            "__ZN5realm4sync7network7ServiceD2Ev",
            "__ZNK5realm4util4File3mapENS1_10AccessModeEmim",
            "__ZN5realm20DictionaryLinkValuesC2ERKNS_3ObjENS_6ColKeyE",
            "__ZN5realm21AuditObjectSerializer18sort_link_accessesEv",
            "__ZNK5realm14ArrayTimestamp6verifyEv",
            "__ZN5realm11Replication17link_list_nullifyERKNS_3LstINS_6ObjKeyEEEm",
            "__ZN5realm4util22DispatchQueueSchedulerD2Ev",
            "__ZN5realm9TableView12update_queryERKNS_5QueryE",
            "__ZN5realm12query_parser17InvalidQueryErrorD1Ev",
            "__ZN5realm10SyncConfigC1ENSt3__110shared_ptrINS_8SyncUserEEENS_4bson4BsonE",
            "__ZN5realm7NotNode24find_first_overlap_lowerEmm",
            "__ZN5realm3app3App19attach_auth_optionsERNS_4bson10IndexedMapINS2_4BsonEEE",
            "__ZNK5realm5_impl12client_reset15InterningBuffer16get_interned_keyERKNSt3__117basic_string_viewIcNS3_11char_traitsIcEEEE",
            "__ZN5realm4util5error15make_error_codeENS1_11misc_errorsE",
            "__ZNK5realm12object_store10Dictionary8snapshotEv",
            "__ZN5realm7ResultsC1Ev",
            "__ZN5realm4sync22MutableSubscriptionSet21process_notificationsEv",
            "__ZN5realm4sync15make_error_codeENS0_11ClientErrorE",
            "__ZN5realm5_impl12client_reset29RecoverLocalChangesetsHandlerclERKNS_4sync5instr10AddIntegerE",
            "__ZN5realm3app3App30UsernamePasswordProviderClient25resend_confirmation_emailERKNSt3__112basic_stringIcNS3_11char_traitsIcEENS3_9allocatorIcEEEEONS_4util14UniqueFunctionIFvNS3_8optionalINS0_8AppErrorEEEEEE",
            "__ZNK5realm19SyncMetadataManager25make_file_action_metadataENS_10StringDataES1_S1_NS_22SyncFileActionMetadata6ActionES1_",
            "__ZN5realm16ClusterNodeInner16ensure_writeableENS_6ObjKeyE",
            "__ZNK5realm11SyncManager12app_metadataEv",
            "__ZNK5realm4util20MiscExtErrorCategory7messageEi",
            "__ZN5realm4sync10ClientImpl7Session23receive_unbound_messageEv",
            "__ZN5realm4sync16ChangesetEncoder12append_valueENS0_12InternStringE",
            "__ZN5realm7ObjListD1Ev",
            "__ZN5realm4sync16ChangesetEncoder17set_intern_stringEjNS0_17StringBufferRangeE",
            "_RLMAddObjectToRealm",
            "__ZN5realm7NotNode21find_first_no_overlapEmm",
            "__ZN5realm6ObjectC2ERKS0_",
            "___bid128dd_add",
            "_RLMGetObjects",
            "__ZN5realm11TypeOfValueC1ERKNS_5MixedE",
            "__ZN5realm4sync14SessionWrapper27on_connection_state_changedENS0_15ConnectionStateERKNSt3__18optionalINS0_16SessionErrorInfoEEE",
            "__ZN5realm5Table15set_nullabilityENS_6ColKeyEbb",
            "__ZN5realm5Table17set_collision_mapEm",
            "__ZN5realm10Decimal128C2Ey",
            "__ZN5realm11ArrayBinaryC2ERNS_9AllocatorE",
            "__ZN5realm4sync10ClientImpl7Session17on_flx_sync_errorExNSt3__117basic_string_viewIcNS3_11char_traitsIcEEEE",
            "__ZN5realm4sync14HTTPParserBase27parse_first_line_of_requestENS_10StringDataERNS0_10HTTPMethodERS2_",
            "__ZN5realm11Transaction14import_copy_ofERNS_5QueryENS_13PayloadPolicyE",
            "__ZN5realm5_impl16RealmCoordinator15get_coordinatorENS_10StringDataE",
            "__ZN5realm5Query9not_equalENS_6ColKeyEb",
            "__ZN5realm11StringIndex15insert_row_listEmmNS_10StringDataE",
            "__ZN5realm13BPlusTreeLeaf13bptree_insertEmRNS_13BPlusTreeNode5StateENS_4util11FunctionRefIFmPS1_mEEE",
            "__ZN5realm9TableView7do_sortERKNS_18DescriptorOrderingE",
            "__ZNK5realm8SyncUser13refresh_tokenEv",
            "__ZN5realm5Query4lessENS_6ColKeyENS_5MixedE",
            "__ZNK5realm5Realm17is_in_transactionEv",
            "__ZN5realm3app15MongoCollection11insert_manyERKNSt3__16vectorINS_4bson4BsonENS2_9allocatorIS5_EEEEONS_4util14UniqueFunctionIFvOS8_NS2_8optionalINS0_8AppErrorEEEEEE",
            "__ZN5realm4Spec16update_internalsEv",
            "__ZNK5realm22SyncFileActionMetadata15user_local_uuidEv",
            "__ZN5realm11TypeOfValueC2ERKNS_6ColKeyE",
            "__ZN5realm4util4File15get_size_staticEi",
            "__ZNK5realm13ClusterColumn9get_valueENS_6ObjKeyE",
            "__ZN5realm20SortedListComparatorclENS_5MixedEx",
            "__ZN5realm14TableNameInUseD0Ev",
            "__ZN5realm5_impl20ClientResetOperation18get_fresh_path_forERKNSt3__112basic_stringIcNS2_11char_traitsIcEENS2_9allocatorIcEEEE",
            "__ZN5realm4sync14SessionWrapper44wait_for_download_complete_or_client_stoppedEv",
            "__ZN5realm4sync7Session22cancel_reconnect_delayEv",
            "__ZNK5realm13ArrayBigBlobs10find_firstENS_10BinaryDataEbmm",
            "__ZN5realm4util3UriC1ERKNSt3__112basic_stringIcNS2_11char_traitsIcEENS2_9allocatorIcEEEE",
            "__ZN5realm5_impl17DeepChangeCheckerC1ERKNS0_21TransactionChangeInfoERKNS_5TableERKNSt3__16vectorINS1_12RelatedTableENS8_9allocatorISA_EEEERKNS9_INS9_INS8_4pairINS_8TableKeyENS_6ColKeyEEENSB_ISJ_EEEENSB_ISL_EEEEb",
            "__ZN5realm11SyncManager30wait_for_sessions_to_terminateEv",
            "__ZNK5realm4sync17SubscriptionStore17make_mutable_copyERKNS0_15SubscriptionSetE",
            "__ZNK5realm5_impl17WeakRealmNotifier23is_cached_for_schedulerENSt3__110shared_ptrINS_4util9SchedulerEEE",
            "__ZN5realm16SectionedResultsC2ENS_7ResultsENS_4util14UniqueFunctionIFNS_5MixedES4_RKNSt3__110shared_ptrINS_5RealmEEEEEE",
            "__ZN5realm8IndexSet11add_shiftedEm",
            "__ZN5realm3SetINS_7ObjLinkEE8do_eraseEm",
            "__ZNO5realm5_impl23CollectionChangeBuilder8finalizeEv",
            "__ZN5realm4sync10ClientImpl12create_timerENSt3__16chrono8durationIxNS2_5ratioILl1ELl1000EEEEEONS_4util14UniqueFunctionIFvNS_6StatusEEEE",
            "__ZN5realm5Table14create_objectsEmRNSt3__16vectorINS_6ObjKeyENS1_9allocatorIS3_EEEE",
            "__ZN5realm4sync15SubscriptionSet18load_from_databaseENS_3ObjE",
            "__ZN5realm5_impl12client_reset29RecoverLocalChangesetsHandlerD1Ev",
            "__ZN5realm4bson17holds_alternativeINS0_14MongoTimestampEEEbRKNS0_4BsonE",
            "___bid128_to_int64_int",
            "__ZN5realm19ThreadSafeReferenceC2Ev",
            "__ZNK5realm11StringIndex17find_all_fulltextERNSt3__16vectorINS_6ObjKeyENS1_9allocatorIS3_EEEENS_10StringDataE",
            "__ZN5realm11SyncSession29handle_fresh_realm_downloadedENSt3__110shared_ptrINS_2DBEEENS_6StatusENS_4sync17ProtocolErrorInfo6ActionE",
            "__ZN5realm3Obj15colkey2spec_ndxENS_6ColKeyE",
            "__ZN5realm4sync15SyncReplication12select_tableERKNS_5TableE",
            "__ZN5realm5_impl30CollectionKeyPathChangeCheckerC2ERKNS0_21TransactionChangeInfoERKNS_5TableERKNSt3__16vectorINS0_17DeepChangeChecker12RelatedTableENS8_9allocatorISB_EEEERKNS9_INS9_INS8_4pairINS_8TableKeyENS_6ColKeyEEENSC_ISK_EEEENSC_ISM_EEEEb",
            "__Z18RLMGetObservedRowsRK13RLMSchemaInfo",
            "__ZN5realm4sync9websocket27read_sec_websocket_protocolERKNS0_11HTTPRequestE",
            "__ZN5realm11ClusterTreeD0Ev",
            "__ZN5realm5_impl14ClientProtocol25make_test_command_messageERNS_4util43BasicResettableExpandableBufferOutputStreamIcNSt3__111char_traitsIcEENS4_9allocatorIcEEEEyyNS4_17basic_string_viewIcS6_EE",
            "__ZN5realm5Query6createEv",
            "__ZN5realm5Table14create_columnsEv",
            "__ZN5realm5_impl14ClientProtocol21make_flx_bind_messageEiRNS_4util43BasicResettableExpandableBufferOutputStreamIcNSt3__111char_traitsIcEENS4_9allocatorIcEEEEyRKN8nlohmann10basic_jsonINS4_3mapENS4_6vectorENS4_12basic_stringIcS6_S8_EEbxydS7_NSB_14adl_serializerEEERKSG_bb",
            "__ZNK5realm17ColumnsDescriptor20collect_dependenciesEPKNS_5TableERNSt3__16vectorINS_8TableKeyENS4_9allocatorIS6_EEEE",
            "__ZN5realm3SetINS_6ObjKeyEE8do_clearEv",
            "__ZNK5realm3Obj13traverse_pathENS_4util11FunctionRefIFvRKS0_NS_6ColKeyENS_5MixedEEEENS2_IFvmEEEm",
            "__ZN5realm6SchemaD1Ev",
            "__ZNK5realm5Table18get_opposite_tableENS_6ColKeyE",
            "__ZN5realm4util11RobustMutex18mark_as_consistentEv",
            "__ZN5realm4sync7network3ssl7Context22ssl_use_default_verifyERNSt3__110error_codeE",
            "__ZN5realm5Table30create_object_with_primary_keyERKNS_5MixedEONS_11FieldValuesENS0_10UpdateModeEPb",
            "__ZN5realm9ArrayBlob7replaceEmmPKcmb",
            "__ZN5realm14OutOfDiskSpaceD2Ev",
            "__ZN5realm5_impl14ObjectNotifierC2ENSt3__110shared_ptrINS_5RealmEEENS_8TableKeyENS_6ObjKeyE",
            "__ZNK5realm10Geospatial9to_stringEv",
            "__ZNK5realm9TableView3avgENS_6ColKeyEPm",
            "__ZN5realm4bson17holds_alternativeINSt3__16vectorIcNS2_9allocatorIcEEEEEEbRKNS0_4BsonE",
            "__ZN5realm4sync18InstructionApplier12PathResolver9on_finishEv",
            "__ZNKSt3__14hashIN5realm16SyncUserIdentityEEclERKS2_",
            "__ZN5realm13BPlusTreeBaseD2Ev",
            "__ZN5realm4sync7network3ssl7Context13load_pem_fileERKNSt3__112basic_stringIcNS4_11char_traitsIcEENS4_9allocatorIcEEEEDnRNS4_10error_codeE",
            "_RLMSetSwiftPropertyUUID",
            "__ZN5realm2DB17release_read_lockERNS0_12ReadLockInfoE",
            "__ZN5realm10ParentNode14find_all_localEmm",
            "__ZN5realm11ArrayBinary16init_from_parentEv",
            "__ZN5realm5_impl12client_reset11ListTracker6removeEjRj",
            "__ZNK5realm7metrics15TransactionInfo26get_write_time_nanosecondsEv",
            "__ZN5realm5_impl18ChunkedRangeVector12ensure_spaceENS0_33MutableChunkedRangeVectorIteratorINSt3__111__wrap_iterIPNS1_5ChunkEEEEE",
            "__ZN5realm5_impl11transaction6cancelERNS_11TransactionEPNS_14BindingContextE",
            "__ZNK5realm5_impl15NotifierPackage7versionEv",
            "__ZN5realm4sync21PendingBootstrapStore9add_batchExNSt3__18optionalINS0_12SyncProgressEEERKNS2_6vectorINS0_11Transformer15RemoteChangesetENS2_9allocatorIS8_EEEEPb",
            "__ZN5realm5Query11begins_withENS_6ColKeyENS_10BinaryDataEb",
            "__ZN5realm5Realm24async_cancel_transactionEj",
            "__ZN5realm4sync7Session14async_wait_forEbbNS_4util14UniqueFunctionIFvNSt3__110error_codeEEEE",
            "__ZN5realm7metrics17MetricTimerResultC1Ev",
            "__ZN5realm4sync15SyncReplication26add_class_with_primary_keyENS_8TableKeyENS_10StringDataENS_8DataTypeES3_bNS_5Table4TypeE",
            "__ZN5realm5_impl12client_reset29RecoverLocalChangesetsHandler16RecoveryResolver8on_errorERKNSt3__112basic_stringIcNS4_11char_traitsIcEENS4_9allocatorIcEEEE",
            "__ZN5realm4sync10ClientImplD2Ev",
            "__ZNK5realm9SlabAlloc6verifyEv",
            "__ZNK5realm18DistinctDescriptor5cloneEv",
            "__ZN5realmlsERNSt3__113basic_ostreamIcNS0_11char_traitsIcEEEENS_5Table4TypeE",
            "__ZN5realm11StringIndex23insert_to_existing_listENS_6ObjKeyENS_5MixedERNS_13IntegerColumnE",
            "__ZThn24_NK5realm4sync13ClientHistory24get_reciprocal_transformEyRb",
            "__ZN5realm12ObjectSchemaD2Ev",
            "__ZN5realm5Table20build_column_mappingEv",
            "__ZN5realm4sync10ClientImpl7Session24on_changesets_integratedEyRKNS0_12SyncProgressE",
            "__ZN5realm19ThreadSafeReferenceD1Ev",
            "__ZN5realm9SlabAlloc23verify_old_translationsEy",
            "__ZN5realm4sync32SyncMetadataSchemaVersionsReader15get_version_forERKNSt3__110shared_ptrINS_11TransactionEEENS2_17basic_string_viewIcNS2_11char_traitsIcEEEE",
            "__ZN5realm4sync14MigrationStore16cancel_migrationEv",
            "__ZNK5realm13ArrayWithFind15first_set_bit64Ex",
            "__ZN5realm7Cluster22upgrade_string_to_enumENS_6ColKeyERNS_11ArrayStringE",
            "__ZN5realm7Results13prepare_asyncENS_4util10TaggedBoolINS_11ForCallbackEEE",
            "__ZN5realm11SyncSession12become_dyingENS_4util17CheckedUniqueLockE",
            "__ZN5realm4util10serializer11print_valueINS_10BinaryDataEEENSt3__112basic_stringIcNS4_11char_traitsIcEENS4_9allocatorIcEEEET_",
            "__Z32RLMSetValidateMatchingObjectTypeP6RLMSetP11objc_object",
            "__ZNK5realm5Table7is_listENS_6ColKeyE",
            "__ZN5realm4sync9websocket18make_http_responseERKNS0_11HTTPRequestERKNSt3__112basic_stringIcNS5_11char_traitsIcEENS5_9allocatorIcEEEERNS5_10error_codeE",
            "__ZN5realm9Tokenizer14get_token_infoEv",
            "__ZN5realm11GroupWriter34merge_adjacent_entries_in_freelistERNSt3__16vectorINS0_14FreeSpaceEntryENS1_9allocatorIS3_EEEE",
            "__ZN5realm5_impl12client_reset29RecoverLocalChangesetsHandler7resolveERNS1_8ListPathENS_4util14UniqueFunctionIFvRNS_7LstBaseES8_EEE",
            "__ZN5realm2DB29do_begin_possibly_async_writeEv",
            "__ZN5realm4sync10ClientImpl10Connection21handle_reconnect_waitENS_6StatusE",
            "__ZNK5realm16ArrayStringShort13calc_byte_lenEmm",
            "__ZNK5realm9TableView9count_intENS_6ColKeyEx",
            "_RLMObjectBaseSetObjectForKeyedSubscript",
            "__ZNK5realm8TableRefdeEv",
            "__ZN5realm9SlabAlloc4SlabD2Ev",
            "__ZN5realm4util11RobustMutex8is_validEv",
            "__ZNK5realm4sync13ClientHistory24no_pending_local_changesEy",
            "__ZN5realm4sync10ClientImpl10Connection21handle_protocol_errorENS_5_impl14ClientProtocol5ErrorE",
            "__ZN5realm25set_string_compare_methodENS_23string_compare_method_tENS_4util14UniqueFunctionIFbPKcS4_EEE",
            "__ZN5realm4util20EncryptedFileMapping20copy_up_to_date_pageEm",
            "__ZN5realm4sync7network7Service10Descriptor8do_closeEv",
            "__ZNK5realm11ArrayString6verifyEv",
            "__ZN5realm8Subexpr2INS_10StringDataEE9not_equalES1_b",
            "__ZN5realm4util24reserve_unique_file_nameERKNSt3__112basic_stringIcNS1_11char_traitsIcEENS1_9allocatorIcEEEES9_",
            "__Z18transformPredicateP11NSPredicateNSt3__18functionIFP12NSExpressionS4_EEE",
            "__ZN5realm13BackupHandlerC2ERKNSt3__112basic_stringIcNS1_11char_traitsIcEENS1_9allocatorIcEEEERKNS1_6vectorIiNS5_IiEEEERKNSA_INS1_4pairIiiEENS5_ISG_EEEE",
            "__ZNK5realm10Dictionary7is_nullEm",
            "__ZN5realm5Query4lessENS_6ColKeyENS_8ObjectIdE",
            "__ZN5realm7metrics11MetricTimerD1Ev",
            "__ZThn24_N5realm3app3App13call_functionERKNSt3__110shared_ptrINS_8SyncUserEEERKNS2_12basic_stringIcNS2_11char_traitsIcEENS2_9allocatorIcEEEENS2_17basic_string_viewIcSA_EERKNS2_8optionalISD_EEONS_4util14UniqueFunctionIFvPSE_NSI_INS0_8AppErrorEEEEEE",
            "__ZN5realm12query_parser20InvalidQueryArgErrorD1Ev",
            "__ZNK5realm7Cluster11get_col_keyEm",
            "__ZN5realm4sync14HTTPParserBase16set_write_bufferERKNS0_12HTTPResponseE",
            "__ZN5realm11SyncManager18unregister_sessionERKNSt3__112basic_stringIcNS1_11char_traitsIcEENS1_9allocatorIcEEEE",
            "__ZN5realm11ClusterTreeC2EPNS_5TableERNS_9AllocatorEm",
            "__ZN5realm19DictionaryChangeSet3addERNSt3__16vectorINS_5MixedENS1_9allocatorIS3_EEEERKS3_",
            "__ZN5realm4sync13ClientHistory28set_client_reset_adjustmentsEyNS0_15SaltedFileIdentENS0_13SaltedVersionENS_10BinaryDataE",
            "__ZN5realm4sync7network7ServiceC1Ev",
            "__ZNK5realm18DescriptorOrdering19will_apply_distinctEv",
            "__ZN5realm5TableC1EPKPNS_11ReplicationERNS_9AllocatorE",
            "___bid64qd_sub",
            "__ZN5realm5Group23read_only_version_checkERNS_9SlabAllocEmRKNSt3__112basic_stringIcNS3_11char_traitsIcEENS3_9allocatorIcEEEE",
            "_RLMGetSwiftPropertyDecimal128",
            "__ZN5realm5_impl18CollectionNotifier19source_shared_groupEv",
            "__ZN5realm5Group21create_table_accessorEm",
            "__ZNK5realm4List9get_queryEv",
            "__ZN5realm4util10AESCryptor12handle_errorEv",
            "__ZNK5realm11ClusterTree7try_getENS_6ObjKeyE",
            "__ZN5realm4sync14MigrationStore14migrate_to_flxENSt3__117basic_string_viewIcNS2_11char_traitsIcEEEES6_",
            "__ZN5realm4sync6ClientC1EOS1_",
            "__ZN5realm4sync10ClientImpl7SessionD2Ev",
            "__ZN5realm4sync13ClientHistory17trim_sync_historyEv",
            "__ZN5realm5TableC2EPKPNS_11ReplicationERNS_9AllocatorE",
            "__ZN5realm11SyncSession26wait_for_upload_completionEONS_4util14UniqueFunctionIFvNS_6StatusEEEE",
            "__ZNK5realm7Results8get_modeEv",
            "__ZN5realm3app8AppErrorC1ENS_10ErrorCodes5ErrorENSt3__112basic_stringIcNS4_11char_traitsIcEENS4_9allocatorIcEEEESA_NS4_8optionalIiEE",
            "__ZNK5realm9GeoRegion21get_conversion_statusEv",
            "__ZN5realm14ExpressionNode15cluster_changedEv",
            "__ZN5realm11SyncSession27did_drop_external_referenceEv",
            "__ZN5realm7ClusterD2Ev",
            "__ZN5realm11ClusterTree16remove_all_linksERNS_12CascadeStateE",
            "__ZNK5realm11SyncManager21get_user_for_identityERKNSt3__112basic_stringIcNS1_11char_traitsIcEENS1_9allocatorIcEEEE",
            "__ZN5realm11SyncSession22handle_progress_updateEyyyyyy",
            "__ZN5realm11NotNullableD2Ev",
            "__ZN5realm5Table25erase_from_search_indexesENS_6ObjKeyE",
            "__ZN5realm4util12StderrLogger6do_logENS0_6Logger5LevelERKNSt3__112basic_stringIcNS4_11char_traitsIcEENS4_9allocatorIcEEEE",
            "__ZN5realm5Query7greaterENS_6ColKeyENS_4UUIDE",
            "__ZN5realm4sync14SessionWrapper7refreshENSt3__112basic_stringIcNS2_11char_traitsIcEENS2_9allocatorIcEEEE",
            "__ZN5realm15InvalidArgumentD2Ev",
            "__ZN5realm18StringNodeFulltext18_search_index_initEv",
            "__ZNK5realm4sync13ClientHistory26find_uploadable_changesetsERNS0_12UploadCursorEyRNSt3__16vectorINS1_15UploadChangesetENS4_9allocatorIS6_EEEERy",
            "__ZN5realm4List10remove_allEv",
            "__ZN5realm5_impl18CollectionNotifier23set_initial_transactionERKNSt3__16vectorINS2_10shared_ptrIS1_EENS2_9allocatorIS5_EEEE",
            "__ZN5realm12object_store10CollectionC2ENSt3__110shared_ptrINS_5RealmEEERKNS_3ObjENS_6ColKeyE",
            "__ZN5realm4util14SharedFileInfoC2EPKh",
            "__ZNK5realm3Obj15get_primary_keyEv",
            "__ZN5realm13BPlusTreeBase12bptree_eraseEmNS_4util11FunctionRefIFmPNS_13BPlusTreeNodeEmEEE",
            "__ZN5realm4util10serializer18SerialisationState24describe_expression_typeENSt3__18optionalINS_24ExpressionComparisonTypeEEE",
            "__ZNK5realm7Results12actual_indexEm",
            "__ZN5realm4sync10ClientImpl17shutdown_and_waitEv",
            "__ZN5realm10converters23EmbeddedObjectConverter5trackERKNS_3ObjES4_",
            "__ZN5realm8SyncUser17update_identitiesENSt3__16vectorINS_16SyncUserIdentityENS1_9allocatorIS3_EEEE",
            "__ZN5realm5_impl15NotifierPackageC2ENSt3__16vectorINS2_10shared_ptrINS0_18CollectionNotifierEEENS2_9allocatorIS6_EEEENS4_INS_11TransactionEEE",
            "__ZN5realm4util11RobustMutex14low_level_lockEv",
            "__ZN5realm11ClusterTree20get_root_from_parentEv",
            "__ZNK5realm4sync8FieldSet8containsENS_10StringDataERKN5mpark7variantIJNS3_9monostateExS2_NS_9GlobalKeyENS_8ObjectIdENS_4UUIDEEEE",
            "__ZN5realm4util6mremapERKNS0_14FileAttributesEmPvmm",
            "__ZN5realm4sync10ClientImpl10Connection22handle_disconnect_waitENS_6StatusE",
            "__ZNK5realm7metrics15TransactionInfo14get_free_spaceEv",
            "__ZN5realm5_impl12client_reset29RecoverLocalChangesetsHandler16RecoveryResolver11on_propertyERNS_3ObjENS_6ColKeyE",
            "__ZN5realm2DB17async_begin_writeENS_4util14UniqueFunctionIFvvEEE",
            "__ZNK5realm10IndexArray9from_listILNS_11IndexMethodE0EEExNS_5MixedERNS_18InternalFindResultERKNS_13IntegerColumnERKNS_13ClusterColumnE",
            "__ZN5realm5Query5equalENS_6ColKeyENS_10BinaryDataEb",
            "__ZN5realm5Table15migrate_objectsEv",
            "__ZNK5realm12object_store10Collection21get_parent_column_keyEv",
            "__ZN5realm4bson17holds_alternativeINSt3__112basic_stringIcNS2_11char_traitsIcEENS2_9allocatorIcEEEEEEbRKNS0_4BsonE",
            "__ZNK5realm4util4File5remapEPvmNS1_10AccessModeEmim",
            "__ZN5realm4Spec25convert_column_attributesEv",
            "__ZN5realm11ObjectStore18set_schema_versionERNS_5GroupEy",
            "__ZN5realm4sync15SyncReplication13remove_objectEPKNS_5TableENS_6ObjKeyE",
            "__ZN5realm22NoSubscriptionForWriteD1Ev",
            "__ZN5realm4util4File10try_removeERKNSt3__112basic_stringIcNS2_11char_traitsIcEENS2_9allocatorIcEEEE",
            "__ZN5realm7Cluster10insert_rowEmNS_6ObjKeyERKNS_11FieldValuesE",
            "__ZN5realm5Realm18get_schema_versionERKNS_11RealmConfigE",
            "__ZN5realm4sync14MigrationStore15rollback_to_pbsEv",
            "__ZN5realm4bsonlsERNSt3__113basic_ostreamIcNS1_11char_traitsIcEEEERKNS0_17RegularExpression6OptionE",
            "__ZN5realm10Geospatial9from_linkERKNS_3ObjE",
            "___bid128ddq_fma",
            "__ZN5realm14BPlusTreeInner25erase_and_destroy_bp_nodeEm",
            "__ZNK5realm12object_store3Set3getINS_5MixedEEET_m",
            "__ZNK5realm11ClusterTree6verifyEv",
            "__ZN5realm4sync18InstructionApplierclERKNS0_5instr11EraseObjectE",
            "__ZN5realm5Table14get_key_directERNS_9AllocatorEm",
            "__ZN5realm4bson4BsonD1Ev",
            "__ZN5realm5Query9not_equalENS_6ColKeyENS_10StringDataEb",
            "__ZN5realm4sync7Session17send_test_commandENSt3__112basic_stringIcNS2_11char_traitsIcEENS2_9allocatorIcEEEE",
            "__ZN5realm8keychain29create_new_metadata_realm_keyEv",
            "__ZNK5realm4sync15SyncReplication16get_payload_typeENS_8DataTypeE",
            "__ZN5realm3app14AppCredentials8functionERKNSt3__112basic_stringIcNS2_11char_traitsIcEENS2_9allocatorIcEEEE",
            "__ZNK5realm11ClusterTree19is_string_enum_typeENS_6ColKey3IdxE",
            "__ZN5realm11SyncSessionC1ERNS_5_impl10SyncClientENSt3__110shared_ptrINS_2DBEEERKNS_11RealmConfigEPNS_11SyncManagerE",
            "__ZNK5realm5Group12write_to_memEv",
            "__ZN5realm5_impl12client_reset8ListPath7ElementC2ENS_6ColKeyE",
            "__ZNK5realm7SetBase10clear_replEPNS_11ReplicationE",
            "__ZN5realm10SyncConfigC2ENSt3__110shared_ptrINS_8SyncUserEEENS0_14FLXSyncEnabledE",
            "__ZN5realm4sync10ClientImpl7Session28check_received_sync_progressERKNS0_12SyncProgressERi",
            "__ZN5realm12ObjectSchemaC2ENSt3__112basic_stringIcNS1_11char_traitsIcEENS1_9allocatorIcEEEESt16initializer_listINS_8PropertyEE",
            "__ZN5realm9TableView9KeyValues9copy_fromERKS1_",
            "__ZN5realm9SlabAlloc14allocate_blockEi",
            "__ZN5realm5_impl25make_authorization_headerERKNSt3__112basic_stringIcNS1_11char_traitsIcEENS1_9allocatorIcEEEE",
            "__ZN5realm5_impl19SystemConfiguration39network_reachability_set_dispatch_queueEPK23__SCNetworkReachabilityP16dispatch_queue_s",
            "__Z18RLMClearRealmCachev",
            "__ZNK5realm5_impl18CollectionNotifier30any_related_table_was_modifiedERKNS0_21TransactionChangeInfoE",
            "__ZN5realm5_impl16RealmCoordinator9get_realmENS_11RealmConfigENSt3__18optionalINS_9VersionIDEEE",
            "__ZN5realm3app3App30UsernamePasswordProviderClient25send_reset_password_emailERKNSt3__112basic_stringIcNS3_11char_traitsIcEENS3_9allocatorIcEEEEONS_4util14UniqueFunctionIFvNS3_8optionalINS0_8AppErrorEEEEEE",
            "__ZNK5realm12object_store3Set6freezeERKNSt3__110shared_ptrINS_5RealmEEE",
            "__ZN5realm7ObjListD2Ev",
            "__ZN5realm11ClusterTree8IteratorC2ERKS1_",
            "__ZNK5realm5Table15get_sorted_viewENS_14SortDescriptorE",
            "__ZN5realm3app15MongoCollection5countERKNS_4bson10IndexedMapINS2_4BsonEEEONS_4util14UniqueFunctionIFvOyNSt3__18optionalINS0_8AppErrorEEEEEE",
            "_RLMSetSwiftPropertyBool",
            "__ZN5realm9SlabAlloc33get_committed_file_format_versionEv",
            "__ZN5realm5Array4moveERS0_m",
            "__ZN5realm5_impl12client_reset15InterningBuffer10get_or_addERKNSt3__117basic_string_viewIcNS3_11char_traitsIcEEEE",
            "__ZN5realm3app3App13call_functionERKNSt3__110shared_ptrINS_8SyncUserEEERKNS2_12basic_stringIcNS2_11char_traitsIcEENS2_9allocatorIcEEEENS2_17basic_string_viewIcSA_EERKNS2_8optionalISD_EEONS_4util14UniqueFunctionIFvPSE_NSI_INS0_8AppErrorEEEEEE",
            "__ZN5realm3app3App15update_hostnameERKNSt3__18optionalINS_15SyncAppMetadataEEE",
            "__ZNK5realm12ObjectSchema17property_for_nameENS_10StringDataE",
            "__ZN5realm4sync17ClientReplication10initializeERNS_2DBE",
            "__ZN5realm11GroupWriter29move_free_in_file_to_size_mapERKNSt3__16vectorINS0_14FreeSpaceEntryENS1_9allocatorIS3_EEEERNS1_8multimapImmNS1_4lessImEENS4_INS1_4pairIKmmEEEEEE",
            "__ZN5realm3app15MongoCollection9find_bsonERKNS_4bson10IndexedMapINS2_4BsonEEERKNS1_11FindOptionsEONS_4util14UniqueFunctionIFvONSt3__18optionalIS4_EENSE_INS0_8AppErrorEEEEEE",
            "__ZN5realm4util18make_dir_recursiveENSt3__112basic_stringIcNS1_11char_traitsIcEENS1_9allocatorIcEEEE",
            "__ZN5realm5Query9not_equalENS_6ColKeyEx",
            "__ZN5realm11ArrayString3setEmNS_10StringDataE",
            "__ZN5realm4util20EncryptedFileMapping13validate_pageEm",
            "__ZN5realm5_impl14ClientProtocol21make_pbs_bind_messageEiRNS_4util43BasicResettableExpandableBufferOutputStreamIcNSt3__111char_traitsIcEENS4_9allocatorIcEEEEyRKNS4_12basic_stringIcS6_S8_EESE_bb",
            "__ZNK5realm15SyncFileManager15realm_file_pathERKNSt3__112basic_stringIcNS1_11char_traitsIcEENS1_9allocatorIcEEEES9_S9_S9_",
            "__ZN5realm8SyncUserD1Ev",
            "__ZNK5realm8SyncUser13has_device_idEv",
            "__ZN5realm9SlabAllocD1Ev",
            "__ZN5realm5Table20do_erase_root_columnENS_6ColKeyE",
            "__ZN5realm5_impl18CollectionNotifier11lock_targetEv",
            "__ZN5realm5_impl12client_reset29RecoverLocalChangesetsHandlerclERKNS_4sync5instr10EraseTableE",
            "__ZN5realm5_impl15NotifierPackage13after_advanceEv",
            "__ZN5realm4sync32SyncMetadataSchemaVersionsReaderC2ERKNSt3__110shared_ptrINS_11TransactionEEE",
            "__ZN5realm4util11uuid_stringEv",
            "__ZN5realm4sync7network7Service10Descriptor10do_releaseEv",
            "__ZNK5realm11Transaction15get_commit_sizeEv",
            "__ZNK5realm5Query14find_best_nodeEPNS_10ParentNodeE",
            "__ZN5realm2DB7compactEbNSt3__18optionalIPKcEE",
            "__ZNK5realm5GroupeqERKS0_",
            "__ZNK5realm4sync15SubscriptionSet4findERKNS_5QueryE",
            "__ZN5realm5_impl16RealmCoordinator23wake_up_notifier_workerEv",
            "__ZN5realm5_impl20SyncProgressNotifier6updateEyyyyyy",
            "__ZNK5realm12ArrayIntNull18choose_random_nullEx",
            "__ZN5realm5_impl18CollectionNotifier14before_advanceEv",
            "__ZN5realm4sync19SessionWrapperStackD1Ev",
            "__ZN5realm13BPlusTreeLeaf12bptree_eraseEmNS_4util11FunctionRefIFmPNS_13BPlusTreeNodeEmEEE",
            "__ZN5realm4util5Mutex11lock_failedEi",
            "__ZN5realm23SchemaMismatchExceptionC1ERKNSt3__16vectorINS_31ObjectSchemaValidationExceptionENS1_9allocatorIS3_EEEE",
            "___bid128_from_int64",
            "__ZN5realm10Dictionary5eraseENS_5MixedE",
            "__ZN5realm10StringNodeINS_5EqualEE20do_consume_conditionERNS_10ParentNodeE",
            "__ZNK5realm3app14AppCredentials17serialize_as_bsonEv",
            "__ZN5realm5Table14add_column_setENS_8DataTypeENS_10StringDataEb",
            "__ZN5realm4sync14SessionWrapper19get_migration_storeEv",
            "__ZN5realm3app15MongoCollection16delete_many_bsonERKNS_4bson10IndexedMapINS2_4BsonEEEONS_4util14UniqueFunctionIFvONSt3__18optionalIS4_EENSB_INS0_8AppErrorEEEEEE",
            "__ZN5realm4sync10ClientImpl7Session22on_integration_failureERKNS0_20IntegrationExceptionE",
            "__ZN5realm9MixedNodeINS_8EqualInsEE4initEb",
            "__ZN5realm4util20EncryptedFileMapping5flushEv",
            "__ZN5realm7metrics9QueryInfo5trackEPKNS_5QueryENS1_9QueryTypeE",
            "__ZN5realm9SlabAlloc7do_freeEmPc",
            "__ZN5realm4sync10ClientImpl10Connection29receive_test_command_responseEyyNSt3__117basic_string_viewIcNS3_11char_traitsIcEEEE",
            "__ZN5realm4sync10ClientImpl10Connection18initiate_reconnectEv",
            "__ZNK5realm4sync15SubscriptionSet29get_state_change_notificationENS1_5StateE",
            "__ZN5realm4sync16ChangesetEncoder12append_valueERKNS0_5instr4PathE",
            "__ZN5realm4util4File11read_staticEiPcm",
            "__ZN5realm4util11compression33get_uncompressed_size_from_headerERNS0_11InputStreamE",
            "__ZN5realm4sync10ClientImpl10Connection8activateEv",
            "__ZN5realm10converters25InterRealmObjectConverterC1ENS_13ConstTableRefENS_8TableRefEPNS0_23EmbeddedObjectConverterE",
            "__ZNK5realm12ArrayKeyBaseILi0EE6verifyEv",
            "__ZN5realm4sync18InstructionApplier12PathResolver20resolve_list_elementERNS_7LstBaseEj",
            "__ZN5realm5Group4openEmRKNSt3__112basic_stringIcNS1_11char_traitsIcEENS1_9allocatorIcEEEE",
            "__ZN5realm5_impl16RealmCoordinator17get_unbound_realmEv",
            "__ZNK5realm15ArrayDecimal1287get_anyEm",
            "__ZN5realm4util20EncryptedFileMappingC2ERNS0_14SharedFileInfoEmPvmNS0_4File10AccessModeEPNS0_13WriteObserverEPNS0_11WriteMarkerE",
            "__ZN5realm7ColumnsINS_10DictionaryEE8evaluateEmRNS_9ValueBaseE",
            "__ZN5realm4util20EncryptedFileMapping20write_and_update_allEmmm",
            "__ZNK5realm14ArrayTimestamp10find_firstINS_4LessEEEmNS_9TimestampEmm",
            "__ZN5realm15fast_popcount64Ex",
            "__ZN5realm13StaleAccessorD1Ev",
            "__ZN5realm4util10serializer11print_valueINS_4UUIDEEENSt3__112basic_stringIcNS4_11char_traitsIcEENS4_9allocatorIcEEEET_",
            "__ZNK5realm9SlabAlloc18get_free_read_onlyEv",
            "__ZN5realm4sync21PendingBootstrapStore11has_pendingEv",
            "__ZN5realm10converters24InterRealmValueConverter14cmp_src_to_dstENS_5MixedES2_PNS1_16ConversionResultEPb",
            "__ZNK5realm2DB30other_writers_waiting_for_lockEv",
            "__ZN5realmlsERNSt3__113basic_ostreamIcNS0_11char_traitsIcEEEERKNS_16ClientResyncModeE",
            "__ZN5realmlsERNSt3__113basic_ostreamIcNS0_11char_traitsIcEEEENS_12ObjectSchema10ObjectTypeE",
            "__ZN5realm4synclsERNSt3__113basic_ostreamIcNS1_11char_traitsIcEEEENS0_10HTTPStatusE",
            "__ZNK5realm5_impl17WeakRealmNotifier22scheduler_is_on_threadEv",
            "__ZN5realm4util4File6resizeEx",
            "__ZN5realm5Array18update_from_parentEv",
            "__ZNK5realm16ArrayStringShort10find_firstENS_10StringDataEmm",
            "__ZN5realm4sync14SessionWrapperC2ERNS0_10ClientImplENSt3__110shared_ptrINS_2DBEEENS5_INS0_17SubscriptionStoreEEENS5_INS0_14MigrationStoreEEENS0_7Session6ConfigE",
            "__ZNK5realm12object_store10Collection4sortENS_14SortDescriptorE",
            "__ZN5realm4sync15SubscriptionSetC2ENSt3__18weak_ptrIKNS0_17SubscriptionStoreEEExNS1_13SupersededTagE",
            "__ZN5realm5Query9not_equalENS_6ColKeyENS_4nullE",
            "__ZN5realm4ListC2EOS0_",
            "__ZN5realm4util32file_path_by_appending_componentERKNSt3__112basic_stringIcNS1_11char_traitsIcEENS1_9allocatorIcEEEES9_NS0_12FilePathTypeE",
            "__ZN5realm9ExceptionC2ENS_10ErrorCodes5ErrorENSt3__117basic_string_viewIcNS3_11char_traitsIcEEEE",
            "__ZNK5realm15ArraySmallBlobs17get_string_legacyEm",
            "__ZN5realm5QueryC2Ev",
            "__ZN5realm16SyncUserMetadata9set_stateENS_8SyncUser5StateE",
            "__ZNK5realm4sync9Changeset10print_pathERNSt3__113basic_ostreamIcNS2_11char_traitsIcEEEENS0_12InternStringERKN5mpark7variantIJNS9_9monostateExNS_9GlobalKeyES8_NS_8ObjectIdENS_4UUIDEEEENS2_8optionalIS8_EEPKNS0_5instr4PathE",
            "__ZN5realm4util10AESCryptorD1Ev",
            "__ZN5realm18DescriptorOrdering20collect_dependenciesEPKNS_5TableE",
            "__ZN5realm10DictionaryixENS_5MixedE",
            "__ZN5realm4bson4BsonC2ERKS1_",
            "__ZN5realm9SlabAlloc8do_allocEm",
            "__ZN5realm5_impl16RealmCoordinator7open_dbEv",
            "__ZN5realm11GroupWriter6commitEm",
            "__ZN5realm5Query13greater_equalENS_6ColKeyEx",
            "__ZN5realm3app3App19handle_auth_failureERKNS0_8AppErrorERKNS0_8ResponseEONS0_7RequestERKNSt3__110shared_ptrINS_8SyncUserEEEONS_4util14UniqueFunctionIFvS7_EEE",
            "__ZN5realm4sync15SyncReplication9list_moveERKNS_14CollectionBaseEmm",
            "__ZN5realm5Query4lessENS_6ColKeyEd",
            "__ZN5realm4sync10ClientImpl10Connection23websocket_error_handlerEv",
            "__ZNK13RLMSchemaInfo5beginEv",
            "__ZNK5realm11GroupWriter13get_file_sizeEv",
            "__ZNK5realm17ChunkedBinaryDataixEm",
            "__ZN5realm4util4sha1EPKcmPh",
            "__ZN5realm5_impl14ChangesetIndex21schema_conflict_groupENS_10StringDataE",
            "__ZN5realm5Query9ends_withENS_6ColKeyENS_10StringDataEb",
            "__ZN5realm14SortDescriptorC1ENSt3__16vectorINS2_INS_17ExtendedColumnKeyENS1_9allocatorIS3_EEEENS4_IS6_EEEENS2_IbNS4_IbEEEE",
            "__ZN5realm4sync10ClientImpl7Session12send_messageEv",
            "__ZThn64_N5realm7ClusterD1Ev",
            "__ZN5realm14ExpressionNodeC1ERKS0_",
            "__ZN5realm5Array4moveEmmm",
            "__ZN5realm3app3AppC2ERKNS1_6ConfigE",
            "__ZN5realm4sync7network7Service9IoReactor17wait_and_activateENSt3__16chrono10time_pointINS5_12steady_clockENS5_8durationIxNS4_5ratioILl1ELl1000000000EEEEEEESC_",
            "__ZNK5realm10Dictionary8find_anyENS_5MixedE",
            "___bid64_from_int64",
            "__ZN5realm4sync7network3ssl6Stream17ssl_set_host_nameERKNSt3__112basic_stringIcNS4_11char_traitsIcEENS4_9allocatorIcEEEERNS4_10error_codeE",
            "__ZNK5realm5Mixed3getINSt3__18optionalIdEEEET_v",
            "__ZN5realm16SyncUserMetadata20set_state_and_tokensENS_8SyncUser5StateERKNSt3__112basic_stringIcNS3_11char_traitsIcEENS3_9allocatorIcEEEESB_",
            "__ZN5realm4util19InterprocessCondVarC1Ev",
            "__ZNK5realm12object_store10Collection4sortERKNSt3__16vectorINS2_4pairINS2_12basic_stringIcNS2_11char_traitsIcEENS2_9allocatorIcEEEEbEENS8_ISB_EEEE",
            "__ZNK5realm5Array16do_write_shallowERNS_5_impl15ArrayWriterBaseE",
            "__ZN5realm5Realm20do_begin_transactionEv",
            "__ZNK5realm12object_store10Dictionary10get_valuesEv",
            "__ZNK5realm7Results9get_tableEv",
            "__ZN5realm11SystemErrorD0Ev",
            "__ZNK5realm5Table12find_all_intENS_6ColKeyEx",
            "__ZN5realm5Query10less_equalENS_6ColKeyEi",
            "__ZN5realm9SlabAlloc11resize_fileEm",
            "__ZN5realm5_impl16RealmCoordinator17register_notifierENSt3__110shared_ptrINS0_18CollectionNotifierEEE",
            "__ZNK5realm4sync7network3ssl20ProtocolNotSupported4whatEv",
            "__ZN5realm4util5Mutex11init_failedEi",
            "__ZN5realm5_impl18CollectionNotifierC2ENSt3__110shared_ptrINS_5RealmEEE",
            "__ZN5realm5Group28get_version_and_history_infoERKNS_5ArrayERyRiS5_",
            "__ZN5realm7metrics11MetricTimerD2Ev",
            "__ZN5realm4sync15SyncReplication17dictionary_insertERKNS_14CollectionBaseEmNS_5MixedES5_",
            "__ZN5realm12object_store10CollectionaSERKS1_",
            "__ZNK5realm11SyncManager23perform_metadata_updateENS_4util11FunctionRefIFvRNS_19SyncMetadataManagerEEEE",
            "___bid128dq_sub",
            "__ZN5realm5_impl12client_reset29RecoverLocalChangesetsHandler16RecoveryResolver6on_setERNS_7SetBaseE",
            "__ZN5realm5_impl11transaction5parseERNS_11TransactionERNS0_21TransactionChangeInfoEyy",
            "__ZNK5realm4util4File18get_encryption_keyEv",
            "__ZN5realm5_impl16RealmCoordinatorD1Ev",
            "__ZNK5realm13ConstTableRef5checkEv",
            "__ZNK5realm4util9Backtrace5printERNSt3__113basic_ostreamIcNS2_11char_traitsIcEEEE",
            "__ZN5realm7ResultsC2ENSt3__110shared_ptrINS_5RealmEEENS_13ConstTableRefE",
            "__ZN5realm9SlabAlloc21init_streaming_headerEPNS0_6HeaderEi",
            "__ZN5realm4util4File4lockEbb",
            "__ZN5realm4util10mmap_fixedEiPvmNS0_4File10AccessModeEmPKcPNS0_20EncryptedFileMappingE",
            "__ZN5realm5Table21add_column_dictionaryERS0_NS_10StringDataENS_8DataTypeE",
            "__ZN5realm3app10PushClient15register_deviceERKNSt3__112basic_stringIcNS2_11char_traitsIcEENS2_9allocatorIcEEEERKNS2_10shared_ptrINS_8SyncUserEEEONS_4util14UniqueFunctionIFvNS2_8optionalINS0_8AppErrorEEEEEE",
            "__ZN5realm4util10mmap_fixedEiPvmNS0_4File10AccessModeEmPKc",
            "__ZN5realm6ObjectC1ERKNSt3__110shared_ptrINS_5RealmEEERKNS_3ObjE",
            "__ZN5realm4sync14SessionWrapper14async_wait_forEbbNS_4util14UniqueFunctionIFvNSt3__110error_codeEEEE",
            "__ZNK5realm9SyncError31is_session_level_protocol_errorEv",
            "__ZN5realm11GroupWriter8backdateEv",
            "__ZN5realm5_impl16RealmCoordinator23clean_up_dead_notifiersEv",
            "_RLMAssignToCollection",
            "__ZN5realm4sync15SyncReplication14as_primary_keyENS_5MixedE",
            "__ZN18RLMObservationInfoC2EP11objc_object",
            "__ZN5realm2DB6createENSt3__110unique_ptrINS_11ReplicationENS1_14default_deleteIS3_EEEERKNS1_12basic_stringIcNS1_11char_traitsIcEENS1_9allocatorIcEEEERKNS_9DBOptionsE",
            "__ZN5realm16ArrayStringShort6insertEmNS_10StringDataE",
            "__ZN5realm5_impl18CollectionNotifier26suppress_next_notificationEy",
            "__ZN5realm10SyncConfigC2ENSt3__110shared_ptrINS_8SyncUserEEENS1_12basic_stringIcNS1_11char_traitsIcEENS1_9allocatorIcEEEE",
            "__ZN5realm9TableView25apply_descriptor_orderingERKNS_18DescriptorOrderingE",
            "__ZN5realm4util9Scheduler12make_defaultEv",
            "__ZN5realm5_impl19SystemConfiguration33network_reachability_set_callbackEPK23__SCNetworkReachabilityPFvS4_jPvEP28SCNetworkReachabilityContext",
            "__Z39RLMUnmanagedAccessorClassForObjectClassP10objc_classP15RLMObjectSchema",
            "__ZN5realm5_impl20ClientResetOperationC2ERNS_4util6LoggerENSt3__110shared_ptrINS_2DBEEES8_NS_16ClientResyncModeENS2_14UniqueFunctionIFvNS_9VersionIDEEEENSA_IFvSB_bEEEb",
            "__ZN5realm5_impl18CollectionNotifier11add_changesENS0_23CollectionChangeBuilderE",
            "__ZN5realm5_impl14ServerProtocol21make_download_messageEiRNS_4util43BasicResettableExpandableBufferOutputStreamIcNSt3__111char_traitsIcEENS4_9allocatorIcEEEEyyyyxyyymPKcmmbRNS2_6LoggerE",
            "__ZNK5realm12object_store10Dictionary7get_anyEm",
            "__ZN5realm6Schema14copy_keys_fromERKS0_NS_16SchemaSubsetModeE",
            "__ZN5realm4sync7network7Service25report_event_loop_metricsENS_4util14UniqueFunctionIFvddEEE",
            "__Z34RLMArrayValidateMatchingObjectTypeP8RLMArrayP11objc_object",
            "__ZNK5realm5Group4sizeEv",
            "__ZN5realm14BPlusTreeInnerD0Ev",
            "__Z19translateStopPolicy17RLMSyncStopPolicy",
            "__ZN5realm5Table18verify_column_keysEv",
            "__ZN5realm4sync9websocket6Config32websocket_close_message_receivedENSt3__110error_codeENS_10StringDataE",
            "_RLMGetSwiftValueStorage",
            "__ZNK5realm18DescriptorOrdering16will_apply_limitEv",
            "__ZNK5realm12object_store10Dictionary8get_keysEv",
            "__ZN5realm16audit_test_hooks9set_clockEONS_4util14UniqueFunctionIFNS_9TimestampEvEEE",
            "__ZN5realm4sync16ChangesetEncoder13intern_stringENS_10StringDataE",
            "__ZN5realm24InvalidPropertyExceptionC1ERKNSt3__112basic_stringIcNS1_11char_traitsIcEENS1_9allocatorIcEEEES9_",
            "__ZN5realm5_impl12client_reset29RecoverLocalChangesetsHandler16RecoveryResolver19on_dict_key_advanceENS_10StringDataE",
            "__ZN5realm4sync7network8Resolver7resolveERKNS2_5QueryERNSt3__110error_codeE",
            "__ZN5realm2DB10start_readENS_9VersionIDE",
            "__ZN5realm4util10serializer11print_valueENS_7ObjLinkEPNS_5GroupE",
            "__ZNK5realm3app14AppCredentials18provider_as_stringEv",
            "__ZN5realm10QueryGroupC2ERKS0_",
            "__ZN5realm18SyncClientTimeoutsC1Ev",
            "__ZN5realm9TableView8distinctENS_18DistinctDescriptorE",
            "__ZN5realm5_impl23UnsupportedSchemaChangeC2Ev",
            "__ZN5realm4util9Scheduler10make_dummyEv",
            "__ZN5realm4sync16ChangesetEncoderclERKNS0_5instr6UpdateE",
            "__ZN5realm9SlabAllocD2Ev",
            "_RLMWaitForRealmToClose",
            "__ZNK5realm4Spec21get_origin_column_ndxEm",
            "__ZN5realm5Table16do_insert_columnENS_6ColKeyENS_8DataTypeENS_10StringDataEPS0_S2_",
            "__ZN5realm11SystemErrorD1Ev",
            "__ZNK5realm10Dictionary6do_sumEPm",
            "__ZN5realm19ColumnDictionaryKey8init_keyENS_5MixedE",
            "__ZN5realm5_impl14ObjectNotifier3runEv",
            "__ZN5realm14ArrayTimestamp13init_from_memENS_6MemRefE",
            "__ZN5realm5Realm10begin_readENS_9VersionIDE",
            "__ZN5realm2DB6createENSt3__110unique_ptrINS_11ReplicationENS1_14default_deleteIS3_EEEERKNS_9DBOptionsE",
            "__ZN5realm4sync13ClientHistory29record_current_schema_versionEv",
            "__ZN5realm5Group12do_get_tableENS_10StringDataE",
            "_RLMSetSwiftPropertyObjectId",
            "__ZN5realm15ArraySmallBlobs5eraseEm",
            "__ZNK5realm10Dictionary10do_get_keyEm",
            "__ZNK5realm5Table3avgENS_6ColKeyEPm",
            "__ZN5realm6SchemaaSEOS0_",
            "__ZN5realm14KeyAlreadyUsedD1Ev",
            "__ZN5realm5_impl19SystemConfiguration40network_reachability_create_with_addressEPK13__CFAllocatorPK8sockaddr",
            "__ZN13RLMSchemaInfoC2EP8RLMRealm",
            "__ZNK5realm16SyncUserMetadata7profileEv",
            "__ZN5realm5Query4lessENS_6ColKeyENS_4UUIDE",
            "__ZN5realm4sync10ClientImpl10Connection7on_idleEv",
            "__ZNK5realm5Realm11transactionEv",
            "__ZNK5realm20DictionaryLinkValues10get_objectEm",
            "__ZN5realm4sync9websocket6Socket18async_write_binaryEPKcmNS_4util14UniqueFunctionIFvvEEE",
            "__ZN5realm6SchemaC1ESt16initializer_listINS_12ObjectSchemaEE",
            "__ZNK5realm10Dictionary17get_key_data_typeEv",
            "__ZN5realm4sync13ClientHistory45fix_up_client_file_ident_in_stored_changesetsERNS_11TransactionEy",
            "__ZN5realm9SlabAlloc9grow_slabEi",
            "__ZNK5realm5Table3sumENS_6ColKeyE",
            "__ZN5realm4sync10ClientImpl10Connection17send_next_messageEv",
            "__ZN5realm11SyncSession20cancel_pending_waitsENS_4util17CheckedUniqueLockENS_6StatusENSt3__18optionalIS3_EE",
            "__ZN5realm3app11WatchStream8feed_sseENS1_15ServerSentEventE",
            "__ZNK5realm4sync18InstructionApplier10get_stringENS0_17StringBufferRangeE",
            "__ZNK5realm3Obj18get_collection_ptrENS_10StringDataE",
            "__ZN5realm3Obj7set_intENS_6ColKeyEx",
            "__ZN5realm4sync6ClientC2ENS0_12ClientConfigE",
            "__ZN5realm4sync7network3ssl6Stream8shutdownERNSt3__110error_codeE",
            "__ZN5realm4sync10ClientImpl10ConnectionC2ERS1_xNS0_14ServerEndpointERKNSt3__112basic_stringIcNS5_11char_traitsIcEENS5_9allocatorIcEEEERKNS5_3mapISB_SB_NS5_4lessISB_EENS9_INS5_4pairISC_SB_EEEEEEbNS5_8optionalISB_EENS5_8functionIFbSD_tPKcmiiEEENSN_INS_10SyncConfig11ProxyConfigEEENS1_13ReconnectInfoE",
            "__ZN5realm10millisleepEm",
            "_RLMInitializeWithValue",
            "__ZN5realm4sync10ClientImpl10ConnectionC1ERS1_xNS0_14ServerEndpointERKNSt3__112basic_stringIcNS5_11char_traitsIcEENS5_9allocatorIcEEEERKNS5_3mapISB_SB_NS5_4lessISB_EENS9_INS5_4pairISC_SB_EEEEEEbNS5_8optionalISB_EENS5_8functionIFbSD_tPKcmiiEEENSN_INS_10SyncConfig11ProxyConfigEEENS1_13ReconnectInfoE",
            "__ZN5realm10SyncConfigC2ENSt3__110shared_ptrINS_8SyncUserEEENS_4bson4BsonE",
            "__ZN5realm4sync7network3ssl6Stream9tcp_writeEPKvS5_Pm",
            "__ZN5realm4util25set_page_reclaim_governorEPNS0_19PageReclaimGovernorE",
            "__ZN5realm5Group18DefaultTableWriter12write_tablesERNS_5_impl12OutputStreamE",
            "__ZN5realm5_impl14ClientProtocol20UploadMessageBuilderC2ERNS_4util43BasicResettableExpandableBufferOutputStreamIcNSt3__111char_traitsIcEENS5_9allocatorIcEEEERNS5_6vectorIcS9_EERNS3_11compression19CompressMemoryArenaE",
            "__ZN5realm5_impl17WeakRealmNotifier17bind_to_schedulerEv",
            "__ZN5realm4util10serializer11print_valueINS_4nullEEENSt3__112basic_stringIcNS4_11char_traitsIcEENS4_9allocatorIcEEEET_",
            "__ZNK5realm5Query13find_internalEmm",
            "__ZN5realm4sync9websocket15make_error_codeENS1_9HttpErrorE",
            "__ZN5realm4sync15SyncReplication9set_eraseERKNS_14CollectionBaseEmNS_5MixedE",
            "__ZN5realm5_impl27NetworkReachabilityObserverC2ENSt3__18optionalINS2_12basic_stringIcNS2_11char_traitsIcEENS2_9allocatorIcEEEEEENS_4util14UniqueFunctionIFvNS0_25NetworkReachabilityStatusEEEE",
            "__ZN5realm4sync12SubscriptionC2EPKNS0_17SubscriptionStoreENS_3ObjE",
            "__ZN5realm5Table13migrate_linksEv",
            "__ZN5realm5_impl14ClientProtocol22make_pbs_ident_messageERNS_4util43BasicResettableExpandableBufferOutputStreamIcNSt3__111char_traitsIcEENS4_9allocatorIcEEEEyNS_4sync15SaltedFileIdentERKNSB_12SyncProgressE",
            "___bid128_fma",
            "__ZN5realm14NotImplementedD0Ev",
            "__ZNK5realm4sync13ClientHistory18find_history_entryEyyRNS0_12HistoryEntryE",
            "__ZN5realm10converters24InterRealmValueConverter18track_new_embeddedERKNS_3ObjES4_",
            "__ZN5realm5Group10get_objectENS_7ObjLinkE",
            "__ZN5realm4sync9websocket6Socket17async_write_frameEbNS1_6OpcodeEPKcmNS_4util14UniqueFunctionIFvvEEE",
            "__ZN5realm4sync10ClientImpl7Session29receive_test_command_responseEyNSt3__117basic_string_viewIcNS3_11char_traitsIcEEEE",
            "__ZN5realm12query_parser17InvalidQueryErrorD0Ev",
            "__ZNK5realm7Cluster16remove_backlinksENS_6ObjKeyENS_6ColKeyERKNSt3__16vectorINS_7ObjLinkENS3_9allocatorIS5_EEEERNS_12CascadeStateE",
            "__ZN5realm4sync10ClientImpl10Connection21receive_ident_messageEyNS0_15SaltedFileIdentE",
            "__ZN5realm5Query12size_betweenENS_6ColKeyExx",
            "__ZN5realm8IndexSet19shift_for_insert_atEmm",
            "__ZN5realm4sync18InstructionApplier17allows_null_linksERKNS0_5instr15PathInstructionERKNSt3__117basic_string_viewIcNS6_11char_traitsIcEEEE",
            "__ZN5realm5_impl14ServerProtocol18make_ident_messageEiRNS_4util43BasicResettableExpandableBufferOutputStreamIcNSt3__111char_traitsIcEENS4_9allocatorIcEEEEyyx",
            "__ZNK5realm11ClusterTree8get_nodeEPNS_11ArrayParentEm",
            "__ZN5realm5Query10less_equalENS_6ColKeyEd",
            "__ZN5realm4util14SemaphoreMutex6unlockEv",
            "__ZN5realm4sync14SessionWrapper43handle_pending_client_reset_acknowledgementEv",
            "__ZNK5realm7Results17get_object_schemaEv",
            "__ZN5realm11Transaction14import_copy_ofERKNS_7LstBaseE",
            "__ZN5realm4util5msyncEiPvm",
            "__ZN5realm4sync13ClientHistory6ArraysC2ERNS_2DBERNS_5GroupE",
            "__ZN5realm5_impl12client_reset29RecoverLocalChangesetsHandlerD0Ev",
            "__ZN5realm4util20EncryptedFileMappingD1Ev",
            "__Z31RLMConvertBsonDocumentToRLMBSONNSt3__18optionalIN5realm4bson10IndexedMapINS2_4BsonEEEEE",
            "__ZN5realm19StringNodeEqualBase4initEb",
            "__ZN5realm14ArrayTimestamp6insertEmNS_9TimestampE",
            "__ZN5realm5Realm21notify_schema_changedEv",
            "__ZN5realm3Obj6removeEv",
            "__ZNK5realm4Node13calc_byte_lenEmm",
            "__ZNK5realm12object_store10Dictionary8containsENS_10StringDataE",
            "__ZN5realm5_impl16RealmCoordinator10set_configERKNS_11RealmConfigE",
            "__ZN5realm4sync14SessionWrapper10on_resumedEv",
            "__ZNK5realm14ExpressionNode5cloneEv",
            "__ZN5realm5Group12do_get_tableEm",
            "__ZN5realm5Realm27run_writes_on_proper_threadEv",
            "__ZN5realm4sync10ClientImpl25drain_connections_on_loopEv",
            "__ZN5realm10ParentNodeC2ERKS0_",
            "__ZN5realm4sync10ClientImpl10Connection17handle_ping_delayEv",
            "___bid128dd_div",
            "__ZN5realm12ObjectSchemaC2Ev",
            "__ZN5realm4util14SemaphoreMutex4lockEv",
            "__ZN5realm4util11RobustMutex18try_low_level_lockEv",
            "__ZNK5realm4util4File14get_descriptorEv",
            "__ZN5realm5_impl16RealmCoordinator16promote_to_writeERNS_5RealmE",
            "__ZN5realm4sync17SubscriptionStoreC2ENSt3__110shared_ptrINS_2DBEEENS_4util14UniqueFunctionIFvxEEE",
            "__ZNK5realm10IndexArray9from_listILNS_11IndexMethodE1EEExNS_5MixedERNS_18InternalFindResultERKNS_13IntegerColumnERKNS_13ClusterColumnE",
            "__ZN5realm4sync10ClientImpl7Session43handle_pending_client_reset_acknowledgementEv",
            "__ZN5realm3app3App30UsernamePasswordProviderClient28call_reset_password_functionERKNSt3__112basic_stringIcNS3_11char_traitsIcEENS3_9allocatorIcEEEESB_RKNS3_6vectorINS_4bson4BsonENS7_ISE_EEEEONS_4util14UniqueFunctionIFvNS3_8optionalINS0_8AppErrorEEEEEE",
            "_RLMCreateObjectInRealmWithValue",
            "__ZN5realm5_impl11transaction7advanceERNS_11TransactionERNS0_21TransactionChangeInfoENS_9VersionIDE",
            "__ZN5realm12ArrayIntNull4moveERS0_m",
            "__ZN5realm4sync7Session28on_new_flx_sync_subscriptionEx",
            "__ZN5realm5_impl14ClientProtocol27make_upload_message_builderEv",
            "__ZNK5realm7Results8get_typeEv",
            "__ZN5realm10DictionaryD0Ev",
            "__ZN5realm5_impl19ListResultsNotifier17calculate_changesEv",
            "__ZN5realm5_impl14ClientProtocol19compressed_hex_dumpENS_10BinaryDataE",
            "__ZN5realm5Group42get_target_file_format_version_for_sessionEii",
            "__ZN5realm5_impl19SystemConfiguration6sharedEv",
            "__ZNK5realm4sync7network20OpensslErrorCategory4nameEv",
            "__ZNK5realm11SyncManager27get_existing_logged_in_userERKNSt3__112basic_stringIcNS1_11char_traitsIcEENS1_9allocatorIcEEEE",
            "__ZN5realm5GroupC1ERKNSt3__112basic_stringIcNS1_11char_traitsIcEENS1_9allocatorIcEEEEPKc",
            "__ZNK5realm5Realm27current_transaction_versionEv",
            "__ZN5realm15ObjectChangeSet6verifyEv",
            "__ZNK5realm5Table13is_enumeratedENS_6ColKeyE",
            "__ZN5realm3app3App24UserAPIKeyProviderClient14enable_api_keyERKNS_8ObjectIdERKNSt3__110shared_ptrINS_8SyncUserEEEONS_4util14UniqueFunctionIFvNS6_8optionalINS0_8AppErrorEEEEEE",
            "__ZN5realm9Tokenizer5resetENSt3__117basic_string_viewIcNS1_11char_traitsIcEEEE",
            "__ZN5realm5Group12do_add_tableENS_10StringDataENS_5Table4TypeEb",
            "__ZN5realm13ConstTableRef13unsafe_createEPKNS_5TableE",
            "__ZN5realm4sync14MigrationStore17make_subscriptionERKNSt3__112basic_stringIcNS2_11char_traitsIcEENS2_9allocatorIcEEEESA_",
            "__ZNK5realm12ArrayInteger7get_anyEm",
            "__ZNK5realm4sync6Client20decompose_server_urlERKNSt3__112basic_stringIcNS2_11char_traitsIcEENS2_9allocatorIcEEEERNS0_16ProtocolEnvelopeERS8_RtSD_",
            "__ZN5realm11GroupWriter9MapWindowC1EmRNS_4util4FileEmmPNS2_11WriteMarkerE",
            "__ZNK5realm5Group15key2ndx_checkedENS_8TableKeyE",
            "__ZN5realm10converters25InterRealmObjectConverter4copyERKNS_3ObjERS2_Pb",
            "__ZN5realm12object_store3SetC1ERKS1_",
            "__ZN5realm14ResultsSection4sizeEv",
            "__ZN5realm5_impl16RealmCoordinator41clear_schema_cache_and_set_schema_versionEy",
            "__ZN5realm14ArrayTimestamp3setEmNS_9TimestampE",
            "_RLMEventRecordEvent",
            "__ZN5realm5TableC2ERNS_9AllocatorE",
            "__ZN5realm4sync10ClientImpl7Session22begin_resumption_delayERKNS0_17ProtocolErrorInfoE",
            "__ZN5realm5Table14set_table_typeENS0_4TypeEb",
            "__ZN5realm4sync10ClientImpl7Session20integrate_changesetsERNS0_17ClientReplicationERKNS0_12SyncProgressEyRKNSt3__16vectorINS0_11Transformer15RemoteChangesetENS8_9allocatorISB_EEEERNS0_11VersionInfoENS0_18DownloadBatchStateE",
            "__ZNK5realm12ArrayIntNull15can_use_as_nullEx",
            "__ZN5realm14NotImplementedD1Ev",
            "__ZN5realm4sync15SyncReplication17link_list_nullifyERKNS_3LstINS_6ObjKeyEEEm",
            "__ZN5realm10Decimal128C2Ei",
            "__ZN13RLMSchemaInfoixEN5realm8TableKeyE",
            "__ZN5realm4sync32parse_base64_encoded_primary_keyENSt3__117basic_string_viewIcNS1_11char_traitsIcEEEE",
            "__ZN5realm5Realm16get_shared_realmENS_11RealmConfigE",
            "__ZN5realm5GroupC2Ev",
            "__ZNK5realm5Group8set_sizeEv",
            "__ZN5realm3app3App15update_hostnameERKNSt3__112basic_stringIcNS2_11char_traitsIcEENS2_9allocatorIcEEEERKNS2_8optionalIS8_EE",
            "__ZNK5realm14ResultsSection8is_validEv",
            "__ZN5realm9SlabAlloc19push_freelist_entryEPNS0_9FreeBlockE",
            "__ZN5realm4sync18InstructionApplier12PathResolver26resolve_dictionary_elementERNS_10DictionaryENS0_12InternStringE",
            "__ZN5realm4sync7network10SocketBase11get_serviceEv",
            "__ZN5realm11SyncSession28unregister_progress_notifierEy",
            "__ZN5realm5_impl19ListResultsNotifier12release_dataEv",
            "__ZNK5realm4sync15SubscriptionSet7versionEv",
            "__ZNK5realm5Realm15verify_in_writeEv",
            "__ZNK5realm10Decimal128mlEi",
            "__ZN5realm5_impl14ChangesetIndex28get_modifications_for_objectENS_4sync8GlobalIDE",
            "__ZN5realm22SyncFileActionMetadataC1ENS0_6SchemaENSt3__110shared_ptrINS_5RealmEEERKNS_3ObjE",
            "__ZN5realm4util9Scheduler13make_dispatchEPv",
            "__ZN5realm10Decimal128C1Ei",
            "_RLMSetSwiftPropertyObject",
            "_RLMGetSwiftPropertyAny",
            "_RLMRunAsyncNotifiers",
            "__ZN5realm16SyncUserMetadataC2ENS0_6SchemaENSt3__110shared_ptrINS_5RealmEEERKNS_3ObjE",
            "__ZN5realm5_impl16RealmCoordinator19notifiers_for_realmERNS_5RealmE",
            "__ZNK5realm4List4findEONS_5QueryE",
            "__ZN5realm4sync10ClientImpl10Connection21receive_error_messageERKNS0_17ProtocolErrorInfoEy",
            "__ZN5realm5Table16batch_erase_rowsERKNS_9BPlusTreeINS_6ObjKeyEEE",
            "__ZN5realm4util6sha256EPKcmPh",
            "__ZNK5realm11ClusterTree7get_ndxENS_6ObjKeyE",
            "__ZN5realm5_impl14ChangesetIndex5clearEv",
            "__ZN5realm5Table13create_objectENS_6ObjKeyERKNS_11FieldValuesE",
            "__ZN5realm15ObjectChangeSet20modifications_removeENS_6ObjKeyE",
            "__ZN5realm4sync23make_client_replicationEv",
            "__ZN5realm4ListC1EOS0_",
            "__ZN5realm11SyncManager8get_userERKNSt3__112basic_stringIcNS1_11char_traitsIcEENS1_9allocatorIcEEEES7_S7_S7_S7_",
            "__ZN5realm5_impl16RealmCoordinator17advance_to_latestERNS_5RealmE",
            "__ZN5realm9Tokenizer14get_all_tokensEv",
            "__ZN5realm4sync10ClientImplC2ENS0_12ClientConfigE",
            "__ZN5realm5Query9not_equalENS_6ColKeyENS_10BinaryDataEb",
            "__ZN5realm4sync17SubscriptionStore37notify_all_state_change_notificationsENS_6StatusE",
            "__ZNK5realm4List3getINS_3ObjEEET_m",
            "__ZNK5realm10Decimal128ltERKS0_",
            "__ZN5realm5Group21remap_and_update_refsEmmb",
            "_RLMEventUpdateMetadata",
            "___bid128dq_mul",
            "__ZN5realm5Table15find_all_doubleENS_6ColKeyEd",
            "__ZNK5realm11ClusterTree8get_leafENS_6ObjKeyERNS_11ClusterNode13IteratorStateE",
            "__ZNK5realm10Dictionary3getENS_5MixedE",
            "__ZN5realm4sync22MutableSubscriptionSet16insert_or_assignENSt3__117basic_string_viewIcNS2_11char_traitsIcEEEERKNS_5QueryE",
            "__ZN5realm11ObjectStore17schema_from_groupERKNS_5GroupE",
            "__ZN5realm11GroupWriter9MapWindowD1Ev",
            "__ZN5realm7Cluster8add_leafENS_6ColKeyEm",
            "__ZN5realm4util11compression33allocate_and_compress_nonportableENS0_4SpanIKcLm18446744073709551615EEE",
            "__ZNK5realm5Table10get_loggerEv",
            "__ZN5realm9SlabAlloc15note_reader_endEPKv",
            "__ZNK5realm16SyncUserMetadata10local_uuidEv",
            "__ZNK5realm14ExpressionNode20collect_dependenciesERNSt3__16vectorINS_8TableKeyENS1_9allocatorIS3_EEEE",
            "__ZN5realm21make_in_realm_historyEv",
            "__ZN5realm11StringIndex10TreeInsertENS_6ObjKeyEimNS_10StringDataERKNS_5MixedE",
            "__ZN5realm5Query7betweenENS_6ColKeyENS_10Decimal128ES2_",
            "__ZN5realm9GlobalKey11from_stringENS_10StringDataE",
            "__ZN5realm3app14AppCredentials8functionERKNS_4bson10IndexedMapINS2_4BsonEEE",
            "__ZNK5realm7SetBase11insert_replEPNS_11ReplicationEmNS_5MixedE",
            "__ZN5realm5_impl18CollectionNotifier12release_dataEv",
            "__ZN5realm11FieldValues6insertENS_6ColKeyENS_5MixedEb",
            "___bid64_to_bid128",
            "__ZN5realm11SyncManagerC2Ev",
            "__ZN5realm4util15InvocationQueue4pushEONS0_14UniqueFunctionIFvvEEE",
            "__ZN5realm5_impl12client_reset29RecoverLocalChangesetsHandler16RecoveryResolver9list_pathEv",
            "__ZN5realm8SyncUser19update_user_profileERKNS_15SyncUserProfileE",
            "__ZN5realm20CrossTableLinkTargetD0Ev",
            "_RLMVerifyInWriteTransaction",
            "__ZNK5realm13ArrayBacklink12get_backlinkEmm",
            "__ZN5realm7Cluster13remove_columnENS_6ColKeyE",
            "__ZN5realm4UUIDC2ENS_10StringDataE",
            "__ZN5realm4util9Scheduler21make_platform_defaultEv",
            "__ZN5realm16ArrayStringShort8find_allERNS_13IntegerColumnENS_10StringDataEmmm",
            "__ZN5realm5_impl17DeepChangeChecker20check_outgoing_linksERKNS_5TableENS_6ObjKeyERKNSt3__16vectorINS_6ColKeyENS6_9allocatorIS8_EEEEm",
            "__ZN5realm4sync18InstructionApplierclERKNS0_5instr10EraseTableE",
            "__ZN5realm11StringIndex9do_insertENS_6ObjKeyEimNS_10StringDataERKNS_5MixedE",
            "__ZN5realm12object_store3Set27assign_symmetric_differenceERKNS0_10CollectionE",
            "__ZN5realm14OutOfDiskSpaceD1Ev",
            "__ZN5realm5_impl18CollectionNotifier24get_modification_checkerERKNS0_21TransactionChangeInfoENS_13ConstTableRefE",
            "__ZN5realm16ClusterNodeInner6insertENS_6ObjKeyERKNS_11FieldValuesERNS_11ClusterNode5StateE",
            "__ZN5realm5_impl15TransformerImpl16merge_changesetsEyPNS_4sync9ChangesetEmPS4_mRNS_4util6LoggerE",
            "__ZN5realm5_impl16RealmCoordinator25async_request_write_mutexERNS_5RealmE",
            "__ZNK5realm4sync17SubscriptionStore10get_latestEv",
            "__ZN5realm7metrics15TransactionInfoC2ENS1_15TransactionTypeE",
            "__ZN5realm10DictionaryC1ERKNS_3ObjENS_6ColKeyE",
            "__ZN5realm4sync15SyncReplication10as_payloadENS_5MixedE",
            "__ZN5realm4Spec12erase_columnEm",
            "__ZNK5realm6LnkLst15get_sorted_viewENS_6ColKeyEb",
            "__ZN5realm3LstINS_6ObjKeyEE6do_setEmS1_",
            "__ZN5realm4util6Thread4joinEv",
            "__ZN5realm4sync7network10SocketBase4openERKNS1_14StreamProtocolERNSt3__110error_codeE",
            "__ZN5realm6Status9ErrorInfoC1ENS_10ErrorCodes5ErrorENSt3__117basic_string_viewIcNS4_11char_traitsIcEEEE",
            "__ZN5realm5_impl15ResultsNotifier12release_dataEv",
            "__ZN5realm12object_store10Dictionary9try_eraseENS_10StringDataE",
            "__ZN5realm11ObjectStore15rename_propertyERNS_5GroupERNS_6SchemaENS_10StringDataES5_S5_",
            "__ZN5realm4sync16ChangesetEncoder12append_valueENS_8ObjectIdE",
            "__ZNK5realm10Dictionary14clear_backlinkENS_5MixedERNS_12CascadeStateE",
            "__ZNK5realm4util4File8get_sizeEv",
            "___bid_round64_2_18",
            "__ZNK5realm10Dictionary9sort_keysERNSt3__16vectorImNS1_9allocatorImEEEEb",
            "__ZN12RLMClassInfoC2EP8RLMRealmP15RLMObjectSchemaNSt3__110unique_ptrIN5realm12ObjectSchemaENS4_14default_deleteIS7_EEEE",
            "__ZN5realm11Transaction21complete_async_commitEv",
            "__ZN5realm5_impl14ServerProtocol18make_alloc_messageERNS_4util43BasicResettableExpandableBufferOutputStreamIcNSt3__111char_traitsIcEENS4_9allocatorIcEEEEyy",
            "__ZN5realm9SlabAlloc6detachEv",
            "__ZN5realm4sync7network7Service17recycle_post_operERNS2_4ImplEPNS2_12PostOperBaseE",
            "__ZN5realm4sync6Client17shutdown_and_waitEv",
            "__ZNK5realm18DistinctDescriptor6sorterERKNS_5TableERKNS_14BaseDescriptor10IndexPairsE",
            "__ZN5realm7NotNode23find_first_covers_knownEmm",
            "__ZNK5realm5Table22get_opposite_table_keyENS_6ColKeyE",
            "___bid128_quantize",
            "__ZNK5realm3Obj8get_linkEv",
            "__ZN5realm16ClusterNodeInner19ensure_general_formEv",
            "__ZN5realm5_impl18CollectionNotifierD2Ev",
            "__ZN5realm9TokenizerD1Ev",
            "__ZN5realm4sync18InstructionApplier12PathResolverC1EPS1_RKNS0_5instr15PathInstructionERKNSt3__117basic_string_viewIcNS8_11char_traitsIcEEEE",
            "__ZN5realm9SyncErrorC2ENSt3__110error_codeENS1_17basic_string_viewIcNS1_11char_traitsIcEEEEbNS1_8optionalIS6_EENS1_6vectorINS_4sync26CompensatingWriteErrorInfoENS1_9allocatorISB_EEEE",
            "__ZN5realm11ArrayStringC1ERNS_9AllocatorE",
            "__ZN5realm13ArrayUnsigned3setEmy",
            "__ZN5realm4util16RunLoopSchedulerD1Ev",
            "__ZNK5realm13ArrayBacklink6verifyEv",
            "__ZNK5realm4List6filterENS_5QueryE",
            "__ZN5realm7Results3maxENS_6ColKeyE",
            "__ZN5realm5_impl23CollectionChangeBuilder6verifyEv",
            "__ZNK5realm10Decimal1288to_bid64Ev",
            "__ZN5realm11GroupWriter17sync_all_mappingsEv",
            "__ZN5realm4sync9websocket6Config31websocket_pong_message_receivedEPKcm",
            "__ZN5realm5QueryaSERKS0_",
            "__ZNK5realm4sync22MutableSubscriptionSet16check_is_mutableEv",
            "__ZN5realm11SyncManager28immediately_run_file_actionsERKNSt3__112basic_stringIcNS1_11char_traitsIcEENS1_9allocatorIcEEEE",
            "__ZN5realm5_impl15NotifierPackageC1ENSt3__16vectorINS2_10shared_ptrINS0_18CollectionNotifierEEENS2_9allocatorIS6_EEEENS4_INS_11TransactionEEE",
            "__ZN5realm4util10serializer11print_valueINS_6ObjKeyEEENSt3__112basic_stringIcNS4_11char_traitsIcEENS4_9allocatorIcEEEET_",
            "___bid64qdq_fma",
            "__ZN5realm9SlabAlloc10free_blockEmPNS0_9FreeBlockE",
            "__ZN5realm5Group25update_allocator_wrappersEb",
            "__ZN5realm4sync16ChangesetEncoderclERKNS0_5instr10EraseTableE",
            "__ZN5realm17NotificationTokenC2ENSt3__110shared_ptrINS_5_impl18CollectionNotifierEEEy",
            "__ZN5realm16SectionedResults30calculate_sections_if_requiredEv",
            "__ZN5realm5Table19set_opposite_columnENS_6ColKeyENS_8TableKeyES1_",
            "__ZN5realm2DB18finish_begin_writeEv",
            "__ZN5realm5Table21add_column_dictionaryENS_8DataTypeENS_10StringDataEbS1_",
            "__ZN5realm11ArrayString12upgrade_leafEm",
            "__ZN5realm5_impl26parse_authorization_headerERKNSt3__112basic_stringIcNS1_11char_traitsIcEENS1_9allocatorIcEEEE",
            "__ZN5realm15ArraySmallBlobs12create_arrayEmRNS_9AllocatorENS_10BinaryDataE",
            "__ZN5realm5_impl12client_reset29RecoverLocalChangesetsHandler16RecoveryResolverD2Ev",
            "__ZN5realm11ArrayString5clearEv",
            "__ZNK5realm5_impl18CollectionNotifier22all_callbacks_filteredEv",
            "__ZN5realm7ResultsC2EOS0_",
            "__ZN5realm9TableView8distinctENS_6ColKeyE",
            "__ZNK5realm10Geospatial10get_regionEv",
            "__ZN5realm12object_store3Set6insertIiEENSt3__14pairImbEET_",
            "__ZN5realm4sync18InstructionApplier12PathResolver21on_list_index_advanceEj",
            "__ZN5realm11ObjectStore15needs_migrationERKNSt3__16vectorINS_12SchemaChangeENS1_9allocatorIS3_EEEE",
            "__ZN5realm5Realm11transactionEv",
            "__ZN5realm5GroupD0Ev",
            "__ZN5realm7ResultsC2ENSt3__110shared_ptrINS_5RealmEEENS_9TableViewENS_18DescriptorOrderingE",
            "__ZNK5realm5Mixed3getINSt3__18optionalIbEEEET_v",
            "_RLMGetSwiftPropertyInt64",
            "__ZN5realm4sync7network3ssl6Stream8ssl_initEv",
            "__ZN5realm5QueryC1ENS_13ConstTableRefEPNS_9TableViewE",
            "__ZN5realm5Realm32read_schema_from_group_if_neededEv",
            "__ZN5realm5Table13remove_columnENS_6ColKeyE",
            "__ZN5realm11Transaction9duplicateEv",
            "__ZN5realm4sync10ClientImpl10Connection30close_due_to_server_side_errorENS0_13ProtocolErrorERKNS0_17ProtocolErrorInfoE",
            "__ZN5realm6LnkLst22remove_all_target_rowsEv",
            "__ZN5realm11SyncSession13become_activeEv",
            "__ZN5realm15SyncFileManager15try_file_existsERKNSt3__112basic_stringIcNS1_11char_traitsIcEENS1_9allocatorIcEEEE",
            "__ZN5realm5Table15find_all_stringENS_6ColKeyENS_10StringDataE",
            "__Z17RLMWrapCompletionU13block_pointerFvP7NSErrorE",
            "__ZN5realm3Obj3setINS_10GeospatialEEERS0_NS_6ColKeyET_b",
            "__ZN5realm4sync10ClientImpl7Session25send_query_change_messageEv",
            "__ZN5realm5Group18DefaultTableWriter13write_historyERNS_5_impl12OutputStreamE",
            "__ZN5realm5Table15migrate_indexesENS_6ColKeyE",
            "__ZNK5realm4List8find_anyENS_5MixedE",
            "___bid128dqq_fma",
            "__ZNK5realm5MixeddvERKS0_",
            "__ZNK5realm4sync7network10SocketBase10map_optionENS2_8opt_enumERiS4_",
            "__ZN5realm16SectionedResultsixENS_5MixedE",
            "__ZN5realm7NotNode12update_knownEmmm",
            "__ZNK5realm15SyncFileManager31fallback_hashed_realm_file_pathERKNSt3__112basic_stringIcNS1_11char_traitsIcEENS1_9allocatorIcEEEE",
            "__ZN5realm9TableViewC2ERS0_PNS_11TransactionENS_13PayloadPolicyE",
            "__ZN5realm5Group18create_empty_groupEv",
            "__ZN5realm11Transaction17prepare_for_closeEv",
            "___bid32_from_uint64",
            "__ZNK5realm4List9get_tableEv",
            "__ZN5realm4sync14SessionWrapper42wait_for_upload_complete_or_client_stoppedEv",
            "__ZN5realm11NoSuchTableD1Ev",
            "__ZN5realm4sync13ClientHistory27integrate_server_changesetsERKNS0_12SyncProgressEPKyNS_4util4SpanIKNS0_11Transformer15RemoteChangesetELm18446744073709551615EEERNS0_11VersionInfoENS0_18DownloadBatchStateERNS7_6LoggerERKNSt3__110shared_ptrINS_11TransactionEEENS7_14UniqueFunctionIFvSN_NS8_INS0_9ChangesetELm18446744073709551615EEEEEEPNS1_20SyncTransactReporterE",
            "__Z27RLMThrowCollectionExceptionP8NSString",
            "__ZN5realm2DB10set_loggerERKNSt3__110shared_ptrINS_4util6LoggerEEE",
            "__Z28RLMReplaceSharedSchemaMethodP10objc_classP15RLMObjectSchema",
            "__ZN5realm16InvalidColumnKeyD1Ev",
            "__ZN5realm36InvalidAdditiveSchemaChangeExceptionC1ERKNSt3__16vectorINS_31ObjectSchemaValidationExceptionENS1_9allocatorIS3_EEEE",
            "___bid128_to_int64_rninta",
            "__ZNK5realm15SyncFileManager21get_special_directoryENSt3__112basic_stringIcNS1_11char_traitsIcEENS1_9allocatorIcEEEE",
            "__ZN5realm5_impl14ServerProtocol40insert_single_changeset_download_messageERNS_4util43BasicResettableExpandableBufferOutputStreamIcNSt3__111char_traitsIcEENS4_9allocatorIcEEEERKNS1_13ChangesetInfoERNS2_6LoggerE",
            "__ZN5realm2DB11start_writeEb",
            "__ZN5realm3app13MongoDatabaseixERKNSt3__112basic_stringIcNS2_11char_traitsIcEENS2_9allocatorIcEEEE",
            "__ZNK5realm10Dictionary6verifyEv",
            "__ZN5realm4sync18InstructionApplier12PathResolver17on_dictionary_keyERNS_10DictionaryENS_5MixedE",
            "__ZNK5realm4sync17SubscriptionStore25get_pending_subscriptionsEv",
            "__ZNK5realm16SyncUserMetadata13provider_typeEv",
            "__ZN12RLMClassInfoC2EP8RLMRealmP15RLMObjectSchemaPKN5realm12ObjectSchemaE",
            "__ZN5realm4sync14SessionWrapper12on_suspendedERKNS0_16SessionErrorInfoE",
            "__ZN5realm11SyncSession26set_sync_transact_callbackEONSt3__18functionIFvNS_9VersionIDES3_EEE",
            "__ZNK5realm3Obj7is_nullENS_6ColKeyE",
            "__ZNK5realm8ObjectId8to_bytesEv",
            "__ZN5realm11TypeOfValueC2ERKNS_8DataTypeE",
            "_RLMSwiftValueStorageGetPropertyName",
            "__ZN5realm4sync16ChangesetEncoder12append_valueEf",
            "__ZNK5realm8SyncUser11custom_dataEv",
            "__ZN5realm3app15MongoCollection15update_one_bsonERKNS_4bson10IndexedMapINS2_4BsonEEES7_bONS_4util14UniqueFunctionIFvONSt3__18optionalIS4_EENSB_INS0_8AppErrorEEEEEE",
            "__ZNK5realm22SyncFileActionMetadata3urlEv",
            "__ZN5realm4util18uri_percent_decodeERKNSt3__112basic_stringIcNS1_11char_traitsIcEENS1_9allocatorIcEEEE",
            "__ZN5realm18get_data_type_nameENS_8DataTypeE",
            "__ZN5realm4sync14SessionWrapper31get_flx_pending_bootstrap_storeEv",
            "__ZN5realm3app15MongoCollection4findERKNS_4bson10IndexedMapINS2_4BsonEEERKNS1_11FindOptionsEONS_4util14UniqueFunctionIFvONSt3__18optionalINSD_6vectorIS4_NSD_9allocatorIS4_EEEEEENSE_INS0_8AppErrorEEEEEE",
            "__ZN5realm4sync7Session23nonsync_transact_notifyEy",
            "__ZN5realm5QueryC2EOS0_",
            "__ZN5realm3app3App17init_app_metadataEONS_4util14UniqueFunctionIFvRKNSt3__18optionalINS0_8ResponseEEEEEERKNS5_INS4_12basic_stringIcNS4_11char_traitsIcEENS4_9allocatorIcEEEEEE",
            "__ZNK5realm12object_store10Collection8snapshotEv",
            "__ZNK5realm10IndexArray18index_string_countENS_5MixedERKNS_13ClusterColumnE",
            "__ZNK5realm11ClusterTree8Iterator9load_leafENS_6ObjKeyE",
            "__ZNK5realm5_impl17TransactLogParser12parser_errorEv",
            "__ZNK5realm5Query6removeEv",
            "__ZN5realm10ParentNode10find_firstEmm",
            "__ZN5realm7metrics7MetricsC1Em",
            "__ZN5realm4util6formatEPKcSt16initializer_listINS0_9PrintableEE",
            "__ZN5realm3Obj17get_backlink_viewENS_8TableRefENS_6ColKeyE",
            "__ZN5realm4util4File19is_same_file_staticEii",
            "__ZN5realm11ArrayBinary4moveERS0_m",
            "__ZN5realm4sync30client_error_to_protocol_errorENS0_11ClientErrorE",
            "__ZN5realm11TypeOfValueC2ERKNSt3__112basic_stringIcNS1_11char_traitsIcEENS1_9allocatorIcEEEE",
            "__ZN5realm9SlabAllocC1Ev",
            "__ZN5realm5Query9not_equalENS_6ColKeyENS_9TimestampE",
            "__ZN5realm4util14SemaphoreMutexC2Ev",
            "__ZNK5realm13ClusterColumn12get_all_keysEv",
            "__ZN5realm10ArrayMixed20erase_linked_payloadEm",
            "__ZN5realm11SyncSession44save_sync_config_after_migration_or_rollbackEv",
            "__ZN5realm4sync10ClientImpl10Connection29initiate_session_deactivationEPNS1_7SessionE",
            "__ZN5realm4util19InterprocessCondVar15set_shared_partERNS1_10SharedPartENSt3__112basic_stringIcNS4_11char_traitsIcEENS4_9allocatorIcEEEESA_SA_",
            "__ZN5realm5_impl23CollectionChangeBuilder6insertEmmb",
            "__ZN5realm4sync7network13DeadlineTimer13initiate_operENSt3__110unique_ptrINS1_7Service12WaitOperBaseENS5_18LendersOperDeleterEEE",
            "__ZN5realm4sync10ClientImpl10Connection19handle_pong_timeoutEv",
            "__ZN18RLMObservationInfoC1ER12RLMClassInfoN5realm6ObjKeyEP11objc_object",
            "__ZNK5realm5_impl18CollectionNotifier8is_aliveEv",
            "__ZN5realm7Results17sectioned_resultsEONS_4util14UniqueFunctionIFNS_5MixedES3_RKNSt3__110shared_ptrINS_5RealmEEEEEE",
            "__ZN5realm5_impl27NetworkReachabilityObserver14stop_observingEv",
            "__ZN5realm2DB14call_with_lockERKNSt3__112basic_stringIcNS1_11char_traitsIcEENS1_9allocatorIcEEEEONS_4util11FunctionRefIFvS9_EEE",
            "__ZN5realm4sync18InstructionApplier12PathResolverD1Ev",
            "__ZN5realm8SyncUser24session_for_on_disk_pathERKNSt3__112basic_stringIcNS1_11char_traitsIcEENS1_9allocatorIcEEEE",
            "__ZNK5realm7Cluster16remove_backlinksENS_6ObjKeyENS_6ColKeyERKNSt3__16vectorIS1_NS3_9allocatorIS1_EEEERNS_12CascadeStateE",
            "__ZN5realm18StringNodeFulltext13table_changedEv",
            "__ZN5realm4sync22MutableSubscriptionSet6commitEv",
            "__ZN5realm8SyncUser19refresh_custom_dataEbNS_4util14UniqueFunctionIFvNSt3__18optionalINS_3app8AppErrorEEEEEE",
            "__ZN5realm4sync7network7Service10Descriptor6acceptERS3_NS1_14StreamProtocolEPNS1_8EndpointERNSt3__110error_codeE",
            "__ZN5realm11Transaction14import_copy_ofERKNS_14CollectionBaseE",
            "__ZNK5realm3app3App19verify_user_presentERKNSt3__110shared_ptrINS_8SyncUserEEE",
            "__ZN5realm14BPlusTreeInner15bptree_traverseENS_4util11FunctionRefIFNS_15IteratorControlEPNS_13BPlusTreeNodeEmEEE",
            "__ZN5realm4util9BacktraceD1Ev",
            "___bid128_quiet_greater",
            "_RLMIsObjectSubclass",
            "__ZN5realm5_impl20ExternalCommitHelperD2Ev",
            "__ZN5realm9SlabAllocD0Ev",
            "__ZN5realm4util9mmap_anonEm",
            "__ZNK5realm10Dictionary13distinct_keysERNSt3__16vectorImNS1_9allocatorImEEEENS1_8optionalIbEE",
            "___bid64_from_uint64",
            "__ZN5realm5Query4lessENS_6ColKeyENS_10Decimal128E",
            "__ZN5realm9GeoRegionD1Ev",
            "_RLMObjectBaseRealm",
            "__ZN5realm7metrics15TransactionInfoD2Ev",
            "__ZN5realm14ExpressionNode4initEb",
            "__ZN5realm4sync9websocket6SocketC2EOS2_",
            "__ZN5realm4sync14SessionWrapper22cancel_reconnect_delayEv",
            "__ZN5realm4util27create_timestamped_templateERKNSt3__112basic_stringIcNS1_11char_traitsIcEENS1_9allocatorIcEEEEi",
            "_RLMSetSwiftPropertyString",
            "__ZN5realm8SyncUserC1ENSt3__112basic_stringIcNS1_11char_traitsIcEENS1_9allocatorIcEEEES7_S7_S7_NS0_5StateES7_PNS_11SyncManagerE",
            "__ZN5realm4util20EncryptedFileMapping3setEPvmm",
            "__ZN5realm11ClusterTree8IteratorC1ERKS1_",
            "__ZN5realm5Realm16get_shared_realmENS_19ThreadSafeReferenceENSt3__110shared_ptrINS_4util9SchedulerEEE",
            "__ZN5realm2DB9do_commitERNS_11TransactionEb",
            "__ZNK5realm5Table15find_all_doubleENS_6ColKeyEd",
            "__ZN5realm4sync14MigrationStore37get_sentinel_subscription_set_versionEv",
            "__ZNK5realm5_impl18ChunkedRangeVector6verifyEv",
            "__ZN5realm22NoSubscriptionForWriteD2Ev",
            "__ZN5realm4sync16ChangesetEncoder12append_valueENS_10Decimal128E",
            "__ZN5realm4List15insert_embeddedEm",
            "__ZN5realm4sync10ClientImpl10Connection27finish_session_deactivationEPNS1_7SessionE",
            "__ZN5realm11StringIndex5eraseENS_6ObjKeyE",
            "__ZN5realm8Subexpr2INS_10StringDataEE8containsES1_b",
            "__ZN5realm5_impl12client_reset29RecoverLocalChangesetsHandlerclERKNS_4sync5instr12CreateObjectE",
            "__ZN5realm5Group12remove_tableENS_8TableKeyE",
            "__ZN5realm14BPlusTreeInnerC2EPNS_13BPlusTreeBaseE",
            "__ZN5realm4util10DirScanner4nextERNSt3__112basic_stringIcNS2_11char_traitsIcEENS2_9allocatorIcEEEE",
            "__ZNK5realm14BaseDescriptor6SorterclENS0_9IndexPairES2_b",
            "__Z22RLMIsRealmCachedAtPathP8NSString",
            "__ZN5realm11SyncSession14OnlyForTesting12handle_errorERS0_ONS_4sync16SessionErrorInfoE",
            "__ZN5realm3app3App11remove_userERKNSt3__110shared_ptrINS_8SyncUserEEEONS_4util14UniqueFunctionIFvNS2_8optionalINS0_8AppErrorEEEEEE",
            "__ZNK5realm5Table14schema_to_jsonERNSt3__113basic_ostreamIcNS1_11char_traitsIcEEEERKNS1_3mapINS1_12basic_stringIcS4_NS1_9allocatorIcEEEESB_NS1_4lessISB_EENS9_INS1_4pairIKSB_SB_EEEEEE",
            "__ZN5realm7Cluster18update_from_parentEv",
            "___bid64qqd_fma",
            "__ZN5realm4sync7network3ssl6Stream8ssl_readEPcmRNSt3__110error_codeERNS1_7Service4WantE",
            "__ZN5realm5_impl17DeepChangeCheckerclENS_6ObjKeyE",
            "__ZN5realm8IndexSet16erase_or_unshiftEm",
            "__ZNK5realm10Dictionary3maxEPm",
            "__ZNK5realm16ArrayStringShort15calc_item_countEmm",
            "__ZN5realm11Transaction8end_readEv",
            "__ZN5realm3app3App17clear_cached_appsEv",
            "__ZN5realm8IndexSet3setEm",
            "__ZN5realm4sync22MutableSubscriptionSet6importERKNS0_15SubscriptionSetE",
            "__ZNK5realm17ChunkedBinaryData15get_first_chunkEv",
            "__ZN5realm10StringNodeINS_8EqualInsEE17_find_first_localEmm",
            "__ZN5realm19DictionaryChangeSetC1ERKS0_",
            "__ZN5realm4sync14SessionWrapper23nonsync_transact_notifyEy",
            "__ZN5realm11GroupWriter14get_free_spaceEm",
            "__Z13RLMClearTableR12RLMClassInfo",
            "__ZN5realm4util4File13open_internalERKNSt3__112basic_stringIcNS2_11char_traitsIcEENS2_9allocatorIcEEEENS1_10AccessModeENS1_10CreateModeEiPb",
            "__ZNK5realm5Query3maxENS_6ColKeyEPNS_6ObjKeyE",
            "__ZN5realm5_impl15CopyReplication10list_clearERKNS_14CollectionBaseE",
            "__ZN5realm4List7set_anyEmNS_5MixedE",
            "__ZN5realm4sync7network6Socket22initiate_async_connectERKNS1_8EndpointERNSt3__110error_codeE",
            "__ZN5realm3app3App13call_functionERKNSt3__112basic_stringIcNS2_11char_traitsIcEENS2_9allocatorIcEEEERKNS2_6vectorINS_4bson4BsonENS6_ISD_EEEERKNS2_8optionalIS8_EEONS_4util14UniqueFunctionIFvONSI_ISD_EENSI_INS0_8AppErrorEEEEEE",
            "__ZN5realm14BPlusTreeInner14insert_bp_nodeEmmRNS_13BPlusTreeNode5StateE",
            "__ZN5realm2DB15wait_for_changeERNSt3__110shared_ptrINS_11TransactionEEE",
            "__ZN5realm5_impl15TransformerImpl9MajorSide7prependENS_4sync11InstructionE",
            "__ZNK5realm7Results4sortERKNSt3__16vectorINS1_4pairINS1_12basic_stringIcNS1_11char_traitsIcEENS1_9allocatorIcEEEEbEENS7_ISA_EEEE",
            "__ZN5realm5Table4initEmPNS_11ArrayParentEmbb",
            "__ZN5realm4sync7SessionC1ERNS0_6ClientENSt3__110shared_ptrINS_2DBEEENS5_INS0_17SubscriptionStoreEEENS5_INS0_14MigrationStoreEEEONS1_6ConfigE",
            "__ZNK5realm21AuditObjectSerializer13accessed_linkEyRKNS_3ObjENS_6ColKeyE",
            "__ZN5realm11ArrayBinary6createEv",
            "__ZN5realm4sync10ClientImpl10Connection22cancel_reconnect_delayEv",
            "__ZNK5realm10ArrayMixed21ensure_int_pair_arrayEv",
            "__ZN5realm10ArrayMixed5clearEv",
            "__ZN5realm3app13MongoDatabase10collectionERKNSt3__112basic_stringIcNS2_11char_traitsIcEENS2_9allocatorIcEEEE",
            "__ZN5realm5_impl15CopyReplication11list_insertERKNS_14CollectionBaseEmNS_5MixedEm",
            "__ZN5realm5_impl16RealmCoordinator12cache_schemaERKNS_6SchemaEyy",
            "__ZN5realm5_impl19SystemConfiguration30network_reachability_get_flagsEPK23__SCNetworkReachabilityPj",
            "__ZN5realm11ClusterTree8IteratorC2ERKS0_m",
            "__ZN5realm5Query8fulltextENS_6ColKeyENS_10StringDataE",
            "__ZNK5realm4sync10ClientImpl7Session6get_dbEv",
            "__ZN5realm5Query13greater_equalENS_6ColKeyENS_9TimestampE",
            "__ZN5realm6ObjectC2ERKNSt3__110shared_ptrINS_5RealmEEERKNS_3ObjE",
            "__ZN5realm4sync13ClientHistory27update_from_ref_and_versionEmy",
            "__ZN5realm16ClusterNodeInnerD1Ev",
            "__ZN5realm5Query7greaterENS_6ColKeyENS_9TimestampE",
            "__ZNK5realm12ArrayIntNull7get_anyEm",
            "__ZNK5realm10IndexArray16index_string_allENS_5MixedERNSt3__16vectorINS_6ObjKeyENS2_9allocatorIS4_EEEERKNS_13ClusterColumnE",
            "__ZN5realm11ObjectStore28verify_no_migration_requiredERKNSt3__16vectorINS_12SchemaChangeENS1_9allocatorIS3_EEEE",
            "__ZN5realm11Replication13create_objectEPKNS_5TableENS_9GlobalKeyE",
            "__ZNK5realm10IndexArray9from_listILNS_11IndexMethodE2EEExNS_5MixedERNS_18InternalFindResultERKNS_13IntegerColumnERKNS_13ClusterColumnE",
            "__ZN5realm4sync6ClientC2EOS1_",
            "__ZN5realm4sync15SyncReplication10as_payloadERKNS_5TableENS_6ColKeyENS_5MixedE",
            "__ZN5realm5Array12blob_replaceEmmPKcmb",
            "__ZN5realm5Query5equalENS_6ColKeyENS_9TimestampE",
            "__ZN5realm2DB18do_try_begin_writeEv",
            "__ZN5realm3app3App15provider_clientINS1_30UsernamePasswordProviderClientEEET_v",
            "__ZNK5realm3Obj14get_dictionaryENS_6ColKeyE",
            "__ZN5realm4util9BacktraceC2ERKS1_",
            "__ZN5realm5Query7greaterENS_6ColKeyENS_8ObjectIdE",
            "__ZNK5realm10StringNodeINS_5EqualEE8describeERNS_4util10serializer18SerialisationStateE",
            "__ZNK5realm9Exception9to_statusEv",
            "__ZNK5realm3Obj3getINSt3__18optionalINS_10GeospatialEEEEET_NS_6ColKeyE",
            "__ZN5realm4sync6ClientD2Ev",
            "__ZN5realm5Table23refresh_index_accessorsEv",
            "__ZNK5realm4sync7network28SecureTransportErrorCategory7messageEi",
            "__ZN5realm4sync17SubscriptionStore22get_mutable_by_versionEx",
            "__ZN5realm12query_parser20InvalidQueryArgErrorD0Ev",
            "__ZN5realm3LstINS_5MixedEE6do_setEmS1_",
            "__ZN5realm4util4File6is_dirERKNSt3__112basic_stringIcNS2_11char_traitsIcEENS2_9allocatorIcEEEE",
            "__ZN5realm11ObjectStore21table_for_object_typeERNS_5GroupENS_10StringDataE",
            "__ZN5realm4sync9Changeset13intern_stringENS_10StringDataE",
            "__ZN5realm7ResultsC2ERKS0_",
            "__ZN5realm3app15MongoCollection15delete_one_bsonERKNS_4bson10IndexedMapINS2_4BsonEEEONS_4util14UniqueFunctionIFvONSt3__18optionalIS4_EENSB_INS0_8AppErrorEEEEEE",
            "_RLMEventBeginScope",
            "_RLMSetSwiftPropertyDecimal128",
            "__ZN5realm4util10DirScannerC1ERKNSt3__112basic_stringIcNS2_11char_traitsIcEENS2_9allocatorIcEEEEb",
            "__ZNK5realm10Decimal128mlES0_",
            "__ZN5realm5_impl15NotifierPackage16package_and_waitEy",
            "__ZN5realm18DescriptorOrdering15append_distinctENS_18DistinctDescriptorE",
            "__ZN5realm5_impl16RealmCoordinator11can_advanceERNS_5RealmE",
            "__ZN5realm4sync16ChangesetEncoder12append_valueEj",
            "__ZNK5realm5Table14find_first_intENS_6ColKeyEx",
            "__ZN5realm3SetINS_6ObjKeyEE8do_eraseEm",
            "__ZN5realm4sync9websocket6Socket16async_write_pongEPKcmNS_4util14UniqueFunctionIFvvEEE",
            "__ZNK5realm5Mixed21accumulate_numeric_toERNS_10Decimal128E",
            "__ZN5realm11SyncSessionD1Ev",
            "__ZN5realm11ClusterTree5eraseENS_6ObjKeyERNS_12CascadeStateE",
            "__ZN5realm13ArrayUnsigned8truncateEm",
            "__ZN5realm5Realm17end_current_writeEb",
            "__ZN5realm4sync10ClientImpl7Session15call_debug_hookENS_19SyncClientHookEventERKNS0_12SyncProgressExNS0_18DownloadBatchStateEm",
            "__ZN5realm28UnsupportedFileFormatVersionD0Ev",
            "__ZN5realm21size_of_list_from_refEmRNS_9AllocatorENS_10ColumnTypeEb",
            "__ZN5realm4sync17ClientReplication20make_write_validatorERNS_11TransactionE",
            "__ZN5realm8SyncUserD2Ev",
            "__ZN5realm11ObjectStore20apply_schema_changesERNS_11TransactionEyRNS_6SchemaEyNS_10SchemaModeERKNSt3__16vectorINS_12SchemaChangeENS6_9allocatorIS8_EEEEbNS6_8functionIFvvEEE",
            "__ZN5realm6ObjectC2ERKNSt3__110shared_ptrINS_5RealmEEERKNS_12ObjectSchemaERKNS_3ObjESC_NS_6ColKeyE",
            "__ZN5realm5Array8set_typeENS_10NodeHeader4TypeE",
            "__ZN5realm5_impl14ChangesetIndex18add_instruction_atERNSt3__13mapIPNS_4sync9ChangesetENS2_6vectorINS5_5RangeENS2_9allocatorIS8_EEEENS1_33CompareChangesetPointersByVersionENS9_INS2_4pairIKS6_SB_EEEEEERS5_NS5_12IteratorImplILb0EEE",
            "__ZN5realm4util20MemoryInputStreambuf7seekposENSt3__14fposI11__mbstate_tEEj",
            "__ZN5realm5Table14convert_columnENS_6ColKeyES1_b",
            "__ZN5realm7metrics9QueryInfoC1EPKNS_5QueryENS1_9QueryTypeE",
            "__ZN5realm5_impl15CopyReplication3setEPKNS_5TableENS_6ColKeyENS_6ObjKeyENS_5MixedENS0_11InstructionE",
            "_RLMGetSwiftPropertyBoolOptional",
            "__ZN21RLMObservationTrackerD2Ev",
            "__ZN5realm11SyncSession24ConnectionChangeNotifier12add_callbackENSt3__18functionIFvNS0_15ConnectionStateES4_EEE",
            "__ZN5realm4util4File7barrierEv",
            "__ZN5realm4sync14SessionWrapper9actualizeENS0_14ServerEndpointE",
            "__ZNK5realm19SyncMetadataManager18all_unmarked_usersEv",
            "__ZN5realm4sync9websocket6Socket25initiate_client_handshakeERKNSt3__112basic_stringIcNS3_11char_traitsIcEENS3_9allocatorIcEEEESB_SB_NS3_3mapIS9_S9_NS0_35HeterogeneousCaseInsensitiveCompareENS7_INS3_4pairISA_S9_EEEEEE",
            "__ZN5realm5Query7greaterENS_6ColKeyENS_5MixedE",
            "__ZN5realm4Node11create_nodeEmRNS_9AllocatorEbNS_10NodeHeader4TypeENS3_9WidthTypeEi",
            "__ZNK5realm4Spec19is_string_enum_typeEm",
            "__ZN5realm5_impl15ResultsNotifierC2ERNS_7ResultsE",
            "__ZN5realm5_impl12client_reset29RecoverLocalChangesetsHandlerclERKNS_4sync5instr9AddColumnE",
            "__ZN5realm8IndexSet9do_removeENS_5_impl33MutableChunkedRangeVectorIteratorINSt3__111__wrap_iterIPNS1_18ChunkedRangeVector5ChunkEEEEEmm",
            "__ZN5realm3app3App9would_logENS_4util6Logger5LevelE",
            "__ZN5realm4sync9websocket6SocketD1Ev",
            "__ZNK5realm4sync15SubscriptionSet4sizeEv",
            "__ZN5realm11ObjectStore26table_name_for_object_typeENS_10StringDataE",
            "__ZN5realm5Table19do_add_search_indexENS_6ColKeyENS_9IndexTypeE",
            "__ZN5realm16ClusterNodeInner6updateENS_4util11FunctionRefIFvPNS_7ClusterEEEEx",
            "__ZN5realm7NotNode24find_first_overlap_upperEmm",
            "__ZN5realm5Table15get_sorted_viewENS_6ColKeyEb",
            "__ZN5realm5_impl15TransformerImpl24get_reciprocal_transformERNS_4sync16TransformHistoryEyyRKNS2_12HistoryEntryE",
            "__ZN5realm11SyncManager13set_log_levelENS_4util6Logger5LevelE",
            "__ZN5realm5Table18get_next_valid_keyEv",
            "__ZN5realm2DB18create_new_historyENSt3__110unique_ptrINS_11ReplicationENS1_14default_deleteIS3_EEEE",
            "__ZNR5realm6Object25add_notification_callbackENS_24CollectionChangeCallbackENSt3__18optionalINS2_6vectorINS4_INS2_4pairINS_8TableKeyENS_6ColKeyEEENS2_9allocatorIS8_EEEENS9_ISB_EEEEEE",
            "__ZNK5realm10Decimal128dvEx",
            "__ZN5realm19ObjectAlreadyExistsD1Ev",
            "__ZN5realm5_impl17DeepChangeChecker37do_check_for_collection_modificationsERKNS_3ObjENS_6ColKeyERKNSt3__16vectorIS5_NS6_9allocatorIS5_EEEEm",
            "__ZN5realm12ObjectSchemaC2ENSt3__112basic_stringIcNS1_11char_traitsIcEENS1_9allocatorIcEEEENS0_10ObjectTypeESt16initializer_listINS_8PropertyEESB_S7_",
            "__ZNK5realm4sync15SubscriptionSet26get_flx_subscription_storeEv",
            "__ZN5realm5_impl12client_reset8ListPath7ElementC1ERKNS1_13InternDictKeyE",
            "__ZN5realm14ResultsSectionC2EPNS_16SectionedResultsENS_5MixedE",
            "__ZN5realm15ObjectChangeSet16deletions_removeENS_6ObjKeyE",
            "__ZN5realm11KeyNotFoundD0Ev",
            "__ZN5realm15InvalidTableRefD2Ev",
            "__ZNK5realm11Transaction9replicateEPS0_RNS_11ReplicationE",
            "__ZN5realm4util12mmap_reserveEimm",
            "__ZN5realm4sync15SyncReplication20do_initiate_transactERNS_5GroupEyb",
            "__ZThn80_N5realm14BPlusTreeInnerD1Ev",
            "__ZN5realm15InvalidArgumentD0Ev",
            "__ZN5realm3app3App14get_shared_appERKNS1_6ConfigERKNS_16SyncClientConfigE",
            "__ZNK5realm11SyncSession12sync_managerEv",
            "__ZN5realm4sync7network6Socket22finalize_async_connectERNSt3__110error_codeE",
            "__ZNK5realm3Obj12get_backlinkERKNS_5TableENS_6ColKeyEm",
            "__Z13RLMWillChangeRKNSt3__16vectorIN5realm14BindingContext13ObserverStateENS_9allocatorIS3_EEEERKNS0_IPvNS4_IS9_EEEE",
            "__ZN5realm8SyncUser27set_binding_context_factoryENS_4util14UniqueFunctionIFNSt3__110shared_ptrINS_15SyncUserContextEEEvEEE",
            "__ZN5realm10Decimal128C1ENS_4nullE",
            "__ZN5realm4sync10ClientImpl7Session22on_download_completionEv",
            "__ZN5realm11ObjectStore18get_schema_versionERKNS_5GroupE",
            "__ZN5realm2DB25async_request_write_mutexERNSt3__110shared_ptrINS_11TransactionEEEONS_4util14UniqueFunctionIFvvEEE",
            "__ZN5realm4util10serializer11print_valueIRKNS_10GeospatialEEENSt3__112basic_stringIcNS6_11char_traitsIcEENS6_9allocatorIcEEEET_",
            "__ZN5realm8Subexpr2INS_10StringDataEE5equalES1_b",
            "__ZN5realm5_impl11GroupFriend23fake_target_file_formatENSt3__18optionalIiEE",
            "__ZNK5realm5Table17find_first_doubleENS_6ColKeyEd",
            "__ZN5realm4sync24ErrorTryAgainBackoffInfo14delay_intervalEv",
            "__ZN5realm3app11MongoClientixERKNSt3__112basic_stringIcNS2_11char_traitsIcEENS2_9allocatorIcEEEE",
            "__ZN5realm11Transaction21async_complete_writesENS_4util14UniqueFunctionIFvvEEE",
            "__ZN5realm11Transaction14import_copy_ofERKNSt3__110unique_ptrINS_6LnkSetENS1_14default_deleteIS3_EEEE",
            "__ZN5realm4sync14MigrationStore32create_sentinel_subscription_setERKNS0_17SubscriptionStoreE",
            "__ZN5realm2DB6createERKNSt3__112basic_stringIcNS1_11char_traitsIcEENS1_9allocatorIcEEEEbRKNS_9DBOptionsE",
            "__ZN5realm8Subexpr2INS_5MixedEE5equalES1_b",
            "_RLMDeleteObjectFromRealm",
            "__ZNK5realm18DescriptorOrdering13get_min_limitEv",
            "__ZN5realm3app3App7log_outERKNSt3__110shared_ptrINS_8SyncUserEEEONS_4util14UniqueFunctionIFvNS2_8optionalINS0_8AppErrorEEEEEE",
            "__ZN5realm8keychain31get_existing_metadata_realm_keyEv",
            "__ZN5realm9SlabAlloc15validate_headerEPKcmRKNSt3__112basic_stringIcNS3_11char_traitsIcEENS3_9allocatorIcEEEE",
            "__ZN5realm5_impl18CollectionNotifierD0Ev",
            "__ZNK5realm5Table10find_firstINSt3__18optionalIfEEEENS_6ObjKeyENS_6ColKeyET_",
            "__ZNO5realm3Obj12nullify_linkENS_6ColKeyENS_7ObjLinkE",
            "__ZNK5realm4List6freezeERKNSt3__110shared_ptrINS_5RealmEEE",
            "__ZN5realm5Array5cloneENS_6MemRefERNS_9AllocatorES3_",
            "__ZN5realm12object_store10Dictionary10remove_allEv",
            "__ZN5realm10DictionaryD2Ev",
            "__ZN5realm11ClusterTree18update_from_parentEv",
            "__ZN5realm11SyncManager11delete_userERKNSt3__112basic_stringIcNS1_11char_traitsIcEENS1_9allocatorIcEEEE",
            "__ZN5realm5_impl18ChunkedRangeVector5eraseENS0_33MutableChunkedRangeVectorIteratorINSt3__111__wrap_iterIPNS1_5ChunkEEEEE",
            "__ZNK5realm4sync15SyncReplication23unsupported_instructionEv",
            "__ZN5realm4sync13ClientHistory17prepare_for_writeEv",
            "__ZN5realm11Transaction16promote_to_asyncEv",
            "__ZN5realm12ArrayPayloadD1Ev",
            "__ZN5realm5_impl16RealmCoordinator9get_realmENSt3__110shared_ptrINS_4util9SchedulerEEE",
            "__ZN5realm5_impl20SyncProgressNotifier17register_callbackENSt3__18functionIFvyyEEENS1_12NotifierTypeEb",
            "__ZN5realm3Obj3setINSt3__18optionalINS_10GeospatialEEEEERS0_NS_6ColKeyET_b",
            "__ZN5realm4ListC2ERKS0_",
            "__ZN5realm12object_store3Set6removeIiEENSt3__14pairImbEERKT_",
            "__ZN5realm4sync10ClientImpl10Connection17handle_write_pingEv",
            "__ZN5realm4util10AESCryptorD2Ev",
            "__ZNK5realm5Table16find_first_floatENS_6ColKeyEf",
            "__ZNK5realm9TableView10is_in_syncEv",
            "__ZNK5realm11SyncManager18create_sync_clientEv",
            "__Z31RLMSchemaEnsureAccessorsCreatedP9RLMSchema",
            "__ZN5realm5_impl20SyncProgressNotifier15NotifierPackage17create_invocationERKNS1_8ProgressERb",
            "__ZN5realm4sync11ObjectIDSet6insertENS_10StringDataERKN5mpark7variantIJNS3_9monostateExS2_NS_9GlobalKeyENS_8ObjectIdENS_4UUIDEEEE",
            "__ZNK5realm9TableView15count_timestampENS_6ColKeyENS_9TimestampE",
            "__ZNK5realm5Table12count_stringENS_6ColKeyENS_10StringDataE",
            "__ZNK5realm5Table14find_all_floatENS_6ColKeyEf",
            "__ZN5realm3app11WatchStream9feed_lineENSt3__117basic_string_viewIcNS2_11char_traitsIcEEEE",
            "__ZN5realm7SetBase20convert_to_mixed_setERKNS_14CollectionBaseE",
            "__ZN5realm4util20EncryptedFileMapping13mark_outdatedEm",
            "__ZN5realm11GroupWriter11write_groupEv",
            "__ZNK5realm3Obj12get_tree_topEv",
            "__ZNK5realm19SyncMetadataManager25get_current_user_identityEv",
            "__ZN5realm4sync7network3ssl6Stream9handshakeERNSt3__110error_codeE",
            "__ZN5realm19QueryStateFindFirst5matchEmNS_5MixedE",
            "__ZN5realm5Query3NotEv",
            "__ZN5realm14BaseDescriptor6SorterC2ERKNSt3__16vectorINS3_INS_17ExtendedColumnKeyENS2_9allocatorIS4_EEEENS5_IS7_EEEERKNS3_IbNS5_IbEEEERKNS_5TableERKNS0_10IndexPairsE",
            "__ZN5realm5Query9ends_withENS_6ColKeyENS_10BinaryDataEb",
            "__ZN5realm10Decimal128C2ENS_4nullE",
            "__ZN5realm5Query5equalENS_6ColKeyENS_10Decimal128E",
            "__ZNK5realm11ArrayBinary4sizeEv",
            "__ZN5realm11GroupWriter9MapWindow9translateEm",
            "__ZN5realm3app3App11get_profileERKNSt3__110shared_ptrINS_8SyncUserEEEONS_4util14UniqueFunctionIFvS7_NS2_8optionalINS0_8AppErrorEEEEEE",
            "__Z16RLMSendAnalyticsP21RLMRealmConfigurationP9RLMSchema",
            "__ZN5realm4util4File5closeEv",
            "__ZN5realm4util11compression21allocate_and_compressERNS1_19CompressMemoryArenaENS0_4SpanIKcLm18446744073709551615EEERNSt3__16vectorIcNS7_9allocatorIcEEEE",
            "__ZN5realm16TableKeyIteratordeEv",
            "__ZNK5realm5_impl12client_reset8ListPath7ElementneERKS3_",
            "__ZN5realm5MixedC2ERKNS_3ObjE",
            "__ZN5realm5Array7get_twoEPKcm",
            "__ZN5realm4ListaSEOS0_",
            "__ZN5realm4util20MemoryInputStreambuf7seekoffExNSt3__18ios_base7seekdirEj",
            "__ZN5realm9TableView4sortENS_14SortDescriptorE",
            "__ZN5realm5_impl12client_reset29RecoverLocalChangesetsHandler16RecoveryResolver13on_list_indexERNS_7LstBaseEj",
            "__ZNK5realm3SetINS_5MixedEE4sortERNSt3__16vectorImNS3_9allocatorImEEEEb",
            "__ZNK5realm4sync17SubscriptionStore10get_activeEv",
            "__ZN5realm4sync18InstructionApplier12PathResolver13on_dictionaryERNS_10DictionaryE",
            "__ZN5realm4sync10ClientImpl7Session12access_realmEv",
            "__ZN5realm4util20EncryptedFileMapping4syncEv",
            "__ZN5realm4sync15SyncReplication3setEPKNS_5TableENS_6ColKeyENS_6ObjKeyENS_5MixedENS_5_impl11InstructionE",
            "___bid128ddd_fma",
            "__ZNK5realm10Geospatial8is_validEv",
            "__ZN5realm22NoSubscriptionForWriteD0Ev",
            "__ZN5realm5_impl18CollectionNotifier16prepare_handoverEv",
            "__ZN5realm5Group26add_table_with_primary_keyENS_10StringDataENS_8DataTypeES1_bNS_5Table4TypeE",
            "__ZNK5realm6Schema4findENS_10StringDataE",
            "__Z20RLMObjectFromObjLinkP8RLMRealmON5realm7ObjLinkEb",
            "__ZN5realm12ArrayPayloadD2Ev",
            "__ZN5realm14IndexEvaluator4initEPNSt3__16vectorINS_6ObjKeyENS1_9allocatorIS3_EEEE",
            "__ZNK5realm12object_store10Collection10as_resultsEv",
            "__ZN5realm5_impl14ChangesetIndex13add_changesetERNS_4sync9ChangesetE",
            "__ZNK5realm12object_store10Collection9is_frozenEv",
            "__ZN5realm11SyncManager9configureENSt3__110shared_ptrINS_3app3AppEEERKNS1_12basic_stringIcNS1_11char_traitsIcEENS1_9allocatorIcEEEERKNS_16SyncClientConfigE",
            "__ZN5realm5_impl12client_reset8ListPathC2ENS_8TableKeyENS_6ObjKeyE",
            "__ZN5realm4util4File7MapBase5remapERKS1_NS1_10AccessModeEmi",
            "__ZN5realm5_impl20ClientResetOperationC1ERNS_4util6LoggerENSt3__110shared_ptrINS_2DBEEES8_NS_16ClientResyncModeENS2_14UniqueFunctionIFvNS_9VersionIDEEEENSA_IFvSB_bEEEb",
            "__ZN5realm8Subexpr2INS_10BinaryDataEE4likeERKS2_b",
            "__ZN5realm16SectionedResults8snapshotEv",
            "__ZN5realm3Obj10invalidateEv",
            "__ZN5realm4util6Thread8set_nameERKNSt3__112basic_stringIcNS2_11char_traitsIcEENS2_9allocatorIcEEEE",
            "_RLMDescriptionWithMaxDepth",
            "__ZN5realm5Realm23wait_for_change_releaseEv",
            "__ZN5realm11GroupWriter10get_windowEmm",
            "__ZN5realm8ObjectIdC1ERKNSt3__15arrayIhLm12EEE",
            "__ZNK5realm7LinkMap9map_linksEmNS_6ObjKeyENS_4util11FunctionRefIFbS1_EEE",
            "__Z35RLMDictionaryValidateObservationKeyP8NSStringP13RLMDictionary",
            "__ZN5realm4sync10ClientImpl17drain_connectionsEv",
            "__ZN5realm5_impl12client_reset29RecoverLocalChangesetsHandlerclERKNS_4sync5instr5ClearE",
            "__ZN5realm4sync18InstructionApplier12PathResolver13on_list_indexERNS_7LstBaseEj",
            "__ZN5realm4sync10ClientImpl36voluntary_disconnect_all_connectionsEv",
            "__ZN5realm4sync10ClientImpl7Session34gather_pending_compensating_writesENS_4util4SpanINS0_9ChangesetELm18446744073709551615EEEPNSt3__16vectorINS0_17ProtocolErrorInfoENS7_9allocatorIS9_EEEE",
            "__ZN5realm5_impl20SyncProgressNotifier19unregister_callbackEy",
            "__ZNK5realm10IndexArray17from_list_all_insENS_10StringDataERNSt3__16vectorINS_6ObjKeyENS2_9allocatorIS4_EEEERKNS_13IntegerColumnERKNS_13ClusterColumnE",
            "__ZN5realm5_impl18CollectionNotifier15remove_callbackEy",
            "__ZN5realm4util6Logger27get_default_level_thresholdEv",
            "__ZN5realm10Decimal128mIES0_",
            "__ZN5realm16ClusterNodeInner20update_ref_in_parentENS_6ObjKeyEm",
            "__ZN5realm11SyncManager17reset_for_testingEv",
            "__ZN5realm5Table27allocate_object_id_squeezedEv",
            "__ZN5realm4sync10ClientImpl4postEONS_4util14UniqueFunctionIFvNS_6StatusEEEE",
            "__ZN18RLMObservationInfo11valueForKeyEP8NSString",
            "__ZN5realm10Dictionary12swap_contentERNS_5ArrayES2_mm",
            "__ZN5realm16SectionedResults4sizeEv",
            "__ZN5realm11SyncSession31become_waiting_for_access_tokenEv",
            "__ZN5realm2DB22get_number_of_versionsEv",
            "__ZN5realm4sync10ClientImpl10Connection19handle_connect_waitENS_6StatusE",
            "__ZNK5realm5Table11is_nullableENS_6ColKeyE",
            "__ZNK5realm5Table22get_primary_key_columnEv",
            "__ZN5realm10converters24InterRealmValueConverterC2ENS_13ConstTableRefENS_6ColKeyES2_S3_PNS0_23EmbeddedObjectConverterE",
            "__ZNK5realm10Dictionary16update_if_neededEv",
            "__ZN5realm18DescriptorOrderingaSERKS0_",
            "__ZN5realm9SlabAlloc15validate_headerEPKNS0_6HeaderEPKNS0_15StreamingFooterEmRKNSt3__112basic_stringIcNS7_11char_traitsIcEENS7_9allocatorIcEEEEb",
            "__ZNK5realm7metrics9QueryInfo26get_query_time_nanosecondsEv",
            "__ZN5realm8SyncUser9set_stateENS0_5StateE",
            "__ZN5realm9SlabAlloc29extend_fast_mapping_with_slabEPc",
            "__Z18RLMWrapLogFunctionU13block_pointerFv15RLMSyncLogLevelP8NSStringE",
            "__ZN5realm5_impl16RealmCoordinator23wait_for_change_releaseEv",
            "__ZN5realm5Array15set_all_to_zeroEv",
            "__ZN5realm4sync16ChangesetEncoderclERKNS0_5instr11ArrayInsertE",
            "__ZN5realm5Query5equalENS_6ColKeyENS_5MixedEb",
            "__ZN5realm5_impl16RealmCoordinator9on_changeEv",
            "__ZN5realm3app3App24UserAPIKeyProviderClient13fetch_api_keyERKNS_8ObjectIdERKNSt3__110shared_ptrINS_8SyncUserEEEONS_4util14UniqueFunctionIFvONS1_10UserAPIKeyENS6_8optionalINS0_8AppErrorEEEEEE",
            "__ZN5realm5_impl12client_reset29RecoverLocalChangesetsHandlerD2Ev",
            "__ZN5realm11ObjectStore44verify_compatible_for_immutable_and_readonlyERKNSt3__16vectorINS_12SchemaChangeENS1_9allocatorIS3_EEEE",
            "__ZNK5realm7metrics15TransactionInfo26get_fsync_time_nanosecondsEv",
            "__ZN5realm19DictionaryChangeSetC2ERKS0_",
            "__ZN5realm14ResultsSectionC1EPNS_16SectionedResultsENS_5MixedE",
            "__ZN5realm18DescriptorOrdering12append_limitENS_15LimitDescriptorE",
            "__ZN5realm4util27make_percent_encoded_stringERKNSt3__112basic_stringIcNS1_11char_traitsIcEENS1_9allocatorIcEEEE",
            "__ZN5realm4sync10ClientImpl7SessionD1Ev",
            "___bid64qqq_fma",
            "__ZN5realm4util16RunLoopSchedulerD0Ev",
            "__ZNK5realm11ArrayString10find_firstENS_10StringDataEmm",
            "__ZNK5realm16SyncUserMetadata13refresh_tokenEv",
            "__ZN5realm11FieldValuesC2ESt16initializer_listINS_10FieldValueEE",
            "__ZN5realm11SyncSession27get_subscription_store_baseEv",
            "__ZN5realm3app15MongoCollection11update_manyERKNS_4bson10IndexedMapINS2_4BsonEEES7_ONS_4util14UniqueFunctionIFvONS1_12UpdateResultENSt3__18optionalINS0_8AppErrorEEEEEE",
            "__ZNK5realm14SortDescriptor7executeERNS_14BaseDescriptor10IndexPairsERKNS1_6SorterEPKS1_",
            "__ZN5realm4sync7network7Service18reset_trigger_execERNS2_4ImplERNS2_19TriggerExecOperBaseE",
            "__ZN5realm7metrics9QueryInfoD2Ev",
            "_RLMDisableSyncToDisk",
            "__ZNK5realm12object_store10Collection17get_object_schemaEv",
            "__ZN5realm11SyncManager11get_sessionENSt3__110shared_ptrINS_2DBEEERKNS_11RealmConfigE",
            "__ZN5realm4sync10ClientImpl7Session18make_logger_prefixEy",
            "__ZN5realm11KeyNotFoundD2Ev",
            "__ZN5realm11GroupWriter16read_in_freelistEv",
            "__ZN5realm5Table15get_link_targetENS_6ColKeyE",
            "__ZN5realm4sync7SessionC2ERNS0_6ClientENSt3__110shared_ptrINS_2DBEEENS5_INS0_17SubscriptionStoreEEENS5_INS0_14MigrationStoreEEEONS1_6ConfigE",
            "__ZN5realm4util27encrypted_size_to_data_sizeEx",
            "__ZN5realm12object_store10CollectionD2Ev",
            "__ZN5realm9SlabAlloc4findEi",
            "__ZNK5realm4sync11ObjectIDSet8containsENS_10StringDataERKN5mpark7variantIJNS3_9monostateExS2_NS_9GlobalKeyENS_8ObjectIdENS_4UUIDEEEE",
            "__ZN5realm4sync14SessionWrapper22on_download_completionEv",
            "__ZNK5realm4sync10ClientImpl7Session14get_realm_pathEv",
            "__ZN5realm3app14AppCredentials6googleEONS_4util12TaggedStringINS0_11AuthCodeTagEEE",
            "__ZN5realm10Dictionary5eraseENS0_8IteratorE",
            "__ZN5realm13BPlusTreeNode16set_context_flagEb",
            "__ZN5realm5Realm17set_schema_subsetENS_6SchemaE",
            "__ZN5realm8Subexpr2INS_10BinaryDataEE11begins_withERKS2_b",
            "__ZN5realm5_impl16RealmCoordinator12commit_writeERNS_5RealmEb",
            "__ZN5realm9SlabAlloc15clear_freelistsEv",
            "__ZNK5realm7Results14validate_writeEv",
            "__ZN5realm14KeyAlreadyUsedD2Ev",
            "___bid128_quiet_equal",
            "__ZN5realm4util14make_temp_fileEPKc",
            "__ZNK5realm16SectionedResults8is_validEv",
            "__ZNK12RLMClassInfo11tableColumnEP11RLMProperty",
            "__ZN5realm24InvalidPropertyExceptionC2ERKNSt3__112basic_stringIcNS1_11char_traitsIcEENS1_9allocatorIcEEEES9_",
            "__ZN5realm3app3App24UserAPIKeyProviderClient15disable_api_keyERKNS_8ObjectIdERKNSt3__110shared_ptrINS_8SyncUserEEEONS_4util14UniqueFunctionIFvNS6_8optionalINS0_8AppErrorEEEEEE",
            "__ZN5realm5Realm10read_groupEv",
            "___bid_round128_19_38",
            "__ZN5realm16SectionedResults18calculate_sectionsEv",
            "__ZN5realm5_impl20ExternalCommitHelper6listenEv",
            "__ZN5realm9LinkChain3addENS_6ColKeyE",
            "__ZN5realm11Transaction14import_copy_ofERKNS_6LnkLstE",
            "__ZN5realm5_impl12virtual2realERKNSt3__16vectorImNS1_9allocatorImEEEEm",
            "__ZN5realm14BPlusTreeInnerD2Ev",
            "__ZN5realm6ObjectD2Ev",
            "__ZNK5realm12object_store3Set3getINS_3ObjEEET_m",
            "__ZNK5realm5Table16find_primary_keyENS_5MixedE",
            "__ZN5realm10Decimal128C1ENS0_6Bid128Eib",
            "__ZN5realm8SyncUser16register_sessionENSt3__110shared_ptrINS_11SyncSessionEEE",
            "__ZN5realm4sync10ClientImpl10ConnectionD1Ev",
            "__ZN5realm4util14SemaphoreMutexD2Ev",
            "__ZN5realm15fast_popcount32Ei",
            "__ZNK5realm10Dictionary7try_getENS_5MixedE",
            "__ZN5realm7ResultsC1ENSt3__110shared_ptrINS_5RealmEEENS_9TableViewENS_18DescriptorOrderingE",
            "__ZN5realm3LstINS_7ObjLinkEE9do_insertEmS1_",
            "__ZN5realm13ArrayUnsigned6createEmy",
            "__ZNK5realm8IndexSet5countEmm",
            "__ZN5realm4sync14MigrationStore24is_migration_in_progressEv",
            "_RLMEventCancelScope",
            "_RLMGetSwiftPropertyBool",
            "__ZN5realm4sync15parse_changesetERNS_4util11InputStreamERNS0_9ChangesetE",
            "__ZN5realm7NotNode27find_first_covered_by_knownEmm",
            "__ZN5realmeqERKNS_12SchemaChangeES2_",
            "__ZN5realm20PropertyTypeMismatchD1Ev",
            "__ZN5realm10Decimal128C2Ev",
            "__ZN5realm11SyncManagerC1Ev",
            "__ZN5realm8SyncUser12mongo_clientERKNSt3__112basic_stringIcNS1_11char_traitsIcEENS1_9allocatorIcEEEE",
            "___bid64_from_uint32",
            "__ZN5realm10Dictionary6insertENS_5MixedES1_",
            "__ZNK5realm15SyncFileManager21remove_metadata_realmEv",
            "__ZN5realm4bson17holds_alternativeINS_4UUIDEEEbRKNS0_4BsonE",
            "__ZN5realm4sync10ClientImpl10Connection23receive_unbound_messageEy",
            "__ZN5realm11ArrayBinary5clearEv",
            "__ZN5realm4util4mmapERKNS0_14FileAttributesEmmRPNS0_20EncryptedFileMappingE",
            "__ZNK5realm9Exception8categoryEv",
            "__ZN5realm7Results22get_dictionary_elementEm",
            "__ZN5realm4util16ThreadSafeLogger6do_logENS0_6Logger5LevelERKNSt3__112basic_stringIcNS4_11char_traitsIcEENS4_9allocatorIcEEEE",
            "_RLMGetSwiftPropertyString",
            "__ZNK5realm7metrics7Metrics23num_transaction_metricsEv",
            "__ZN5realm6ObjectC2ERKNSt3__110shared_ptrINS_5RealmEEENS_7ObjLinkE",
            "__ZN5realmeqERKNS_6SchemaES2_",
            "__ZN5realm5Query13greater_equalENS_6ColKeyEf",
            "__ZN5realm18DisableReplicationC1ERNS_11TransactionE",
            "__ZN5realm4sync16ChangesetEncoderclERKNS0_5instr10ArrayEraseE",
            "__ZNK5realm9Exception6reasonEv",
            "__ZN5realm4util5Mutex22init_as_process_sharedEb",
            "__ZNK5realm11ArrayBinary3getEm",
            "__ZNK5realm5Table3maxENS_6ColKeyEPNS_6ObjKeyE",
            "__ZN5realm5Query4likeENS_6ColKeyENS_5MixedEb",
            "__ZN5realm17QueryStateFindAllINS_9BPlusTreeINS_6ObjKeyEEEE5matchEmNS_5MixedE",
            "__ZN5realm11SyncSession19update_access_tokenERKNSt3__112basic_stringIcNS1_11char_traitsIcEENS1_9allocatorIcEEEE",
            "__ZN5realm6ObjectaSERKS0_",
            "__ZNK5realm10Dictionary19get_value_data_typeEv",
            "__ZN5realm11Transaction14import_copy_ofERNS_9TableViewENS_13PayloadPolicyE",
            "__ZN5realm16IllegalOperationD0Ev",
            "__ZN5realm4sync14MigrationStore20create_subscriptionsERKNS0_17SubscriptionStoreERKNSt3__112basic_stringIcNS5_11char_traitsIcEENS5_9allocatorIcEEEE",
            "__ZN5realm3app3App11delete_userERKNSt3__110shared_ptrINS_8SyncUserEEEONS_4util14UniqueFunctionIFvNS2_8optionalINS0_8AppErrorEEEEEE",
            "__ZN5realm3app20httpmethod_to_stringENS0_10HttpMethodE",
            "__ZN5realm5Group22recycle_table_accessorEPNS_5TableE",
            "__ZN5realm3app15MongoCollection11update_manyERKNS_4bson10IndexedMapINS2_4BsonEEES7_bONS_4util14UniqueFunctionIFvONS1_12UpdateResultENSt3__18optionalINS0_8AppErrorEEEEEE",
            "__ZN5realm5Query10size_equalENS_6ColKeyEx",
            "__ZN5realm10DictionaryD1Ev",
            "__ZNK5realm4sync15SubscriptionSet9error_strEv",
            "__ZN5realm8Subexpr2INS_10StringDataEE11begins_withERKS2_b",
            "__ZN5realm4sync7network3ssl7Context24ssl_use_private_key_fileERKNSt3__112basic_stringIcNS4_11char_traitsIcEENS4_9allocatorIcEEEERNS4_10error_codeE",
            "__ZN5realm16SectionedResultsixEm",
            "__ZNK5realm7Results8is_validEv",
            "__ZNK5realm4sync17ClientReplication16get_history_typeEv",
            "__ZN5realm11SystemErrorD2Ev",
            "__ZN5realm36InvalidAdditiveSchemaChangeExceptionC2ERKNSt3__16vectorINS_31ObjectSchemaValidationExceptionENS1_9allocatorIS3_EEEE",
            "__ZN5realm18StringNodeFulltextC1ERKS0_",
            "__ZN5realm3app11WatchStream11feed_bufferENSt3__117basic_string_viewIcNS2_11char_traitsIcEEEE",
            "__ZN5realm13BPlusTreeNodeD2Ev",
            "__ZN5realm3SetINS_7ObjLinkEE9do_insertEmS1_",
            "__ZN5realm5Table16flush_for_commitEv",
            "__ZNK5realm19SyncMetadataManager9get_realmEv",
            "__ZN5realm9SlabAlloc9FreeBlock6unlinkEv",
            "__ZN5realm4util17get_platform_infoERNS0_12PlatformInfoE",
            "__ZN5realm5Query11begins_withENS_6ColKeyENS_5MixedEb",
            "__ZN5realm36InvalidReadOnlySchemaChangeExceptionC1ERKNSt3__16vectorINS_31ObjectSchemaValidationExceptionENS1_9allocatorIS3_EEEE",
            "_RLMIsObjectOrSubclass",
            "__ZNK5realm9Allocator23translate_less_criticalEPNS0_14RefTranslationEm",
            "__ZN5realm4sync10ClientImpl7Session19send_upload_messageEv",
            "__ZNK5realm11ArrayString7get_anyEm",
            "___bid128_quiet_less",
            "__ZN5realm19ObjectAlreadyExistsD0Ev",
            "__ZN5realm4Spec15fix_column_keysENS_8TableKeyE",
            "_RLMValidateSwiftPropertyName",
            "__ZNK5realm7Results3keyENS_10StringDataE",
            "__ZNK5realm5Mixed14get_index_dataERNSt3__15arrayIcLm16EEE",
            "__ZN5realm12LinkPathPartC2ENS_6ColKeyENS_13ConstTableRefE",
            "__ZN5realm4synclsERNSt3__113basic_ostreamIcNS1_11char_traitsIcEEEENS0_10HTTPMethodE",
            "__ZN5realm5_impl12client_reset29RecoverLocalChangesetsHandlerclERKNS_4sync5instr11ArrayInsertE",
            "__ZN5realm5_impl18CollectionNotifierD1Ev",
            "__ZN5realm15FileAccessErrorD1Ev",
            "__ZN5realm4util11compression33allocate_and_compress_nonportableERNS1_19CompressMemoryArenaENS0_4SpanIKcLm18446744073709551615EEERNS0_12AppendBufferIcEE",
            "___bid128_to_int64_xceil",
            "__ZNK5realm5Group33get_committed_file_format_versionEv",
            "__Z23RLMCreateBindingContextP8RLMRealm",
            "__ZN5realm7metrics9QueryInfo16type_from_actionENS_6ActionE",
            "__ZN5realm4sync17SubscriptionStoreC1ENSt3__110shared_ptrINS_2DBEEENS_4util14UniqueFunctionIFvxEEE",
            "__ZN5realm4sync10ClientImpl7Session28clear_resumption_delay_stateEv",
            "__ZN5realm10SyncConfigC2ENSt3__110shared_ptrINS_8SyncUserEEEPKc",
            "__ZN5realm21WrongTransactionStateD1Ev",
            "__ZN5realm4sync13ClientHistory6Arrays13init_from_refEm",
            "__ZN5realm5Query19add_expression_nodeENSt3__110unique_ptrINS_10ExpressionENS1_14default_deleteIS3_EEEE",
            "__ZN5realm4sync21client_error_categoryEv",
            "__ZNK5realm3Obj18get_backlink_countEv",
            "__ZNK5realm4util22DispatchQueueScheduler12is_on_threadEv",
            "__ZN5realm2DB20do_release_read_lockERNS0_12ReadLockInfoE",
            "__ZN5realm10SyncConfigC1ENSt3__110shared_ptrINS_8SyncUserEEENS1_12basic_stringIcNS1_11char_traitsIcEENS1_9allocatorIcEEEE",
            "__ZN5realm3app3App24UserAPIKeyProviderClient14fetch_api_keysERKNSt3__110shared_ptrINS_8SyncUserEEEONS_4util14UniqueFunctionIFvONS3_6vectorINS1_10UserAPIKeyENS3_9allocatorISC_EEEENS3_8optionalINS0_8AppErrorEEEEEE",
            "_RLMGetSwiftPropertyArray",
            "__ZNK5realm5Realm13audit_contextEv",
            "__ZNK5realm9TableView3sumENS_6ColKeyE",
            "__ZN5realm5_impl16RealmCoordinator17delete_and_reopenEv",
            "__ZN5realm16IllegalOperationD2Ev",
            "__ZN5realm4sync10ClientImpl10Connection19initiate_write_pingERKNS_4util43BasicResettableExpandableBufferOutputStreamIcNSt3__111char_traitsIcEENS5_9allocatorIcEEEE",
            "__ZN5realm4util20MemoryInputStreambuf10do_seekoffExNSt3__18ios_base7seekdirEj",
            "__ZN5realm4sync15SyncReplication15emit_class_nameENS_10StringDataE",
            "__ZN5realm4sync18InstructionApplierclERKNS0_5instr10AddIntegerE",
            "__ZN5realm7metrics7Metrics12take_queriesEv",
            "__ZN5realm3LstINS_5MixedEE9do_insertEmS1_",
            "__ZN5realm4sync7network7Service10Descriptor17set_nonblock_flagEb",
            "_RLMGetAnyCachedRealm",
            "__ZN5realm3app3App23log_in_with_credentialsERKNS0_14AppCredentialsERKNSt3__110shared_ptrINS_8SyncUserEEEONS_4util14UniqueFunctionIFvSA_NS5_8optionalINS0_8AppErrorEEEEEE",
            "__ZNK5realm5Query20get_description_safeEv",
            "__ZN5realm11ArrayString6insertEmNS_10StringDataE",
            "__ZN5realm11SyncSession24ConnectionChangeNotifier15remove_callbackEy",
            "_RLMDictionaryDescriptionWithMaxDepth",
            "__ZN5realm4util8demangleERKNSt3__112basic_stringIcNS1_11char_traitsIcEENS1_9allocatorIcEEEE",
            "__Z18RLMCheckForUpdatesv",
            "__ZNK5realm19SyncMetadataManager19all_pending_actionsEv",
            "__ZN5realm9SlabAlloc44schedule_refresh_of_outdated_encrypted_pagesEv",
            "__ZN5realm4util10serializer11print_valueIdEENSt3__112basic_stringIcNS3_11char_traitsIcEENS3_9allocatorIcEEEET_",
            "__ZN5realm8ObjectId3genEv",
            "__ZN5realm4util23base64_decode_to_vectorENS_10StringDataE",
            "__ZN5realm20PropertyTypeMismatchD0Ev",
            "__ZNK18RLMObservationInfo10columnNameEN5realm6ColKeyE",
            "__ZNK5realm7Results12get_orderingEv",
            "__ZN5realm5Query7greaterENS_6ColKeyENS_10Decimal128E",
            "__ZNK5realm5Group5writeERNSt3__113basic_ostreamIcNS1_11char_traitsIcEEEEbyRNS0_11TableWriterE",
            "__ZN5realm15ArrayDecimal1283setEmNS_10Decimal128E",
            "__ZN5realm3app8AppErrorC2ENS_10ErrorCodes5ErrorENSt3__112basic_stringIcNS4_11char_traitsIcEENS4_9allocatorIcEEEESA_NS4_8optionalIiEE",
            "__ZN5realm4sync18InstructionApplier17check_links_existERKNS0_5instr7PayloadE",
            "__ZN5realm7metrics7Metrics15add_transactionENS0_15TransactionInfoE",
            "__ZN5realm4util6munmapEPvm",
            "__ZN5realm4sync7network7Service12trigger_execERNS2_4ImplERNS2_19TriggerExecOperBaseE",
            "__ZN5realm14ArrayTimestampC2ERNS_9AllocatorE",
            "__ZN5realm11ClusterNode13IteratorState5clearEv",
            "__ZN5realm5_impl12client_reset11ListTracker5clearEv",
            "__ZN5realm5Table27find_or_add_backlink_columnENS_6ColKeyENS_8TableKeyE",
            "__ZN5realm4sync15SubscriptionSetC1ENSt3__18weak_ptrIKNS0_17SubscriptionStoreEEExNS1_13SupersededTagE",
            "_RLMObjectBaseGetCombineId",
            "_RLMGetSwiftPropertyInt64Optional",
            "__ZN5realm11StringIndex11leaf_insertENS_6ObjKeyEimNS_10StringDataERKNS_5MixedEb",
            "__ZN5realm9SlabAlloc18update_reader_viewEm",
            "__ZNK5realm5Group7ndx2keyEm",
            "__ZN5realm5_impl18CollectionNotifier21update_related_tablesERKNS_5TableE",
            "__ZN5realm11ArrayString7destroyEv",
            "__ZN5realm5_impl15CopyReplication4syncEPKNS_5TableENS_6ObjKeyE",
            "__ZNK5realm12object_store10DictionaryeqERKS1_",
            "__ZNK5realm5Table20find_first_timestampENS_6ColKeyENS_9TimestampE",
            "__ZNK5realm10Decimal1286unpackERNS0_6Bid128ERiRb",
            "__ZNK5realm11ClusterTree8Iterator6updateEv",
            "__ZN5realm11SyncSession5closeEv",
            "__ZNK5realm16SectionedResults11check_validEv",
            "__ZN5realm15ObjectChangeSet13deletions_addENS_6ObjKeyE",
            "__ZN5realm20disable_sync_to_diskEb",
            "__ZN5realm5_impl19SystemConfigurationC2Ev",
            "__ZN5realm5Mixed10use_bufferERNSt3__112basic_stringIcNS1_11char_traitsIcEENS1_9allocatorIcEEEE",
            "__ZNK5realm12object_store3Set9get_tableEv",
            "__ZN5realm4sync21PendingBootstrapStore12peek_pendingEm",
            "__ZNK5realm10ArrayMixed21ensure_array_accessorERNS_5ArrayEm",
            "__ZN5realm4util5Mutex14destroy_failedEi",
            "__ZN5realm5QueryC1ENS_13ConstTableRefENSt3__110unique_ptrINS_9TableViewENS2_14default_deleteIS4_EEEE",
            "__ZNK5realm3Obj14get_dictionaryENS_10StringDataE",
            "__ZNK5realm4sync7network3ssl13ErrorCategory10equivalentERKNSt3__110error_codeEi",
            "__ZN5realm11SyncSession24detach_from_sync_managerEv",
            "__ZN5realm15SyncFileManagerC1ERKNSt3__112basic_stringIcNS1_11char_traitsIcEENS1_9allocatorIcEEEES9_",
            "_RLMRealmPathForFile",
            "__ZN5realm3Obj7add_intENS_6ColKeyEx",
            "__ZNK5realm10Dictionary8distinctERNSt3__16vectorImNS1_9allocatorImEEEENS1_8optionalIbEE",
            "__ZN5realm12ArrayIntNull18replace_nulls_withEx",
            "__ZNK5realm4UUID9to_stringEv",
            "__ZN5realm4util4File4seekEx",
            "__ZN5realm8ObjectIdC1ENS_9TimestampEii",
            "__ZN5realm4util24extend_encrypted_mappingEPNS0_20EncryptedFileMappingEPvmmm",
            "__ZNK5realm15LimitDescriptor5cloneEv",
            "__ZNK5realm14ArrayTimestamp10find_firstINS_7GreaterEEEmNS_9TimestampEmm",
            "__ZNK5realm4util16RunLoopScheduler12is_on_threadEv",
            "__ZN5realm13ArrayUnsigned6insertEmy",
            "__ZN5realm4Spec4initEm",
            "__ZNK5realm5Realm12sync_sessionEv",
            "__ZN5realm7ResultsC2ENSt3__110shared_ptrINS_5RealmEEENS2_INS_14CollectionBaseEEENS1_8optionalINS_5QueryEEENS_14SortDescriptorE",
            "__ZN5realm5_impl12client_reset29RecoverLocalChangesetsHandlerclERKNS_4sync5instr9SetInsertE",
            "__ZN5realm4sync15SyncReplication12nullify_linkEPKNS_5TableENS_6ColKeyENS_6ObjKeyE",
            "__ZN5realm11Transaction12cow_outliersERNSt3__16vectorImNS1_9allocatorImEEEEmm",
            "__ZN5realm3app3App6Config10DeviceInfoC2Ev",
            "__ZN5realm9SlabAlloc24get_or_add_xover_mappingERNS_9Allocator14RefTranslationEmmm",
            "__ZN5realm9SlabAlloc18pop_freelist_entryENS0_8FreeListE",
            "__ZNK5realm13ArrayUnsigned3getEm",
            "__ZN5realm11SyncSession18do_become_inactiveENS_4util17CheckedUniqueLockENS_6StatusE",
            "__ZNK5realm3app3App24UserAPIKeyProviderClient12url_for_pathERKNSt3__112basic_stringIcNS3_11char_traitsIcEENS3_9allocatorIcEEEE",
            "__ZN5realm2DBD1Ev",
            "__ZNK5realm3Obj3getIbEET_NS_6ColKeyE",
            "__ZN5realm11ObjectStore26verify_no_changes_requiredERKNSt3__16vectorINS_12SchemaChangeENS1_9allocatorIS3_EEEE",
            "__ZNK5realm5Table15find_all_binaryENS_6ColKeyENS_10BinaryDataE",
            "__ZN5realm7metrics15TransactionInfo12finish_timerEv",
            "__ZN5realm8IndexSet3addERKS0_",
            "__ZN5realm4sync7Session4bindEv",
            "_RLMSetSwiftPropertyData",
            "__ZN5realm3LstINS_6ObjKeyEE9do_insertEmS1_",
            "__ZN5realm3app15MongoCollection24find_one_and_update_bsonERKNS_4bson10IndexedMapINS2_4BsonEEES7_RKNS1_23FindOneAndModifyOptionsEONS_4util14UniqueFunctionIFvONSt3__18optionalIS4_EENSE_INS0_8AppErrorEEEEEE",
            "__ZN5realm4sync18InstructionApplier12PathResolver11on_propertyERNS_3ObjENS_6ColKeyE",
            "__ZNK5realm5Query3sumENS_6ColKeyE",
            "__ZN5realm5Array16destroy_childrenEm",
            "__ZN5realm3LstINS_6ObjKeyEE8do_clearEv",
            "__ZN5realm4UUID15is_valid_stringENS_10StringDataE",
            "_RLMObjectFreeze",
            "__ZN5realm4sync22MutableSubscriptionSet12update_stateENS0_15SubscriptionSet5StateENSt3__18optionalINS4_17basic_string_viewIcNS4_11char_traitsIcEEEEEE",
            "__ZN5realm8FastRandclEy",
            "__ZN5realm4sync10ClientImpl14get_connectionENS0_14ServerEndpointERKNSt3__112basic_stringIcNS3_11char_traitsIcEENS3_9allocatorIcEEEERKNS3_3mapIS9_S9_NS3_4lessIS9_EENS7_INS3_4pairISA_S9_EEEEEEbNS3_8optionalIS9_EENS3_8functionIFbSB_tPKcmiiEEENSL_INS_10SyncConfig11ProxyConfigEEERb",
            "__ZN5realm15FileAccessErrorD0Ev",
            "__ZN5realm8Subexpr2INS_10BinaryDataEE5equalERKS2_b",
            "__ZN5realm11ClusterTree13size_from_refEmRNS_9AllocatorE",
            "__ZN5realm11Transaction14import_copy_ofERKNSt3__110unique_ptrINS_6LnkLstENS1_14default_deleteIS3_EEEE",
            "__ZN5realm17NotificationTokenC2EOS0_",
            "__ZN5realm13AsyncOpenTask6cancelEv",
            "__ZN5realm4sync8FieldSet6insertENS_10StringDataES2_RKN5mpark7variantIJNS3_9monostateExS2_NS_9GlobalKeyENS_8ObjectIdENS_4UUIDEEEE",
            "__ZN5realm7Cluster22nullify_incoming_linksENS_6ObjKeyERNS_12CascadeStateE",
            "__ZN5realm5Group14try_get_objectENS_7ObjLinkE",
            "__ZN5realm3app8AppUtils16check_for_errorsERKNS0_8ResponseE",
            "__ZN5realm11SyncSession16revive_if_neededEv",
            "__ZN5realm14LinkTranslator3runEv",
            "__ZN5realm7Cluster20create_empty_clusterERNS_9AllocatorE",
            "__ZN5realm5_impl20ExternalCommitHelper8FdHolder5closeEv",
            "__ZN5realm5_impl19ListResultsNotifier27do_add_required_change_infoERNS0_21TransactionChangeInfoE",
            "__ZN5realm10SyncConfigC1ENSt3__110shared_ptrINS_8SyncUserEEENS0_14FLXSyncEnabledE",
            "__ZN5realm7Cluster6createEv",
            "__ZN5realm4util4File4syncEv",
            "__ZN5realm5_impl12real2virtualERKNSt3__16vectorImNS1_9allocatorImEEEEm",
            "__ZNK5realm5_impl12client_reset15InterningBuffer7get_keyERKNS1_13InternDictKeyE",
            "__ZN5realm11TransactionC1ENSt3__110shared_ptrINS_2DBEEEPNS_9SlabAllocERNS3_12ReadLockInfoENS3_13TransactStageE",
            "__ZN5realm4sync7network7ServiceD1Ev",
            "__ZN5realm2DB4openERKNSt3__112basic_stringIcNS1_11char_traitsIcEENS1_9allocatorIcEEEEbRKNS_9DBOptionsE",
            "__ZN5realm5Query9not_equalENS_6ColKeyENS_5MixedEb",
            "__ZN5realm10ArrayMixed5storeERKNS_5MixedE",
            "__ZN5realm11GroupWriter38search_free_space_in_free_list_elementENSt3__114__map_iteratorINS1_15__tree_iteratorINS1_12__value_typeImmEEPNS1_11__tree_nodeIS5_PvEElEEEEm",
            "__ZN5realm7metrics15TransactionInfo12update_statsEmmmmm",
            "__ZN5realm4sync17SubscriptionStore6createENSt3__110shared_ptrINS_2DBEEENS_4util14UniqueFunctionIFvxEEE",
            "__ZN5realm8Subexpr2INS_5MixedEE11begins_withERKS2_b",
            "__ZNK5realm4Spec6verifyEv",
            "__ZN5realm29MissingPropertyValueExceptionC2ERKNSt3__112basic_stringIcNS1_11char_traitsIcEENS1_9allocatorIcEEEES9_",
            "__ZN5realm3app3AppC1ERKNS1_6ConfigE",
            "__ZN5realm12ArrayPayloadD0Ev",
            "__ZNK5realm4sync10ClientImpl20decompose_server_urlERKNSt3__112basic_stringIcNS2_11char_traitsIcEENS2_9allocatorIcEEEERNS0_16ProtocolEnvelopeERS8_RtSD_",
            "__ZN5realm5Array22calc_aligned_byte_sizeEmi",
            "__ZN5realm12ArrayIntNull12create_arrayENS_10NodeHeader4TypeEbmRNS_9AllocatorE",
            "__ZN5realm13BackupHandlerC1ERKNSt3__112basic_stringIcNS1_11char_traitsIcEENS1_9allocatorIcEEEERKNS1_6vectorIiNS5_IiEEEERKNSA_INS1_4pairIiiEENS5_ISG_EEEE",
            "__ZNK5realm4sync9Changeset10print_pathERNSt3__113basic_ostreamIcNS2_11char_traitsIcEEEERKNS0_5instr4PathE",
            "__ZN5realm11TransactionD0Ev",
            "__ZNK5realm5Array5countEx",
            "__ZNK5realm17ExtendedColumnKey16get_target_tableEPKNS_5TableE",
            "__ZN5realm3app3App6Config10DeviceInfoC1ENSt3__112basic_stringIcNS4_11char_traitsIcEENS4_9allocatorIcEEEESA_SA_SA_SA_SA_SA_SA_",
            "__Z31RLMGetFrozenRealmForSourceRealmP8RLMRealm",
            "__ZNK5realm9SlabAlloc18get_allocated_sizeEv",
            "__ZN5realm5_impl16RealmCoordinator15get_coordinatorERKNS_11RealmConfigE",
            "__ZN5realm11StringIndex3setINS_10StringDataEEEvNS_6ObjKeyET_",
            "__ZNK5realm3Obj6updateEv",
            "__ZNK5realm10Dictionary7get_keyEm",
            "__ZNK5realm3Obj9to_stringEv",
            "___bid128qd_add",
            "__ZN5realm4bson17holds_alternativeINS0_17RegularExpressionEEEbRKNS0_4BsonE",
            "__ZN5realm7metrics7Metrics21end_write_transactionEmmmmm",
            "__ZN5realm5Query9ends_withENS_6ColKeyENS_5MixedEb",
            "__ZN5realm8Subexpr2INS_10BinaryDataEE9not_equalERKS2_b",
            "__ZNK5realm12object_store10Collection7averageENS_6ColKeyE",
            "__ZNK5realm8TableRefptEv",
            "__ZN5realm14BPlusTreeInner4moveEPNS_13BPlusTreeNodeEmx",
            "__ZN5realm7metrics7MetricsD2Ev",
            "__ZN5realm26MissingPrimaryKeyExceptionC2ERKNSt3__112basic_stringIcNS1_11char_traitsIcEENS1_9allocatorIcEEEE",
            "__ZN5realm3app3App16get_uncached_appERKNS1_6ConfigERKNS_16SyncClientConfigE",
            "__ZNK5realm4sync18InstructionApplier9to_stringERKNS0_5instr15PathInstructionE",
            "__ZN5realm11Replication20do_select_collectionERKNS_14CollectionBaseE",
            "__ZN5realm5_impl19ListResultsNotifierC2ERNS_7ResultsE",
            "__ZNK5realm7metrics15TransactionInfo13get_disk_sizeEv",
            "__ZNK5realm17ChunkedBinaryData8hex_dumpEPKci",
            "__ZN5realm3app3App33handle_possible_redirect_responseEONS0_7RequestERKNS0_8ResponseEONS_4util14UniqueFunctionIFvS6_EEE",
            "__ZNK5realm18DescriptorOrdering15will_apply_sortEv",
            "__ZN5realm10Decimal12812is_valid_strENS_10StringDataE",
            "__ZN5realm13AsyncOpenTask37unregister_download_progress_notifierEy",
            "__ZN5realm6SchemaC2ERKS0_",
            "__ZNK5realm10Dictionary5beginEv",
            "__ZN5realm10ErrorCodes16error_categoriesENS0_5ErrorE",
            "__ZNK5realm10Dictionary4findENS_5MixedE",
            "__ZNK5realm14ArrayTimestamp10find_firstINS_8NotEqualEEEmNS_9TimestampEmm",
            "__ZNK5realm3Obj16get_backlink_cntENS_6ColKeyE",
            "__Z23RLMConvertRLMBSONToBsonPU17objcproto7RLMBSON11objc_object",
            "__ZN5realm8Subexpr2INS_10BinaryDataEE11begins_withES1_b",
            "__ZNK5realm5Query11do_find_allERNS_9TableViewEm",
            "__ZN5realm11StringIndex12erase_stringENS_6ObjKeyENS_10StringDataE",
            "__ZNK5realm5Mixed3getINSt3__18optionalIfEEEET_v",
            "__ZN5realm4List12set_embeddedEm",
            "__ZNK5realm5_impl14ChangesetIndex28get_modifications_for_objectENS_4sync8GlobalIDE",
            "__ZN5realm16SyncUserMetadata17set_refresh_tokenERKNSt3__112basic_stringIcNS1_11char_traitsIcEENS1_9allocatorIcEEEE",
            "__ZN5realm3Obj8set_nullENS_6ColKeyEb",
            "__ZN5realm4util9PrintableC2ENS_10StringDataE",
            "__ZN5realm5Table12dump_objectsEv",
            "__ZNK5realm11ClusterTree8traverseENS_4util11FunctionRefIFNS_15IteratorControlEPKNS_7ClusterEEEE",
            "__ZN5realm15FileAccessErrorC2ENS_10ErrorCodes5ErrorENSt3__117basic_string_viewIcNS3_11char_traitsIcEEEES7_i",
            "__ZN5realm16ClusterNodeInner3addEmx",
            "__ZN5realm10ParentNode15aggregate_localEPNS_14QueryStateBaseEmmmPNS_12ArrayPayloadE",
            "__ZN5realm6Schema4findENS_8TableKeyE",
            "__ZNK5realm5Table17search_index_typeENS_6ColKeyE",
            "__ZN5realm4sync7network7Service4Impl7resolveERKNS1_8Resolver5QueryERNSt3__110error_codeE",
            "__ZNK5realm11ClusterNode16get_owning_tableEv",
            "__ZN5realm15InvalidArgumentC2ENS_10ErrorCodes5ErrorENSt3__117basic_string_viewIcNS3_11char_traitsIcEEEE",
            "__ZN5realm4sync8FieldSet5eraseENS_10StringDataES2_RKN5mpark7variantIJNS3_9monostateExS2_NS_9GlobalKeyENS_8ObjectIdENS_4UUIDEEEE",
            "__ZN5realm3app14AppCredentialsC1ENS0_12AuthProviderESt16initializer_listINSt3__14pairIPKcNS_4bson4BsonEEEE",
            "__ZN5realm4synclsERNSt3__113basic_ostreamIcNS1_11char_traitsIcEEEERKNS0_9ChangesetE",
            "__ZN5realm2DBD2Ev",
            "__ZN5realm5Table13find_all_nullENS_6ColKeyE",
            "__ZN5realm11NoSuchTableD2Ev",
            "__ZN5realm14ExpressionNodeC2ENSt3__110unique_ptrINS_10ExpressionENS1_14default_deleteIS3_EEEE",
            "__ZN5realm5_impl17DeepChangeChecker9check_rowERKNS_5TableENS_6ObjKeyERKNSt3__16vectorINS_6ColKeyENS6_9allocatorIS8_EEEEm",
            "__ZN5realm5Realm10invalidateEv",
            "__ZN5realm3app15MongoCollection13call_functionEPKcRKNS_4bson10IndexedMapINS4_4BsonEEEONS_4util14UniqueFunctionIFvONSt3__18optionalIS6_EENSD_INS0_8AppErrorEEEEEE",
            "__ZNK5realm5Table15get_sorted_viewENS_6ColKeyEb",
            "__ZN5realm3app15MongoCollection10count_bsonERKNS_4bson10IndexedMapINS2_4BsonEEExONS_4util14UniqueFunctionIFvONSt3__18optionalIS4_EENSB_INS0_8AppErrorEEEEEE",
            "__ZN5realm5_impl12client_reset8ListPath14path_to_stringERNS_11TransactionERKNS1_15InterningBufferE",
            "__ZN5realm11SyncSession15restart_sessionEv",
            "__ZN5realm5_impl26ObjectKeyPathChangeCheckerclENS_6ObjKeyE",
            "__ZN5realm4util19InterprocessCondVar19release_shared_partEv",
            "__ZN5realm8fastrandEyb",
            "__ZNK5realm10Geospatial8containsERKNS_8GeoPointE",
            "__ZN5realm4util4File12write_staticEiPKcm",
            "__ZN5realm5_impl17DeepChangeChecker19find_related_tablesERNSt3__16vectorINS1_12RelatedTableENS2_9allocatorIS4_EEEERKNS_5TableERKNS3_INS3_INS2_4pairINS_8TableKeyENS_6ColKeyEEENS5_ISF_EEEENS5_ISH_EEEE",
            "__ZNK5realm10Decimal128dvEi",
            "__ZNK5realm5_impl14ChangesetIndex28get_schema_changes_for_classENS_10StringDataE",
            "__ZN5realm5Array3getEPKcm",
            "__ZN5realm5Array9bit_widthEx",
            "__ZN5realm5_impl23CollectionChangeBuilder5mergeEOS1_",
            "__ZN5realm11OutOfBoundsC1ENSt3__117basic_string_viewIcNS1_11char_traitsIcEEEEmm",
            "__ZN5realm4sync9websocket21DefaultSocketProviderC2ERKNSt3__110shared_ptrINS_4util6LoggerEEENS3_12basic_stringIcNS3_11char_traitsIcEENS3_9allocatorIcEEEERKNS4_INS_29BindingCallbackThreadObserverEEENS5_10TaggedBoolINS2_12AutoStartTagEEE",
            "__ZN5realm8Subexpr2INS_5MixedEE9ends_withERKS2_b",
            "__ZNK5realm3Obj3getIxEET_NS_6ColKeyE",
            "__ZNK5realm4util20MiscExtErrorCategory4nameEv",
            "__ZNK5realm10Dictionary9find_implENS_5MixedE",
            "__ZN5realm5QueryC1ENSt3__110unique_ptrINS_10ExpressionENS1_14default_deleteIS3_EEEE",
            "__ZN5realm4sync7Session20set_progress_handlerENS_4util14UniqueFunctionIFvyyyyyyEEE",
            "__ZN5realm16SyncUserMetadata19add_realm_file_pathERKNSt3__112basic_stringIcNS1_11char_traitsIcEENS1_9allocatorIcEEEE",
            "__ZNK5realm5Table11count_floatENS_6ColKeyEf",
            "__ZN5realm18set_sorted_indicesEmRNSt3__16vectorImNS0_9allocatorImEEEEb",
            "__ZNK5realm5Realm25can_deliver_notificationsEv",
            "__ZNK5realm5Realm30verify_notifications_availableEb",
            "__ZN5realm4sync14SessionWrapper20on_flx_sync_progressExNS0_18DownloadBatchStateE",
            "__ZN5realm8Subexpr2INS_10StringDataEE9ends_withES1_b",
            "__ZN5realm11SyncSession19create_sync_sessionEv",
            "___bid128_to_int64_ceil",
            "__ZN5realm3app3App4postEONSt3__112basic_stringIcNS2_11char_traitsIcEENS2_9allocatorIcEEEEONS_4util14UniqueFunctionIFvNS2_8optionalINS0_8AppErrorEEEEEERKNS_4bson10IndexedMapINSI_4BsonEEE",
            "__ZN5realm13ArrayUnsigned18update_from_parentEv",
            "__ZNK5realm12object_store3Set14is_superset_ofERKNS0_10CollectionE",
            "__ZN5realm9SlabAlloc18purge_old_mappingsEyy",
            "__ZN5realm5_impl12client_reset17has_pending_resetENSt3__110shared_ptrINS_11TransactionEEE",
            "__ZN5realm4sync7network7Service7do_postEPFPNS2_12PostOperBaseEPvmRNS2_4ImplES5_EmS5_",
            "__ZN5realm12ObjectSchema17property_for_nameENS_10StringDataE",
            "__ZN5realm5Realm22enable_wait_for_changeEv",
            "___bid128qdd_fma",
            "__ZN5realm3app14AppCredentials8facebookENSt3__112basic_stringIcNS2_11char_traitsIcEENS2_9allocatorIcEEEE",
            "__ZNK5realm7Results15get_object_typeEv",
            "__ZNK5realm4sync10ClientImpl7Session13get_virt_pathEv",
            "__ZN5realm8IndexSet3addEm",
            "___bid128_to_int64_rnint",
            "__ZN5realm3app15MongoCollection24find_one_and_delete_bsonERKNS_4bson10IndexedMapINS2_4BsonEEERKNS1_23FindOneAndModifyOptionsEONS_4util14UniqueFunctionIFvONSt3__18optionalIS4_EENSE_INS0_8AppErrorEEEEEE",
            "__ZN5realm4util20EncryptedFileMapping12reclaim_pageEm",
            "__ZN5realm8Subexpr2INS_10BinaryDataEE9not_equalES1_b",
            "__ZNK5realm16ClusterNodeInner18get_last_key_valueEv",
            "__ZN5realm5_impl16RealmCoordinator23process_available_asyncERNS_5RealmE",
            "__ZNK5realm17ChunkedBinaryData8iteratorEv",
            "__ZN5realm15string_like_insENS_10StringDataES0_",
            "__ZN5realm14BPlusTreeInnerD1Ev",
            "__ZNK5realm5Table15find_all_stringENS_6ColKeyENS_10StringDataE",
            "__ZN5realm11ClusterTree23enumerate_string_columnENS_6ColKeyE",
            "__ZN5realm4bson17holds_alternativeINS0_6MaxKeyEEEbRKNS0_4BsonE",
            "__ZN5realm13ArrayBacklink17nullify_fwd_linksEmRNS_12CascadeStateE",
            "__ZN5realm5GroupC2ENS_10BinaryDataEb",
            "__ZN5realm4util11create_fifoENSt3__117basic_string_viewIcNS1_11char_traitsIcEEEE",
            "__ZN5realm4sync14MigrationStoreC1ENSt3__110shared_ptrINS_2DBEEE",
            "__ZN5realm11ObjectStore22delete_data_for_objectERNS_5GroupENS_10StringDataE",
            "__ZNK5realm5_impl12client_reset15InterningBuffer5printEv",
            "__ZN5realm4sync10ClientImpl10Connection24receive_download_messageEyRKNS0_12SyncProgressEyxNS0_18DownloadBatchStateERKNSt3__16vectorINS0_11Transformer15RemoteChangesetENS7_9allocatorISA_EEEE",
            "__ZNK5realm4sync13ClientHistory6Arrays6verifyEv",
            "__ZN5realm4sync7network22resolve_error_categoryEv",
            "__ZN5realm29InvalidSchemaVersionExceptionC2Eyyb",
            "__ZN5realm4util11compression15make_error_codeENS1_5errorE",
            "__ZN5realm4sync13ClientHistory23find_sync_history_entryERNS1_6ArraysEyyyRNS0_12HistoryEntryERy",
            "__ZN5realm14BaseDescriptor6SorterC1ERKNSt3__16vectorINS3_INS_17ExtendedColumnKeyENS2_9allocatorIS4_EEEENS5_IS7_EEEERKNS3_IbNS5_IbEEEERKNS_5TableERKNS0_10IndexPairsE",
            "__ZN5realm5_impl23CollectionChangeBuilder9calculateERKNSt3__16vectorImNS2_9allocatorImEEEES8_NS_4util11FunctionRefIFbmEEE",
            "__ZN5realm5Mixed20types_are_comparableERKS0_S2_",
            "__ZN5realm4sync7network3ssl6Stream12do_ssl_writeEPKcm",
            "__ZN5realm5Realm22get_synchronized_realmENS_11RealmConfigE",
            "__ZN5realm5Group11update_refsEm",
            "__ZN5realm9SlabAlloc13attach_bufferEPKcm",
            "__ZN5realm5Query10less_equalENS_6ColKeyEx",
            "__ZNK5realm10Dictionary3minEPm",
            "__ZNK5realm5Table25get_incoming_link_columnsEv",
            "__ZN5realm5QueryC2EPKS0_PNS_11TransactionENS_13PayloadPolicyE",
            "__ZNK5realm3app3App12url_for_pathERKNSt3__112basic_stringIcNS2_11char_traitsIcEENS2_9allocatorIcEEEE",
            "__ZN21RLMObservationTrackerC2EP8RLMRealmb",
            "__ZN5realm5Table23remove_object_recursiveENS_6ObjKeyE",
            "__ZN5realm4sync7network7ServiceC2Ev",
            "_RLMDynamicValidatedSet",
            "__ZN5realm10ErrorCodes13get_all_codesEv",
            "__ZN5realm5Query12size_greaterENS_6ColKeyEx",
            "_RLMSetSwiftPropertyDouble",
            "__ZNK5realm5_impl12client_reset8ListPath7ElementltERKS3_",
            "__ZN5realm7Cluster16ensure_writeableENS_6ObjKeyE",
            "__ZN5realm16SectionedResultsC1ENS_7ResultsENS_4util14UniqueFunctionIFNS_5MixedES4_RKNSt3__110shared_ptrINS_5RealmEEEEEE",
            "_RLMGetSwiftPropertyData",
            "__ZNK5realm5Group8validateENS_7ObjLinkE",
            "__ZN5realm12object_store3Set10delete_allEv",
            "__ZN5realm5_impl12client_reset29RecoverLocalChangesetsHandlerclERKNS_4sync5instr8SetEraseE",
            "__ZN5realm10Decimal128C2ENS0_6Bid128Eib",
            "__ZN5realm5Array30update_width_cache_from_headerEv",
            "__ZN5realm4sync16make_transformerEv",
            "__ZN5realm5_impl12ListNotifier8reattachEv",
            "__ZN5realm16SyncUserIdentityC1ERKNSt3__112basic_stringIcNS1_11char_traitsIcEENS1_9allocatorIcEEEES9_",
            "__ZN5realm4sync18InstructionApplier12PathResolverD0Ev",
            "__ZN5realm3app3App23close_all_sync_sessionsEv",
            "__ZN5realm9ExceptionC1ENS_6StatusE",
            "__ZN5realm9SlabAlloc21remove_freelist_entryEPNS0_9FreeBlockE",
            "__ZN5realm4util10serializer18SerialisationState24get_backlink_column_nameENS_13ConstTableRefENS_6ColKeyE",
            "__ZN5realm5_impl19ListResultsNotifier8reattachEv",
            "__ZNK5realm5Mixed14export_to_typeIdEET_v",
            "__ZN5realm5_impl16RealmCoordinator24get_existing_coordinatorENS_10StringDataE",
            "__ZNK5realm8SyncUser9device_idEv",
            "__ZN5realm5Query4likeENS_6ColKeyENS_10BinaryDataEb",
            "__ZN5realm8RealmJWTC2ERKNSt3__112basic_stringIcNS1_11char_traitsIcEENS1_9allocatorIcEEEE",
            "__ZNK5realm7Results8distinctERKNSt3__16vectorINS1_12basic_stringIcNS1_11char_traitsIcEENS1_9allocatorIcEEEENS6_IS8_EEEE",
            "__ZN5realm4sync7Session44wait_for_download_complete_or_client_stoppedEv",
            "__ZN5realm4sync10ClientImpl8shutdownEv",
            "__ZNK5realm11SyncManager9reconnectEv",
            "__ZN12RLMClassInfo7resolveEP8RLMRealm",
            "__ZNK5realm3Obj10_get_allocEv",
            "__ZNK5realm3Obj18get_dictionary_ptrENS_6ColKeyE",
            "__ZNK5realm5Group5writeERKNSt3__112basic_stringIcNS1_11char_traitsIcEENS1_9allocatorIcEEEEPKcyb",
            "__ZNK5realm11ArrayBinary10find_firstENS_10BinaryDataEmm",
            "__ZN5realm5_impl12client_reset29RecoverLocalChangesetsHandler16RecoveryResolverC1EPS2_RNS_4sync5instr15PathInstructionERKNSt3__117basic_string_viewIcNS9_11char_traitsIcEEEE",
            "__ZNK5realm15ObjectChangeSet19insertions_containsENS_6ObjKeyE",
            "__ZN5realm3app10PushClientD1Ev",
            "__ZNK5realm11TypeOfValue9to_stringEv",
            "__ZN5realm5GroupD2Ev",
            "__ZN5realm16SectionedResults37add_notification_callback_for_sectionENS_5MixedEONS_4util14UniqueFunctionIFvNS_25SectionedResultsChangeSetEEEENSt3__18optionalINS8_6vectorINSA_INS8_4pairINS_8TableKeyENS_6ColKeyEEENS8_9allocatorISE_EEEENSF_ISH_EEEEEE",
            "__ZN5realm11SyncSession28wait_for_download_completionEONS_4util14UniqueFunctionIFvNS_6StatusEEEE",
            "__Z30RLMValidateArrayObservationKeyP8NSStringP8RLMArray",
            "__ZNK5realm19SyncMetadataManager13try_get_realmEv",
            "__ZN5realm5_impl29get_object_ids_in_instructionERKNS_4sync9ChangesetERKNS1_11InstructionEPNS1_8GlobalIDEm",
            "__ZNK5realm17ExtendedColumnKey15get_link_targetERKNS_3ObjE",
            "___bid64qd_mul",
            "__ZN5realm7ResultsC2ENSt3__110shared_ptrINS_5RealmEEENS2_INS_14CollectionBaseEEENS_18DescriptorOrderingE",
            "__ZN5realm7ColumnsINS_10DictionaryEE4keysEv",
            "__ZN5realm15ArrayDecimal1285eraseEm",
            "__ZN5realm5Group23set_file_format_versionEi",
            "__ZNK5realm10Decimal1286is_nanEv",
            "__ZN5realm4sync10ClientImpl7Session27receive_query_error_messageEiNSt3__117basic_string_viewIcNS3_11char_traitsIcEEEEx",
            "__ZN5realm5Table13remove_objectENS_6ObjKeyE",
            "_RLMSetSwiftValueStorage",
            "__ZNK5realm11SyncManager14path_for_realmERKNS_10SyncConfigENSt3__18optionalINS4_12basic_stringIcNS4_11char_traitsIcEENS4_9allocatorIcEEEEEE",
            "__ZN5realm5Table27get_objkey_from_primary_keyERKNS_5MixedE",
            "__ZN5realm4sync10ClientImpl10Connection29handle_connection_establishedEv",
            "__ZN5realm4sync16ChangesetEncoder12append_valueENS0_5instr9AddColumn14CollectionTypeE",
            "__ZNK5realm11SyncManager16get_current_userEv",
            "__ZN5realm4sync10ClientImpl7Session29check_for_download_completionEv",
            "__ZN5realm4sync12SubscriptionC1ENSt3__18optionalINS2_12basic_stringIcNS2_11char_traitsIcEENS2_9allocatorIcEEEEEES9_S9_",
            "__ZN5realm5QueryC1EPKS0_PNS_11TransactionENS_13PayloadPolicyE",
            "__ZNK5realm5Table3endEv",
            "__ZNK5realm10IndexArray13from_list_allENS_5MixedERNSt3__16vectorINS_6ObjKeyENS2_9allocatorIS4_EEEERKNS_13IntegerColumnERKNS_13ClusterColumnE",
            "__ZN5realm11Replication20do_initiate_transactERNS_5GroupEyb",
            "__ZN5realm3Obj49handle_multiple_backlinks_during_schema_migrationEv",
            "__ZN5realm9SlabAlloc11break_blockEPNS0_9FreeBlockEi",
            "__ZNK5realm12ObjectSchema24property_for_public_nameENS_10StringDataE",
            "__ZN5realm4Spec13insert_columnEmNS_6ColKeyENS_10ColumnTypeENS_10StringDataEi",
            "__ZN5realm7metrics17MetricTimerResult18report_nanosecondsEx",
            "__ZN5realm5_impl14ChangesetIndex21object_conflict_groupERKNS_4sync8GlobalIDE",
            "__ZN5realm13BPlusTreeNodeD1Ev",
            "__ZN5realm11GroupWriter9MapWindowD2Ev",
            "__ZNK5realm3Obj13get_object_idEv",
            "__ZN5realm5_impl22get_extra_seed_entropyERjS1_S1_",
            "__ZN5realm12ObjectSchemaC1ENSt3__112basic_stringIcNS1_11char_traitsIcEENS1_9allocatorIcEEEENS0_10ObjectTypeESt16initializer_listINS_8PropertyEESB_S7_",
            "__ZNK5realm12object_store3Set7get_anyEm",
            "__ZN5realm9SlabAlloc10mark_freedEPNS0_9FreeBlockEi",
            "__ZN5realm20DictionaryLinkValuesC2ERKNS_10DictionaryE",
            "__ZNK5realm4Spec15get_subspec_ndxEm",
            "__ZN5realm12ObjectSchema14from_core_typeENS_10ColumnTypeE",
            "__ZN5realm3app14AppCredentials17username_passwordENSt3__112basic_stringIcNS2_11char_traitsIcEENS2_9allocatorIcEEEES8_",
            "__ZNR5realm16SectionedResults25add_notification_callbackEONS_4util14UniqueFunctionIFvNS_25SectionedResultsChangeSetEEEENSt3__18optionalINS7_6vectorINS9_INS7_4pairINS_8TableKeyENS_6ColKeyEEENS7_9allocatorISD_EEEENSE_ISG_EEEEEE",
            "__ZN5realm19StringNodeEqualBase16find_first_localEmm",
            "__ZN5realm4List12add_embeddedEv",
            "__ZN5realm28UnsupportedFileFormatVersionD2Ev",
            "__ZN5realm4sync7network8Resolver11get_serviceEv",
            "__ZN12RLMClassInfo14linkTargetTypeEm",
            "__ZN5realm2DB12do_end_writeEv",
            "__ZN5realm4util10AESCryptorC1EPKh",
            "_RLMSetSwiftPropertyAny",
            "__ZNK5realm7Results4sortEONS_14SortDescriptorE",
            "__ZN5realm5Query8links_toENS_6ColKeyENS_7ObjLinkE",
            "__ZNK5realm6Schema8validateENS_20SchemaValidationModeE",
            "__ZN5realm4sync14MigrationStore16get_query_stringEv",
            "__ZNK5realm7Results8distinctEONS_18DistinctDescriptorE",
            "__ZN5realm2DB12start_frozenENS_9VersionIDE",
            "__ZN5realm18SerializationErrorD2Ev",
            "__ZN5realm5Array23do_ensure_minimum_widthEx",
            "__ZN5realm5_impl17DeepChangeCheckerC2ERKNS0_21TransactionChangeInfoERKNS_5TableERKNSt3__16vectorINS1_12RelatedTableENS8_9allocatorISA_EEEERKNS9_INS9_INS8_4pairINS_8TableKeyENS_6ColKeyEEENSB_ISJ_EEEENSB_ISL_EEEEb",
            "__ZNK5realm5Mixed3getINSt3__18optionalINS_4UUIDEEEEET_v",
            "__ZN5realm4util9SchedulerD1Ev",
            "__ZN5realm4sync7Session36set_connection_state_change_listenerENS_4util14UniqueFunctionIFvNS0_15ConnectionStateENSt3__18optionalINS0_16SessionErrorInfoEEEEEE",
            "__ZN5realm5Query10less_equalENS_6ColKeyENS_9TimestampE",
            "__ZN5realm4sync16ChangesetEncoder12append_valueEd",
            "_RLMEventCommitScope",
            "__ZN5realm4sync15SyncReplication10set_insertERKNS_14CollectionBaseEmNS_5MixedE",
            "__ZN5realm19SyncMetadataManager16set_app_metadataERKNSt3__112basic_stringIcNS1_11char_traitsIcEENS1_9allocatorIcEEEES9_S9_S9_",
            "__ZN5realm2DB5closeEb",
            "__ZN5realm7Results4sizeEv",
            "__ZN5realm16SyncUserMetadata13set_device_idERKNSt3__112basic_stringIcNS1_11char_traitsIcEENS1_9allocatorIcEEEE",
            "__ZN5realm9SlabAlloc20rebuild_translationsEbm",
            "__ZN5realm9Tokenizer17get_search_tokensEv",
            "__ZNK5realm12object_store10Collection21get_parent_object_keyEv",
            "__ZNK5realm11SyncManager9log_levelEv",
            "__ZNK5realm7LinkMap20collect_dependenciesERNSt3__16vectorINS_8TableKeyENS1_9allocatorIS3_EEEE",
            "__ZN5realm4bson17RegularExpressionC2ENSt3__112basic_stringIcNS2_11char_traitsIcEENS2_9allocatorIcEEEENS1_6OptionE",
            "__ZN5realm22SyncFileActionMetadata10set_actionENS0_6ActionE"
          ],
          "weak": [
            "__ZNK5realm3LstINSt3__18optionalINS_8ObjectIdEEEE16init_from_parentEb",
            "__ZN5realm3LstIdE6do_setEmd",
            "__ZN5realm4util10serializer11print_valueINS_10QueryValueEEENSt3__112basic_stringIcNS4_11char_traitsIcEENS4_9allocatorIcEEEET_",
            "__ZN5realm5Array3setILm32EEEvmx",
            "__ZNK5realm15ArrayFixedBytesINS_8ObjectIdELi12EE3Pos7is_nullEPKS2_",
            "__ZN5realm3LstINSt3__18optionalIfEEE4swapEmm",
            "__ZNK5realm3LstINSt3__18optionalIfEEE5cloneEv",
            "__ZN5realm3LstINS_8ObjectIdEE8set_nullEm",
            "__ZN5realm3LstINS_10StringDataEE3setEmS1_",
            "__ZN5realm3LstINS_10Decimal128EE18unresolved_to_nullENS_5MixedE",
            "__ZNK5realm3LstINS_4UUIDEE10find_firstERKS1_",
            "__ZNK5realm4List4findINS_4UUIDEEEmRKT_",
            "__ZN5realm3LstINSt3__18optionalINS_8ObjectIdEEEE8set_nullEm",
            "__ZN5realm12object_store3Set6insertINSt3__18optionalIdEEEENS3_4pairImbEET_",
            "__ZN5realm6createINS_7GreaterENS_5MixedES2_EENS_5QueryET0_RKNS_8Subexpr2IT1_EE",
            "__ZN5realm7Results4lastIdEENSt3__18optionalIT_EEv",
            "__ZN5realm3LstINS_9TimestampEE9do_removeEm",
            "__ZN5realm7Results5firstIdEENSt3__18optionalIT_EEv",
            "__ZN5realm7create2INS_12GreaterEqualEdxEENS_5QueryERKNS_8Subexpr2IT0_EERKNS3_IT1_EE",
            "__ZNK5realm3LstINSt3__18optionalINS_4UUIDEEEE4sortERNS1_6vectorImNS1_9allocatorImEEEEb",
            "__ZN5realm3LstINSt3__18optionalIxEEEC1EOS4_",
            "__ZN5realm7create2INS_5EqualEffEENS_5QueryERKNS_8Subexpr2IT0_EERKNS3_IT1_EE",
            "__ZN5realm3LstINS_8ObjectIdEEC1EOS2_",
            "__ZN5realm6createINS_8NotEqualEddEENS_5QueryET0_RKNS_8Subexpr2IT1_EE",
            "__ZNK5realm15ArrayFixedBytesINS_8ObjectIdELi12EE7get_anyEm",
            "__ZN5realm3LstIfE6do_setEmf",
            "__ZNSt3__112__hash_tableINS_17__hash_value_typeIU8__strongP8NSString12RLMClassInfoEENS_22__unordered_map_hasherIS4_S6_NS_4hashIS4_EENS_8equal_toIS4_EELb1EEENS_21__unordered_map_equalIS4_S6_SB_S9_Lb1EEENS_9allocatorIS6_EEE4findIS4_EENS_15__hash_iteratorIPNS_11__hash_nodeIS6_PvEEEERKT_",
            "__ZN5realm19ThreadSafeReference7resolveINS_12object_store10DictionaryEEET_RKNSt3__110shared_ptrINS_5RealmEEE",
            "__ZN5realm3LstINSt3__18optionalINS_8ObjectIdEEEE6removeEm",
            "__ZN5realm15ArrayFixedBytesINS_8ObjectIdELi12EE8truncateEm",
            "__ZNK5realm5Array3getILm2EEExm",
            "__ZN5realm3LstINS_10BinaryDataEE6resizeEm",
            "__ZNK5realm3LstINS_5MixedEE6do_getEmPKc",
            "__ZN5realm4List6insertIxEEvmT_",
            "__ZNSt3__112__hash_tableINS_17__hash_value_typeINS_12basic_stringIcNS_11char_traitsIcEENS_9allocatorIcEEEEN5realm4bson4BsonEEENS_22__unordered_map_hasherIS7_SB_NS_4hashIS7_EENS_8equal_toIS7_EELb1EEENS_21__unordered_map_equalIS7_SB_SG_SE_Lb1EEENS5_ISB_EEE21__construct_node_hashIRKNS_21piecewise_construct_tEJNS_5tupleIJRKS7_EEENSQ_IJEEEEEENS_10unique_ptrINS_11__hash_nodeISB_PvEENS_22__hash_node_destructorINS5_ISY_EEEEEEmOT_DpOT0_",
            "__ZN5realm6createINS_8NotEqualExNS_10Decimal128EEENS_5QueryET0_RKNS_8Subexpr2IT1_EE",
            "__ZN5realm6createINS_5EqualENS_4nullENS_10Decimal128EEENS_5QueryET0_RKNS_8Subexpr2IT1_EE",
            "__ZN5realm4List6insertINS_6ObjKeyEEEvmT_",
            "__ZNK5realm3LstINS_9TimestampEE16update_if_neededEv",
            "__ZNSt3__111__introsortINS_17_ClassicAlgPolicyERZN21RLMObservationTracker19cascadeNotificationIN5realm5Group19CascadeNotificationEEEvRKT_EUlS7_T0_E_PPNS_6vectorIP18RLMObservationInfoNS_9allocatorISF_EEEELb0EEEvT1_SL_SA_NS_15iterator_traitsISL_E15difference_typeEb",
            "__ZN5realm3LstINSt3__18optionalIfEEE8do_clearEv",
            "__ZN5realm4List3setINSt3__18optionalIfEEEEvmT_",
            "__ZNK5realm3LstINS_10Decimal128EE5cloneEv",
            "__ZNK5realm3LstIbE7get_anyEm",
            "__ZN5realm6createINS_4LessENS_10Decimal128ENS_5MixedEEENS_5QueryET0_RKNS_8Subexpr2IT1_EE",
            "__ZN5realm12make_subexprINS_25CollectionColumnAggregateIxNS_20aggregate_operations7MinimumIxEEEEJRKS5_EEENSt3__110unique_ptrINS_7SubexprENS8_14default_deleteISA_EEEEDpOT0_",
            "__ZN5realm3LstINS_5MixedEEC1EOS2_",
            "__ZNK5realm3LstINSt3__18optionalIxEEE3getEm",
            "__ZNSt3__16__treeINS_12__value_typeINS_12basic_stringIcNS_11char_traitsIcEENS_9allocatorIcEEEEN8nlohmann10basic_jsonINS_3mapENS_6vectorES7_bxydS5_NS8_14adl_serializerEEEEENS_19__map_value_compareIS7_SE_NS_4lessIvEELb1EEENS5_ISE_EEE12__find_equalIS7_EERPNS_16__tree_node_baseIPvEENS_21__tree_const_iteratorISE_PNS_11__tree_nodeISE_SN_EElEERPNS_15__tree_end_nodeISP_EESQ_RKT_",
            "__ZN5realm3LstIfE4moveEmm",
            "__ZNK5realm3Obj3getIfEET_NS_6ColKeyE",
            "__ZN5realm6createINS_4LessExxEENS_5QueryET0_RKNS_8Subexpr2IT1_EE",
            "__ZN5realm12object_store10Dictionary6insertINSt3__18optionalIdEEEEvNS_10StringDataET_",
            "__ZN5realm6createINS_8NotEqualENS_4nullENS_9TimestampEEENS_5QueryET0_RKNS_8Subexpr2IT1_EE",
            "__ZN5realm15ArrayFixedBytesINS_4UUIDELi16EE13init_from_refEm",
            "__ZN5realm3LstINS_7ObjLinkEE6removeEm",
            "__ZNK5realm4List4findINSt3__18optionalIfEEEEmRKT_",
            "__ZNK5realm3LstIxE7get_anyEm",
            "__ZN5realm7create2INS_7GreaterENS_9TimestampES2_EENS_5QueryERKNS_8Subexpr2IT0_EERKNS4_IT1_EE",
            "__ZN5realm3LstIdE6resizeEm",
            "__ZN5realm7create2INS_5EqualENS_5MixedENS_9TimestampEEENS_5QueryERKNS_8Subexpr2IT0_EERKNS5_IT1_EE",
            "__ZNK5realm3LstINSt3__18optionalINS_8ObjectIdEEEE4sortERNS1_6vectorImNS1_9allocatorImEEEEb",
            "__ZN5realm3LstIxE9do_removeEm",
            "__ZN5realm3LstIdEaSEOS1_",
            "__ZN5realm12object_store3Set6insertINSt3__18optionalINS_4UUIDEEEEENS3_4pairImbEET_",
            "__ZN5realm12make_subexprINS_5ValueINS_10StringDataEEEJRKS3_EEENSt3__110unique_ptrINS_7SubexprENS6_14default_deleteIS8_EEEEDpOT0_",
            "__ZNK5realm3LstINSt3__18optionalIdEEE16clone_collectionEv",
            "__ZN5realm7create2INS_5EqualENS_5MixedENS_10Decimal128EEENS_5QueryERKNS_8Subexpr2IT0_EERKNS5_IT1_EE",
            "__ZN5realm6createINS_8NotEqualENS_4UUIDENS_5MixedEEENS_5QueryET0_RKNS_8Subexpr2IT1_EE",
            "__ZNK5realm3LstINSt3__18optionalINS_8ObjectIdEEEE3minEPm",
            "__ZN8nlohmann6detail7to_jsonINS_10basic_jsonINSt3__13mapENS3_6vectorENS3_12basic_stringIcNS3_11char_traitsIcEENS3_9allocatorIcEEEEbxydS9_NS_14adl_serializerEEEbLi0EEEvRT_T0_",
            "__ZNK5realm12object_store3Set4findINS_10BinaryDataEEEmRKT_",
            "__ZN5realm7create2INS_4LessENS_5MixedES2_EENS_5QueryERKNS_8Subexpr2IT0_EERKNS4_IT1_EE",
            "__ZNK5realm3LstINS_4UUIDEE7is_nullEm",
            "__ZNSt3__16__treeINS_12__value_typeINS_12basic_stringIcNS_11char_traitsIcEENS_9allocatorIcEEEES7_EENS_19__map_value_compareIS7_S8_NS_4lessIS7_EELb1EEENS5_IS8_EEE12__find_equalIS7_EERPNS_16__tree_node_baseIPvEERPNS_15__tree_end_nodeISJ_EERKT_",
            "__ZNK5realm3LstIdE3minEPm",
            "__ZNK5realm3LstINS_4UUIDEE16init_from_parentEb",
            "__ZN5realm7create2INS_7GreaterENS_10Decimal128EfEENS_5QueryERKNS_8Subexpr2IT0_EERKNS4_IT1_EE",
            "__ZN5realm12make_subexprINS_7ColumnsINS_4UUIDEEEJRKS3_EEENSt3__110unique_ptrINS_7SubexprENS6_14default_deleteIS8_EEEEDpOT0_",
            "__ZNSt3__112__hash_tableINS_17__hash_value_typeIU8__strongP8NSString12RLMClassInfoEENS_22__unordered_map_hasherIS4_S6_NS_4hashIS4_EENS_8equal_toIS4_EELb1EEENS_21__unordered_map_equalIS4_S6_SB_S9_Lb1EEENS_9allocatorIS6_EEE11__do_rehashILb1EEEvm",
            "__ZN5realm3LstINS_10StringDataEE9do_removeEm",
            "__ZN5realm3LstINSt3__18optionalIdEEEC2EOS4_",
            "__ZN5realm3LstINSt3__18optionalIbEEE6do_setEmS3_",
            "__ZN8nlohmann6detail7to_jsonINS_10basic_jsonINSt3__13mapENS3_6vectorENS3_12basic_stringIcNS3_11char_traitsIcEENS3_9allocatorIcEEEEbxydS9_NS_14adl_serializerEEEyLi0EEEvRT_T0_",
            "__ZNK5realm3LstINS_5MixedEE7is_nullEm",
            "__ZN5realm12object_store10Dictionary6insertINSt3__18optionalIbEEEEvNS_10StringDataET_",
            "__ZN5realm6createINS_12GreaterEqualENS_5MixedES2_EENS_5QueryET0_RKNS_8Subexpr2IT1_EE",
            "__ZN5realm4util9terminateIJylmmEEEvPKcS3_lDpT_",
            "__ZNK5realm3LstINS_4UUIDEEixEm",
            "__ZN5realm7create2INS_9LessEqualEdfEENS_5QueryERKNS_8Subexpr2IT0_EERKNS3_IT1_EE",
            "__ZN5realm6createINS_5EqualEffEENS_5QueryET0_RKNS_8Subexpr2IT1_EE",
            "__ZN5realm6createINS_7GreaterExdEENS_5QueryET0_RKNS_8Subexpr2IT1_EE",
            "__ZNK5realm3LstINS_10Decimal128EE3sumEPm",
            "__ZN5realm12make_subexprINS_18SubColumnAggregateIdNS_20aggregate_operations7MinimumIdEEEEJRKS5_EEENSt3__110unique_ptrINS_7SubexprENS8_14default_deleteISA_EEEEDpOT0_",
            "__ZNK5realm3LstIxE3minEPm",
            "__ZN5realm3LstINS_5MixedEE6removeEm",
            "__ZN5realm7create2INS_5EqualENS_5MixedES2_EENS_5QueryERKNS_8Subexpr2IT0_EERKNS4_IT1_EE",
            "__ZN5realm3LstINS_10Decimal128EEC1EOS2_",
            "__ZN5realm3LstINS_8ObjectIdEEC2ERKNS_3ObjENS_6ColKeyE",
            "__ZNK5realm3LstIxE15translate_indexEm",
            "__ZN5realm6createINS_5EqualENS_4nullEbEENS_5QueryET0_RKNS_8Subexpr2IT1_EE",
            "__ZNK5realm5Table10find_firstINS_10BinaryDataEEENS_6ObjKeyENS_6ColKeyET_",
            "__ZN5realm3LstINS_6ObjKeyEE8set_nullEm",
            "__ZN5realm3LstIfE3addEf",
            "__ZN5realm6createINS_4LessEffEENS_5QueryET0_RKNS_8Subexpr2IT1_EE",
            "__ZN5realm3LstINS_8ObjectIdEEaSEOS2_",
            "__ZN5realm3LstINS_7ObjLinkEEC2ERKS2_",
            "__ZN5realm3LstINS_4UUIDEEC1ERKNS_3ObjENS_6ColKeyE",
            "__ZN5realm3LstINS_4UUIDEEC2ERKS2_",
            "__ZN5realm19ThreadSafeReferenceC2INS_12object_store3SetEEERKT_",
            "__ZNSt3__112__hash_tableINS_17__hash_value_typeINS_12basic_stringIcNS_11char_traitsIcEENS_9allocatorIcEEEEN5realm4bson4BsonEEENS_22__unordered_map_hasherIS7_SB_NS_4hashIS7_EENS_8equal_toIS7_EELb1EEENS_21__unordered_map_equalIS7_SB_SG_SE_Lb1EEENS5_ISB_EEE21__construct_node_hashIRKNS_4pairIKS7_SA_EEJEEENS_10unique_ptrINS_11__hash_nodeISB_PvEENS_22__hash_node_destructorINS5_ISV_EEEEEEmOT_DpOT0_",
            "__ZN5realm12make_subexprINS_18SubColumnAggregateIfNS_20aggregate_operations7MinimumIfEEEEJRKS5_EEENSt3__110unique_ptrINS_7SubexprENS8_14default_deleteISA_EEEEDpOT0_",
            "__ZN5realm12make_subexprINS_5ValueINS_5MixedEEEJRKS3_EEENSt3__110unique_ptrINS_7SubexprENS6_14default_deleteIS8_EEEEDpOT0_",
            "__ZN5realm3LstINSt3__18optionalINS_4UUIDEEEE4moveEmm",
            "__ZNK5realm3LstINS_7ObjLinkEE15translate_indexEm",
            "__ZNK5realm3LstINS_5MixedEE10find_firstERKS1_",
            "__ZN5realm7create2INS_8NotEqualEbbEENS_5QueryERKNS_8Subexpr2IT0_EERKNS3_IT1_EE",
            "__ZNK5realm3LstINS_6ObjKeyEE8find_anyENS_5MixedE",
            "__ZNK5realm3LstINSt3__18optionalIxEEE5beginEv",
            "__ZNK5realm3LstINS_6ObjKeyEE3avgEPm",
            "__ZN5realm7create2INS_5EqualENS_10Decimal128ExEENS_5QueryERKNS_8Subexpr2IT0_EERKNS4_IT1_EE",
            "__ZN5realm3LstINSt3__18optionalIbEEEC2EOS4_",
            "__ZN5realm3LstINSt3__18optionalINS_8ObjectIdEEEE6removeERKNS_18CollectionIteratorIS5_EE",
            "__ZN5realm4List3setINSt3__18optionalIbEEEEvmT_",
            "__ZNK5realm19ThreadSafeReference2isINS_7ResultsEEEbv",
            "__ZNK5realm3LstINS_10StringDataEE3minEPm",
            "__ZNK5realm3LstINSt3__18optionalIfEEE15translate_indexEm",
            "__ZNK5realm3LstINS_10StringDataEE3sumEPm",
            "__ZN5realm7create2INS_4LessENS_5MixedENS_10Decimal128EEENS_5QueryERKNS_8Subexpr2IT0_EERKNS5_IT1_EE",
            "__ZN5realm12make_subexprINS_5ValueIfEEJRKS2_EEENSt3__110unique_ptrINS_7SubexprENS5_14default_deleteIS7_EEEEDpOT0_",
            "__ZN5realm3LstINS_8ObjectIdEEC2ERKS2_",
            "__ZN5realm19ThreadSafeReferenceC2INS_7ResultsEEERKT_",
            "__ZNSt3__112__hash_tableINS_17__hash_value_typeIU8__strongP8NSString12RLMClassInfoEENS_22__unordered_map_hasherIS4_S6_NS_4hashIS4_EENS_8equal_toIS4_EELb1EEENS_21__unordered_map_equalIS4_S6_SB_S9_Lb1EEENS_9allocatorIS6_EEE21__emplace_unique_implIJRKNS_21piecewise_construct_tENS_5tupleIJRU8__strongKS3_EEENSM_IJRKP8RLMRealmRKP15RLMObjectSchemaOPKN5realm12ObjectSchemaEEEEEEENS_4pairINS_15__hash_iteratorIPNS_11__hash_nodeIS6_PvEEEEbEEDpOT_",
            "__ZNK5realm3LstINSt3__18optionalIdEEE4sortERNS1_6vectorImNS1_9allocatorImEEEEb",
            "__ZNK5realm3LstINSt3__18optionalIfEEEixEm",
            "__ZN5realm3LstINS_7ObjLinkEE6resizeEm",
            "__ZNSt3__16__treeINS_12__value_typeINS_12basic_stringIcNS_11char_traitsIcEENS_9allocatorIcEEEES7_EENS_19__map_value_compareIS7_S8_NS_4lessIS7_EELb1EEENS5_IS8_EEE12__find_equalIS8_EERPNS_16__tree_node_baseIPvEERPNS_15__tree_end_nodeISJ_EERKT_",
            "__ZNK5realm11StringIndex8find_allINS_9TimestampEEEvRNSt3__16vectorINS_6ObjKeyENS3_9allocatorIS5_EEEET_b",
            "__ZNK5realm3LstINS_10StringDataEE3maxEPm",
            "__ZNK5realm4List4findINS_10BinaryDataEEEmRKT_",
            "__ZNK5realm3LstINS_6ObjKeyEE3minEPm",
            "__ZN5realm12object_store10Dictionary6insertINSt3__18optionalINS_4UUIDEEEEEvNS_10StringDataET_",
            "__ZN5realm7create2INS_9LessEqualEdxEENS_5QueryERKNS_8Subexpr2IT0_EERKNS3_IT1_EE",
            "__ZN5realm3LstIfE6removeEmm",
            "__ZN5realm3LstINS_7ObjLinkEE18unresolved_to_nullENS_5MixedE",
            "__ZN5realm7Results8index_ofINS_10BinaryDataEEEmRKT_",
            "__ZN5realm3LstINS_6ObjKeyEE11insert_nullEm",
            "__ZNK5realm5Array11find_vtableINS_8NotEqualELm2EEEbxmmmPNS_14QueryStateBaseE",
            "__ZN5realm12make_subexprINS_18SubColumnAggregateINS_9TimestampENS_20aggregate_operations7MinimumIS2_EEEEJRKS6_EEENSt3__110unique_ptrINS_7SubexprENS9_14default_deleteISB_EEEEDpOT0_",
            "__ZN5realm7create2INS_12GreaterEqualENS_5MixedEdEENS_5QueryERKNS_8Subexpr2IT0_EERKNS4_IT1_EE",
            "__ZN5realm3LstIfEC1ERKS1_",
            "__ZNK5realm3LstINS_10Decimal128EE3getEm",
            "__ZN5realm3LstINS_7ObjLinkEE8do_clearEv",
            "__ZN5realm7Results8index_ofIdEEmRKT_",
            "__ZNK5realm3LstIdE4sizeEv",
            "__ZNK5realm4List4findINS_6ObjKeyEEEmRKT_",
            "__ZNK5realm3LstINS_4UUIDEE16update_if_neededEv",
            "__ZNK5realm15ArrayFixedBytesINS_8ObjectIdELi12EE3Pos9get_valueEPKS2_",
            "__ZN5realm3LstINSt3__18optionalIxEEEC2EOS4_",
            "__ZN5realm3LstINSt3__18optionalIxEEE8do_clearEv",
            "__ZN5realm4List3setIfEEvmT_",
            "__ZNK5realm5Array9get_chunkILm32EEEvmPx",
            "__ZN5realm6createINS_12GreaterEqualENS_9TimestampENS_5MixedEEENS_5QueryET0_RKNS_8Subexpr2IT1_EE",
            "__ZN5realm7create2INS_5EqualENS_9TimestampES2_EENS_5QueryERKNS_8Subexpr2IT0_EERKNS4_IT1_EE",
            "__ZN5realm7create2INS_12GreaterEqualENS_10Decimal128EdEENS_5QueryERKNS_8Subexpr2IT0_EERKNS4_IT1_EE",
            "__ZN5realm19ArrayFixedBytesNullINS_4UUIDELi16EEC2ERNS_9AllocatorE",
            "__ZNK5realm3LstINSt3__18optionalIfEEE10find_firstERKS3_",
            "__ZN5realm3Obj3setINS_9TimestampEEERS0_NS_6ColKeyET_b",
            "__ZN5realm3LstIdE4swapEmm",
            "__ZNK5realm3LstINS_10StringDataEE3endEv",
            "__ZNK5realm3LstINSt3__18optionalIbEEE5cloneEv",
            "__ZNK5realm3LstINS_5MixedEE3getEm",
            "__ZNK5realm5Array11find_vtableINS_8NotEqualELm4EEEbxmmmPNS_14QueryStateBaseE",
            "__ZN5realm6createINS_8NotEqualENS_4nullENS_5MixedEEENS_5QueryET0_RKNS_8Subexpr2IT1_EE",
            "__ZNK5realm15ArrayFixedBytesINS_4UUIDELi16EE12is_valid_ndxEm",
            "__ZN5realm12make_subexprINS_25CollectionColumnAggregateIdNS_20aggregate_operations3SumIdEEEEJRKS5_EEENSt3__110unique_ptrINS_7SubexprENS8_14default_deleteISA_EEEEDpOT0_",
            "__ZN5realm3LstINSt3__18optionalIfEEE6resizeEm",
            "__ZN5realm12make_subexprINS_7ColumnsINS_3SetINS_8ObjectIdEEEEEJRKS5_EEENSt3__110unique_ptrINS_7SubexprENS8_14default_deleteISA_EEEEDpOT0_",
            "__ZN5realm3LstINS_10Decimal128EE4moveEmm",
            "__ZN5realm4List3addINSt3__18optionalINS_8ObjectIdEEEEEvT_",
            "__ZNK5realm5Array11find_vtableINS_5EqualELm2EEEbxmmmPNS_14QueryStateBaseE",
            "__ZN5realm6createINS_7GreaterExNS_10Decimal128EEENS_5QueryET0_RKNS_8Subexpr2IT1_EE",
            "__ZN5realm3LstINS_5MixedEE11insert_nullEm",
            "__ZNK5realm3LstIxE10find_firstERKx",
            "__ZNK5realm3LstINSt3__18optionalIxEEEixEm",
            "__ZN5realm7create2INS_12GreaterEqualENS_10Decimal128EfEENS_5QueryERKNS_8Subexpr2IT0_EERKNS4_IT1_EE",
            "__ZNK5realm4List3getINS_8ObjectIdEEET_m",
            "__ZNK5realm3Obj3getINS_5MixedEEET_NS_6ColKeyE",
            "__ZN5realm4bson10IndexedMapINS0_4BsonEEixERKNSt3__112basic_stringIcNS4_11char_traitsIcEENS4_9allocatorIcEEEE",
            "__ZN5realm4List3addINSt3__18optionalIbEEEEvT_",
            "__ZN5realm3LstINSt3__18optionalIfEEE6insertEmS3_",
            "__ZNK5realm3Obj3getINS_10BinaryDataEEET_NS_6ColKeyE",
            "__ZN5realm12type_punningIfjEET_T0_",
            "__ZN5realm19ThreadSafeReferenceC1INS_6ObjectEEERKT_",
            "__ZN5realm3LstIxE6insertEmx",
            "__ZN5realm4List3setINSt3__18optionalIxEEEEvmT_",
            "__ZN5realm3LstINS_10Decimal128EE8do_clearEv",
            "__ZN5realm3LstINS_6ObjKeyEEC2ERKNS_3ObjENS_6ColKeyE",
            "__ZN5realm3LstIxEC2EOS1_",
            "__ZN5realm12make_subexprINS_25CollectionColumnAggregateIdNS_20aggregate_operations7MinimumIdEEEEJRKS5_EEENSt3__110unique_ptrINS_7SubexprENS8_14default_deleteISA_EEEEDpOT0_",
            "__ZN5realm3LstIdEC2ERKNS_3ObjENS_6ColKeyE",
            "__ZNK5realm4List4findINS_10Decimal128EEEmRKT_",
            "__ZN5realm4util6formatIJNS_10StringDataERKNS_10ColumnTypeEEEENSt3__112basic_stringIcNS6_11char_traitsIcEENS6_9allocatorIcEEEEPKcDpOT_",
            "__ZNSt3__18functionIFNS_10shared_ptrIN5realm4util6LoggerEEENS4_5LevelEEEaSIRFNS_10unique_ptrIS4_NS_14default_deleteIS4_EEEES6_EvEERS8_OT_",
            "__ZN5realm3Obj3setINS_10Decimal128EEERS0_NS_6ColKeyET_b",
            "__ZN5realm3LstIdE6insertEmd",
            "__ZN5realm3LstINSt3__18optionalIdEEE6removeEmm",
            "__ZNKSt3__112__hash_tableINS_17__hash_value_typeINS_12basic_stringIcNS_11char_traitsIcEENS_9allocatorIcEEEEN5realm4bson4BsonEEENS_22__unordered_map_hasherIS7_SB_NS_4hashIS7_EENS_8equal_toIS7_EELb1EEENS_21__unordered_map_equalIS7_SB_SG_SE_Lb1EEENS5_ISB_EEE4findIS7_EENS_21__hash_const_iteratorIPNS_11__hash_nodeISB_PvEEEERKT_",
            "__ZN5realm3LstINS_5MixedEE4moveEmm",
            "__ZN5realm6createINS_4LessENS_5MixedENS_10Decimal128EEENS_5QueryET0_RKNS_8Subexpr2IT1_EE",
            "__ZN5realm12make_subexprINS_7ColumnsINS_3LstIdEEEEJRKS4_EEENSt3__110unique_ptrINS_7SubexprENS7_14default_deleteIS9_EEEEDpOT0_",
            "__ZN5realm4List3addIfEEvT_",
            "__ZNK5realm3LstINSt3__18optionalINS_8ObjectIdEEEE3sumEPm",
            "__ZNK5realm3LstINS_4UUIDEE3getEm",
            "__ZN5realm12make_subexprINS_25CollectionColumnAggregateINS_9TimestampENS_20aggregate_operations7MinimumIS2_EEEEJRKS6_EEENSt3__110unique_ptrINS_7SubexprENS9_14default_deleteISB_EEEEDpOT0_",
            "__ZNK5realm11StringIndex8find_allINS_4UUIDEEEvRNSt3__16vectorINS_6ObjKeyENS3_9allocatorIS5_EEEET_b",
            "__ZNK5realm3LstINS_9TimestampEE8distinctERNSt3__16vectorImNS3_9allocatorImEEEENS3_8optionalIbEE",
            "__ZN5realm12object_store3Set6removeIfEENSt3__14pairImbEERKT_",
            "__ZNK5realm4List4findINSt3__18optionalIdEEEEmRKT_",
            "__ZN5realm3LstINS_4UUIDEE7set_anyEmNS_5MixedE",
            "__ZN5realm6createINS_4LessENS_9TimestampENS_5MixedEEENS_5QueryET0_RKNS_8Subexpr2IT1_EE",
            "__ZNK5realm4List4findINSt3__18optionalINS_8ObjectIdEEEEEmRKT_",
            "__ZN5realm3LstINS_9TimestampEEC1ERKNS_3ObjENS_6ColKeyE",
            "__ZN5realm3LstINSt3__18optionalIxEEE6removeEm",
            "__ZNSt3__112__hash_tableINS_17__hash_value_typeIjU8__strongP13RLMObjectBaseEENS_22__unordered_map_hasherIjS5_NS_4hashIjEENS_8equal_toIjEELb1EEENS_21__unordered_map_equalIjS5_SA_S8_Lb1EEENS_9allocatorIS5_EEE11__do_rehashILb1EEEvm",
            "__ZNK5realm3LstINSt3__18optionalIfEEE8find_anyENS_5MixedE",
            "__ZN5realm12object_store3Set6insertINSt3__18optionalINS_8ObjectIdEEEEENS3_4pairImbEET_",
            "__ZN5realm3LstIfEC1EOS1_",
            "__ZNK5realm3LstINS_9TimestampEE3maxEPm",
            "__ZN5realm6createINS_9LessEqualEddEENS_5QueryET0_RKNS_8Subexpr2IT1_EE",
            "__ZN5realm6createINS_8NotEqualEdNS_5MixedEEENS_5QueryET0_RKNS_8Subexpr2IT1_EE",
            "__ZN5realm3LstINS_4UUIDEE9do_removeEm",
            "__ZN5realm3LstIdE6removeEm",
            "__ZN5realm6createINS_7GreaterENS_4nullExEENS_5QueryET0_RKNS_8Subexpr2IT1_EE",
            "__ZN5realm3LstIdEC2EOS1_",
            "__ZN5realm7create2INS_4LessENS_10Decimal128ENS_5MixedEEENS_5QueryERKNS_8Subexpr2IT0_EERKNS5_IT1_EE",
            "__ZNK5realm5Array11find_vtableINS_8NotEqualELm8EEEbxmmmPNS_14QueryStateBaseE",
            "__ZN5realm3LstINS_9TimestampEEC2ERKNS_3ObjENS_6ColKeyE",
            "__ZN5realm7create2INS_7GreaterENS_5MixedEfEENS_5QueryERKNS_8Subexpr2IT0_EERKNS4_IT1_EE",
            "__ZN5realm3LstINS_4UUIDEE6resizeEm",
            "__ZNK5realm3LstINS_7ObjLinkEE3maxEPm",
            "__ZN5realm3LstINS_7ObjLinkEEC1ERKS2_",
            "__ZN5realm3LstINS_10StringDataEEC2ERKS2_",
            "__ZN5realm7create2INS_12GreaterEqualEdfEENS_5QueryERKNS_8Subexpr2IT0_EERKNS3_IT1_EE",
            "__ZN5realm3Obj3setIdEERS0_NS_6ColKeyET_b",
            "__ZNK5realm3LstINSt3__18optionalIxEEE3maxEPm",
            "__ZNK5realm3LstINS_8ObjectIdEE8distinctERNSt3__16vectorImNS3_9allocatorImEEEENS3_8optionalIbEE",
            "__ZN5realm7Results8index_ofINS_10StringDataEEEmRKT_",
            "__ZNK5realm3LstINS_6ObjKeyEE8get_treeEv",
            "__ZNK5realm3LstINS_5MixedEE16clone_collectionEv",
            "__ZNK5realm3LstINSt3__18optionalINS_4UUIDEEEE16init_from_parentEb",
            "__ZN5realm7Results3getINSt3__18optionalIfEEEET_m",
            "__ZN5realm7create2INS_9LessEqualENS_9TimestampES2_EENS_5QueryERKNS_8Subexpr2IT0_EERKNS4_IT1_EE",
            "__ZN5realm12object_store3Set6insertINS_5MixedEEENSt3__14pairImbEET_",
            "__ZNK5realm3LstIdE16clone_collectionEv",
            "__ZN5realm3LstINS_10StringDataEE14ensure_createdEv",
            "__ZNK5realm3LstINS_6ObjKeyEE10find_firstERKS1_",
            "__ZNK5realm12object_store3Set3getINSt3__18optionalINS_4UUIDEEEEET_m",
            "__ZNK5realm3LstINS_10Decimal128EE7is_nullEm",
            "__ZN5realm19ArrayFixedBytesNullINS_8ObjectIdELi12EE6insertEmRKNSt3__18optionalIS1_EE",
            "__ZN5realm12make_subexprINS_18SubColumnAggregateINS_5MixedENS_20aggregate_operations3SumIS2_EEEEJRKS6_EEENSt3__110unique_ptrINS_7SubexprENS9_14default_deleteISB_EEEEDpOT0_",
            "__ZN5realm12object_store3Set6insertINSt3__18optionalIxEEEENS3_4pairImbEET_",
            "__ZNK5realm4List4findINS_10StringDataEEEmRKT_",
            "__ZNK5realm3LstIdE10find_firstERKd",
            "__ZN21RLMObservationTracker19cascadeNotificationIN5realm5Group19CascadeNotificationEEEvRKT_",
            "__ZN5realm7create2INS_7GreaterENS_10Decimal128ENS_5MixedEEENS_5QueryERKNS_8Subexpr2IT0_EERKNS5_IT1_EE",
            "__ZNK5realm3LstINSt3__18optionalINS_8ObjectIdEEEE4sizeEv",
            "__ZN5realm3LstIfE9do_insertEmf",
            "__ZNK5realm3LstINS_10StringDataEE7get_anyEm",
            "__ZNK5realm11StringIndex8find_allINS_10Decimal128EEEvRNSt3__16vectorINS_6ObjKeyENS3_9allocatorIS5_EEEET_b",
            "__ZN5realm3LstINSt3__18optionalIbEEE6removeEmm",
            "__ZNK5realm3LstINS_10BinaryDataEE8get_treeEv",
            "__ZNK5realm3LstINSt3__18optionalIbEEE3avgEPm",
            "__ZN5realm5Array3setILm1EEEvmx",
            "__ZN5realm3LstIbEC2ERKNS_3ObjENS_6ColKeyE",
            "__ZN5realm12make_subexprINS_7ColumnsINS_3SetIbEEEEJRKS4_EEENSt3__110unique_ptrINS_7SubexprENS7_14default_deleteIS9_EEEEDpOT0_",
            "__ZN5realm4List3addINS_5MixedEEEvT_",
            "__ZN5realm7Results8index_ofINS_4UUIDEEEmRKT_",
            "__ZN5realm7create2INS_12GreaterEqualEffEENS_5QueryERKNS_8Subexpr2IT0_EERKNS3_IT1_EE",
            "__ZNSt3__16__treeINS_12__value_typeINS_12basic_stringIcNS_11char_traitsIcEENS_9allocatorIcEEEES7_EENS_19__map_value_compareIS7_S8_NS_4lessIS7_EELb1EEENS5_IS8_EEE16__construct_nodeIJRKNS_4pairIKS7_S7_EEEEENS_10unique_ptrINS_11__tree_nodeIS8_PvEENS_22__tree_node_destructorINS5_ISO_EEEEEEDpOT_",
            "__ZNK5realm3LstINS_9TimestampEE3endEv",
            "__ZN5realm6createINS_9LessEqualENS_4nullEfEENS_5QueryET0_RKNS_8Subexpr2IT1_EE",
            "__ZN5realm3LstINS_7ObjLinkEEaSEOS2_",
            "__ZN5realm7create2INS_8NotEqualENS_5MixedExEENS_5QueryERKNS_8Subexpr2IT0_EERKNS4_IT1_EE",
            "__ZNSt3__112__hash_tableINS_17__hash_value_typeINS_12basic_stringIcNS_11char_traitsIcEENS_9allocatorIcEEEEN5realm4bson4BsonEEENS_22__unordered_map_hasherIS7_SB_NS_4hashIS7_EENS_8equal_toIS7_EELb1EEENS_21__unordered_map_equalIS7_SB_SG_SE_Lb1EEENS5_ISB_EEE8__rehashILb1EEEvm",
            "__ZN5realm5_impl17TransactLogParser5parseINS0_23NullInstructionObserverEEEvRNS_4util11InputStreamERT_",
            "__ZNK5realm3LstINSt3__18optionalINS_8ObjectIdEEEE7get_anyEm",
            "__ZNK5realm3LstINS_7ObjLinkEE16update_if_neededEv",
            "__ZN5realm3LstINS_9TimestampEE6do_setEmS1_",
            "__ZNSt3__16__treeINS_12__value_typeINS_12basic_stringIcNS_11char_traitsIcEENS_9allocatorIcEEEEU8__strongP10NSMapTableEENS_19__map_value_compareIS7_SB_NS_4lessIS7_EELb1EEENS5_ISB_EEE16__construct_nodeIJRKNS_21piecewise_construct_tENS_5tupleIJRKS7_EEENSM_IJEEEEEENS_10unique_ptrINS_11__tree_nodeISB_PvEENS_22__tree_node_destructorINS5_ISU_EEEEEEDpOT_",
            "__ZN5realm3LstIxE6do_setEmx",
            "__ZNK5realm3LstINS_10BinaryDataEE6do_getEmPKc",
            "__ZN5realm12make_subexprINS_7ColumnsINS_5MixedEEEJRKS3_EEENSt3__110unique_ptrINS_7SubexprENS6_14default_deleteIS8_EEEEDpOT0_",
            "__ZN5realm12make_subexprINS_9LinkCountEJRKS1_EEENSt3__110unique_ptrINS_7SubexprENS4_14default_deleteIS6_EEEEDpOT0_",
            "__ZNK5realm3LstINS_6ObjKeyEE15translate_indexEm",
            "__ZN5realm4util19terminate_with_infoIJRKcRmEEEvPS2_iS5_S5_DpOT_",
            "__ZN5realm6createINS_5EqualENS_5MixedENS_10Decimal128EEENS_5QueryET0_RKNS_8Subexpr2IT1_EE",
            "__ZNK5realm3LstINSt3__18optionalIxEEE3minEPm",
            "__ZNK5realm4List3getINSt3__18optionalIfEEEET_m",
            "__ZNK5realm3LstINSt3__18optionalIxEEE8find_anyENS_5MixedE",
            "__ZNK5realm3LstINS_10BinaryDataEE4sizeEv",
            "__ZNK5realm12object_store3Set4findINS_8ObjectIdEEEmRKT_",
            "__ZNK5realm3LstINSt3__18optionalIxEEE5cloneEv",
            "__ZNK5realm3Obj3getINS_10StringDataEEET_NS_6ColKeyE",
            "__ZNK5realm3LstINS_9TimestampEE16init_from_parentEb",
            "__ZNK5realm3LstIbE3minEPm",
            "__ZN5realm7create2INS_9LessEqualENS_5MixedEdEENS_5QueryERKNS_8Subexpr2IT0_EERKNS4_IT1_EE",
            "__ZN5realm3LstINSt3__18optionalINS_8ObjectIdEEEE4moveEmm",
            "__ZN5realm6createINS_8NotEqualExdEENS_5QueryET0_RKNS_8Subexpr2IT1_EE",
            "__ZNSt3__112__hash_tableINS_17__hash_value_typeIyNS_8functionIFvRKN5realm8SyncUserEEEEEENS_22__unordered_map_hasherIyS9_NS_4hashIyEENS_8equal_toIyEELb1EEENS_21__unordered_map_equalIyS9_SE_SC_Lb1EEENS_9allocatorIS9_EEE11__do_rehashILb1EEEvm",
            "__ZN5realm3LstIdE9do_insertEmd",
            "__ZNK5realm3LstINS_4UUIDEE6do_getEmPKc",
            "__ZNK5realm3LstINS_10StringDataEEixEm",
            "__ZN5realm3Obj3setINS_10BinaryDataEEERS0_NS_6ColKeyET_b",
            "__ZN5realm3LstINS_8ObjectIdEEaSERKS2_",
            "__ZN5realm6createINS_12GreaterEqualEdNS_10Decimal128EEENS_5QueryET0_RKNS_8Subexpr2IT1_EE",
            "__ZN5realm3LstINS_10StringDataEEC2ERKNS_3ObjENS_6ColKeyE",
            "__ZN5realm3LstIdE3addEd",
            "__ZN5realm3LstINSt3__18optionalIbEEE4moveEmm",
            "__ZN5realm12make_subexprINS_7ColumnsINS_3LstIfEEEEJRKS4_EEENSt3__110unique_ptrINS_7SubexprENS7_14default_deleteIS9_EEEEDpOT0_",
            "__ZN5realm3LstINS_10Decimal128EEC2ERKS2_",
            "__ZNK5realm4List4findINS_9TimestampEEEmRKT_",
            "__ZN5realm12make_subexprINS_7ColumnsINS_10StringDataEEEJRKS3_EEENSt3__110unique_ptrINS_7SubexprENS6_14default_deleteIS8_EEEEDpOT0_",
            "__ZNK5realm3LstIbE16clone_collectionEv",
            "__ZN5realm3LstIbEaSERKS1_",
            "__ZN5realm6createINS_9LessEqualEfdEENS_5QueryET0_RKNS_8Subexpr2IT1_EE",
            "__ZN5realm3LstINS_10Decimal128EE14ensure_createdEv",
            "__ZNK5realm3LstINS_10Decimal128EE7get_anyEm",
            "__ZN5realm3Obj3setIbEERS0_NS_6ColKeyET_b",
            "__ZN5realm7Results8index_ofINS_10Decimal128EEEmRKT_",
            "__ZN5realm4List3addINS_10Decimal128EEEvT_",
            "__ZN5realm3LstINS_6ObjKeyEE7set_anyEmNS_5MixedE",
            "__ZN5realm15ArrayFixedBytesINS_4UUIDELi16EE6insertEmRKS1_",
            "__ZN5realm3LstINSt3__18optionalINS_8ObjectIdEEEEC2ERKNS_3ObjENS_6ColKeyE",
            "__ZN5realm12make_subexprINS_18SubColumnAggregateINS_10Decimal128ENS_20aggregate_operations7MaximumIS2_EEEEJRKS6_EEENSt3__110unique_ptrINS_7SubexprENS9_14default_deleteISB_EEEEDpOT0_",
            "__ZNK5realm3LstINS_7ObjLinkEE3sumEPm",
            "__ZN5realm5Array3setILm8EEEvmx",
            "__ZN5realm19ThreadSafeReferenceC2INS_4ListEEERKT_",
            "__ZN5realm3LstINS_4UUIDEE8do_clearEv",
            "__ZN5realm6createINS_8NotEqualENS_4nullEbEENS_5QueryET0_RKNS_8Subexpr2IT1_EE",
            "__ZN5realm3LstINS_6ObjKeyEE6resizeEm",
            "__ZN5realm7Results4lastINSt3__18optionalIxEEEENS3_IT_EEv",
            "__ZNK5realm3Obj3getINS_4UUIDEEET_NS_6ColKeyE",
            "__ZNSt3__112__hash_tableINS_17__hash_value_typeIyNS_8functionIFvRKN5realm8SyncUserEEEEEENS_22__unordered_map_hasherIyS9_NS_4hashIyEENS_8equal_toIyEELb1EEENS_21__unordered_map_equalIyS9_SE_SC_Lb1EEENS_9allocatorIS9_EEE21__construct_node_hashINS_4pairIKyS8_EEJEEENS_10unique_ptrINS_11__hash_nodeIS9_PvEENS_22__hash_node_destructorINSI_ISS_EEEEEEmOT_DpOT0_",
            "__ZN5realm12make_subexprINS_18SubColumnAggregateIxNS_20aggregate_operations7AverageIxEEEEJRKS5_EEENSt3__110unique_ptrINS_7SubexprENS8_14default_deleteISA_EEEEDpOT0_",
            "__ZN5realm6createINS_12GreaterEqualENS_4nullENS_9TimestampEEENS_5QueryET0_RKNS_8Subexpr2IT1_EE",
            "__ZN5realm12make_subexprINS_18SubColumnAggregateIxNS_20aggregate_operations3SumIxEEEEJRKS5_EEENSt3__110unique_ptrINS_7SubexprENS8_14default_deleteISA_EEEEDpOT0_",
            "__ZNK5realm4bson10IndexedMapINS0_4BsonEE5beginEv",
            "__ZN5realm3LstINS_10Decimal128EE3addES1_",
            "__ZN5realm12object_store10Dictionary6insertIfEEvNS_10StringDataET_",
            "__ZN5realm3Obj3setIfEERS0_NS_6ColKeyET_b",
            "__ZNK5realm3LstINS_4UUIDEE6updateEv",
            "__ZN5realm12object_store10Dictionary6insertINS_5MixedEEEvNS_10StringDataET_",
            "__ZN5realm7compareINS_5EqualEEENS_5QueryERKNS_8Subexpr2INS_4LinkEEENS_4nullE",
            "__ZNK5realm3LstINS_8ObjectIdEE5beginEv",
            "__ZN5realm3LstINS_10BinaryDataEE6removeEm",
            "__ZN5realm3LstINS_8ObjectIdEEC1ERKNS_3ObjENS_6ColKeyE",
            "__ZN5realm3LstINSt3__18optionalIdEEE10insert_anyEmNS_5MixedE",
            "__ZNK5realm3LstIxE4sizeEv",
            "__ZNK5realm3LstINSt3__18optionalINS_8ObjectIdEEEE16clone_collectionEv",
            "__ZN5realm3LstINS_4UUIDEE8set_nullEm",
            "__ZN5realm3LstIbE9do_insertEmb",
            "__ZN5realm3LstIdE8set_nullEm",
            "__ZNK5realm3LstINSt3__18optionalIdEEE5cloneEv",
            "__ZN5realm7create2INS_8NotEqualENS_10Decimal128ExEENS_5QueryERKNS_8Subexpr2IT0_EERKNS4_IT1_EE",
            "__ZN5realm12object_store3Set6removeINS_5MixedEEENSt3__14pairImbEERKT_",
            "__ZN5realm10BasicArrayIfE8truncateEm",
            "__ZN5realm6createINS_12GreaterEqualExdEENS_5QueryET0_RKNS_8Subexpr2IT1_EE",
            "__ZN5realm6createINS_5EqualENS_8ObjectIdES2_EENS_5QueryET0_RKNS_8Subexpr2IT1_EE",
            "__ZN5realm6createINS_8NotEqualEbbEENS_5QueryET0_RKNS_8Subexpr2IT1_EE",
            "__ZNK5realm3LstINS_4UUIDEE16clone_collectionEv",
            "__ZN5realm7Results3getIdEET_m",
            "__ZN5realm3LstINSt3__18optionalIxEEE4moveEmm",
            "__ZN5realm7create2INS_8NotEqualENS_5MixedENS_4UUIDEEENS_5QueryERKNS_8Subexpr2IT0_EERKNS5_IT1_EE",
            "__ZN5realm6createINS_7GreaterENS_9TimestampES2_EENS_5QueryET0_RKNS_8Subexpr2IT1_EE",
            "__ZN5realm12make_subexprINS_7ColumnsIdEEJRKS2_EEENSt3__110unique_ptrINS_7SubexprENS5_14default_deleteIS7_EEEEDpOT0_",
            "__ZNK5realm3LstINS_4UUIDEE4sizeEv",
            "__ZNK5realm11StringIndex8find_allIdEEvRNSt3__16vectorINS_6ObjKeyENS2_9allocatorIS4_EEEET_b",
            "__ZNK5realm3LstIbE7is_nullEm",
            "__ZN5realm6createINS_7GreaterEfdEENS_5QueryET0_RKNS_8Subexpr2IT1_EE",
            "__ZN5realm15make_expressionINS_7CompareINS_8NotEqualEEEJNSt3__110unique_ptrINS_7SubexprENS4_14default_deleteIS6_EEEES9_EEENS5_INS_10ExpressionENS7_ISA_EEEEDpOT0_",
            "__ZNK5realm19ArrayFixedBytesNullINS_8ObjectIdELi12EE15find_first_nullEmm",
            "__ZN5realm3LstINSt3__18optionalIbEEEC1ERKNS_3ObjENS_6ColKeyE",
            "__ZN5realm7Results5firstINS_10StringDataEEENSt3__18optionalIT_EEv",
            "__ZN5realm12object_store10Dictionary6insertIdEEvNS_10StringDataET_",
            "__ZNK5realm3LstIbE5beginEv",
            "__ZN5realm6createINS_4LessENS_10Decimal128ES2_EENS_5QueryET0_RKNS_8Subexpr2IT1_EE",
            "__ZNK5realm3LstINS_6ObjKeyEE6do_getEmPKc",
            "__ZN5realm3LstINS_10BinaryDataEE3addES1_",
            "__ZN5realm3LstINSt3__18optionalIfEEE9do_removeEm",
            "__ZNSt3__16__treeINS_12__value_typeINS_12basic_stringIcNS_11char_traitsIcEENS_9allocatorIcEEEEN8nlohmann10basic_jsonINS_3mapENS_6vectorES7_bxydS5_NS8_14adl_serializerEEEEENS_19__map_value_compareIS7_SE_NS_4lessIvEELb1EEENS5_ISE_EEE16__construct_nodeIJRKNS_21piecewise_construct_tENS_5tupleIJRKS7_EEENSP_IJEEEEEENS_10unique_ptrINS_11__tree_nodeISE_PvEENS_22__tree_node_destructorINS5_ISX_EEEEEEDpOT_",
            "__ZN5realm3LstIfE6removeERKNS_18CollectionIteratorIS1_EE",
            "__ZNSt3__112__hash_tableINS_17__hash_value_typeIyNS_8functionIFvRKN5realm8SyncUserEEEEEENS_22__unordered_map_hasherIyS9_NS_4hashIyEENS_8equal_toIyEELb1EEENS_21__unordered_map_equalIyS9_SE_SC_Lb1EEENS_9allocatorIS9_EEE8__rehashILb1EEEvm",
            "__ZN5realm3LstINS_8ObjectIdEEC1ERKS2_",
            "__ZN5realm3LstINS_4UUIDEE14ensure_createdEv",
            "__ZNK5realm3LstINSt3__18optionalIxEEE16init_from_parentEb",
            "__ZN5realm4List6insertINSt3__18optionalIbEEEEvmT_",
            "__ZN5realm3LstIfE5clearEv",
            "__ZNSt3__16__treeINS_12__value_typeINS_12basic_stringIcNS_11char_traitsIcEENS_9allocatorIcEEEEN8nlohmann10basic_jsonINS_3mapENS_6vectorES7_bxydS5_NS8_14adl_serializerEEEEENS_19__map_value_compareIS7_SE_NS_4lessIvEELb1EEENS5_ISE_EEE30__emplace_hint_unique_key_argsIS7_JRKNS_4pairIKS7_SD_EEEEENSM_INS_15__tree_iteratorISE_PNS_11__tree_nodeISE_PvEElEEbEENS_21__tree_const_iteratorISE_SV_lEERKT_DpOT0_",
            "__ZNK5realm3LstINSt3__18optionalIdEEE3minEPm",
            "__ZNK5realm3LstIdE16update_if_neededEv",
            "__ZN5realm3LstINS_10StringDataEE8do_clearEv",
            "__ZNK5realm3LstINS_10Decimal128EE10find_firstERKS1_",
            "__ZNK5realm3LstINS_4UUIDEE8find_anyENS_5MixedE",
            "__ZN5realm7create2INS_5EqualEdxEENS_5QueryERKNS_8Subexpr2IT0_EERKNS3_IT1_EE",
            "__ZN5realm7create2INS_9LessEqualENS_10Decimal128ES2_EENS_5QueryERKNS_8Subexpr2IT0_EERKNS4_IT1_EE",
            "__ZN5realm3LstINS_5MixedEE8set_nullEm",
            "__ZNK5realm12object_store3Set3getINSt3__18optionalINS_8ObjectIdEEEEET_m",
            "__ZN5realm6createINS_4LessEixEENS_5QueryET0_RKNS_8Subexpr2IT1_EE",
            "__ZN5realm19ThreadSafeReferenceC1INS_12object_store3SetEEERKT_",
            "__ZNK5realm3LstINSt3__18optionalIxEEE6do_getEmPKc",
            "__ZN5realm3LstINSt3__18optionalIdEEE9do_removeEm",
            "__ZNK5realm3LstINS_6ObjKeyEE16update_if_neededEv",
            "__ZN5realm3LstINS_10StringDataEE10insert_anyEmNS_5MixedE",
            "__ZNK5realm3LstINS_5MixedEE5beginEv",
            "__ZN5realm3LstINS_10BinaryDataEE6do_setEmS1_",
            "__ZN5realm3LstINS_7ObjLinkEE3setEmS1_",
            "__ZNK5realm3LstINS_8ObjectIdEE3sumEPm",
            "__ZN5realm3LstINSt3__18optionalIbEEE18unresolved_to_nullENS_5MixedE",
            "__ZNK5realm3LstINSt3__18optionalIbEEE6updateEv",
            "__ZN5realm4List3setINSt3__18optionalINS_4UUIDEEEEEvmT_",
            "__ZNK5realm12object_store3Set3getIxEET_m",
            "__ZNK5realm3LstINSt3__18optionalIdEEE5beginEv",
            "__ZN5realm12make_subexprINS_7ColumnsINS_3SetINS_9TimestampEEEEEJRKS5_EEENSt3__110unique_ptrINS_7SubexprENS8_14default_deleteISA_EEEEDpOT0_",
            "__ZN5realm3LstINS_10Decimal128EEC1ERKS2_",
            "__ZN5realm12type_punningIdyEET_T0_",
            "__ZNK5realm3Obj3getINSt3__18optionalIbEEEET_NS_6ColKeyE",
            "__ZNK5realm11StringIndex8find_allINS_4nullEEEvRNSt3__16vectorINS_6ObjKeyENS3_9allocatorIS5_EEEET_b",
            "__ZN5realm7Results5firstIfEENSt3__18optionalIT_EEv",
            "__ZNK5realm3LstINSt3__18optionalIxEEE7is_nullEm",
            "__ZN5realm3LstINS_10Decimal128EE10insert_anyEmNS_5MixedE",
            "__ZNSt3__112__hash_tableINS_17__hash_value_typeIyNS_8functionIFvRKN5realm3app3AppEEEEEENS_22__unordered_map_hasherIySA_NS_4hashIyEENS_8equal_toIyEELb1EEENS_21__unordered_map_equalIySA_SF_SD_Lb1EEENS_9allocatorISA_EEE25__emplace_unique_key_argsIyJNS_4pairIKyS9_EEEEENSN_INS_15__hash_iteratorIPNS_11__hash_nodeISA_PvEEEEbEERKT_DpOT0_",
            "__ZN5realm7Results5firstINSt3__18optionalINS_8ObjectIdEEEEENS3_IT_EEv",
            "__ZNK5realm3LstINS_10StringDataEE4sizeEv",
            "__ZN5realm3LstIxE4moveEmm",
            "__ZNK5realm3LstINS_10BinaryDataEE3minEPm",
            "__ZN5realm3LstINSt3__18optionalINS_4UUIDEEEE6removeEmm",
            "__ZN5realm7Results3getINS_8ObjectIdEEET_m",
            "__ZNK5realm19ArrayFixedBytesNullINS_8ObjectIdELi12EE3getEm",
            "__ZN5realm7create2INS_9LessEqualENS_10Decimal128ExEENS_5QueryERKNS_8Subexpr2IT0_EERKNS4_IT1_EE",
            "__ZNK5realm3LstINS_10StringDataEE6do_getEmPKc",
            "__ZN5realm3LstINSt3__18optionalIbEEE7set_anyEmNS_5MixedE",
            "__ZN5realm3LstINS_7ObjLinkEE6insertEmS1_",
            "__ZN5realm4List3setINS_10BinaryDataEEEvmT_",
            "__ZN5realm4List3setINS_10StringDataEEEvmT_",
            "__ZN5realm3LstIxEC2ERKS1_",
            "__ZN5realm4List3setINS_9TimestampEEEvmT_",
            "__ZN5realm3LstINS_4UUIDEE6removeEmm",
            "__ZN5realm19ArrayFixedBytesNullINS_8ObjectIdELi12EE13default_valueEb",
            "__ZN5realm3LstINS_8ObjectIdEE6removeERKNS_18CollectionIteratorIS2_EE",
            "__ZN5realm3LstINSt3__18optionalIfEEE4moveEmm",
            "__ZN5realm3LstINS_10BinaryDataEEC2ERKNS_3ObjENS_6ColKeyE",
            "__ZN5realm19ArrayFixedBytesNullINS_4UUIDELi16EE13default_valueEb",
            "__ZNK5realm3LstIxE3getEm",
            "__ZNK5realm3LstINSt3__18optionalINS_4UUIDEEEE15translate_indexEm",
            "__ZN5realm6createINS_12GreaterEqualExNS_10Decimal128EEENS_5QueryET0_RKNS_8Subexpr2IT1_EE",
            "__ZN5realm6createINS_8NotEqualENS_9TimestampES2_EENS_5QueryET0_RKNS_8Subexpr2IT1_EE",
            "__ZNSt3__16__treeINS_12__value_typeINS_12basic_stringIcNS_11char_traitsIcEENS_9allocatorIcEEEES7_EENS_19__map_value_compareIS7_S8_NS_4lessIS7_EELb1EEENS5_IS8_EEE16__construct_nodeIJPKcSH_EEENS_10unique_ptrINS_11__tree_nodeIS8_PvEENS_22__tree_node_destructorINS5_ISL_EEEEEEDpOT_",
            "__ZN5realm4List3addIxEEvT_",
            "__ZN5realm7Results4lastINS_8ObjectIdEEENSt3__18optionalIT_EEv",
            "__ZN5realm3LstINSt3__18optionalIxEEE6removeERKNS_18CollectionIteratorIS4_EE",
            "__ZNK5realm3LstINS_10BinaryDataEE4sortERNSt3__16vectorImNS3_9allocatorImEEEEb",
            "__ZN5realm6createINS_8NotEqualExxEENS_5QueryET0_RKNS_8Subexpr2IT1_EE",
            "__ZN5realm3LstIxE14ensure_createdEv",
            "__ZNK5realm5Array11find_vtableINS_7GreaterELm16EEEbxmmmPNS_14QueryStateBaseE",
            "__ZN5realm7create2INS_8NotEqualEdfEENS_5QueryERKNS_8Subexpr2IT0_EERKNS3_IT1_EE",
            "__ZNK5realm3LstINS_7ObjLinkEE16init_from_parentEb",
            "__ZN5realm7Results3getIfEET_m",
            "__ZN5realm3LstINSt3__18optionalINS_4UUIDEEEE7set_anyEmNS_5MixedE",
            "__ZN5realm3LstINS_9TimestampEE4moveEmm",
            "__ZNK5realm3LstINS_8ObjectIdEE6do_getEmPKc",
            "__ZNK5realm15ArrayFixedBytesINS_8ObjectIdELi12EE7is_nullEm",
            "__ZN5realm3Obj3setINS_8ObjectIdEEERS0_NS_6ColKeyET_b",
            "__ZN5realm7create2INS_7GreaterENS_5MixedExEENS_5QueryERKNS_8Subexpr2IT0_EERKNS4_IT1_EE",
            "__ZN5realm3LstIfEC2EOS1_",
            "__ZN5realm19ArrayFixedBytesNullINS_4UUIDELi16EE3addERKNSt3__18optionalIS1_EE",
            "__ZN5realm12make_subexprINS_18ConstantMixedValueEJRNS_10Decimal128EEEENSt3__110unique_ptrINS_7SubexprENS4_14default_deleteIS6_EEEEDpOT0_",
            "__ZN5realm3LstIxE3addEx",
            "__ZN5realm7Results4lastIxEENSt3__18optionalIT_EEv",
            "__ZN5realm3LstINS_6ObjKeyEE4swapEmm",
            "__ZNK5realm3LstINSt3__18optionalINS_4UUIDEEEE5cloneEv",
            "__ZN5realm3LstINSt3__18optionalINS_4UUIDEEEE4swapEmm",
            "__ZN5realm6createINS_5EqualExNS_5MixedEEENS_5QueryET0_RKNS_8Subexpr2IT1_EE",
            "__ZN5realm3LstINS_8ObjectIdEE7set_anyEmNS_5MixedE",
            "__ZN5realm3LstINS_4UUIDEE6do_setEmS1_",
            "__ZN5realm7Results3getINS_10Decimal128EEET_m",
            "__ZN5realm3LstINS_10BinaryDataEE6insertEmS1_",
            "__ZN5realm12object_store10Dictionary6insertINSt3__18optionalIxEEEEvNS_10StringDataET_",
            "__ZN5realm6createINS_12GreaterEqualENS_4nullExEENS_5QueryET0_RKNS_8Subexpr2IT1_EE",
            "__ZN5realm3LstIbE8set_nullEm",
            "__ZN5realm6createINS_7GreaterENS_4nullENS_10Decimal128EEENS_5QueryET0_RKNS_8Subexpr2IT1_EE",
            "__ZN5realm7create2INS_5EqualEdfEENS_5QueryERKNS_8Subexpr2IT0_EERKNS3_IT1_EE",
            "__ZNK5realm3LstIxEixEm",
            "__ZN5realm7create2INS_4LessENS_5MixedEdEENS_5QueryERKNS_8Subexpr2IT0_EERKNS4_IT1_EE",
            "__ZN5realm6createINS_8NotEqualENS_10Decimal128ES2_EENS_5QueryET0_RKNS_8Subexpr2IT1_EE",
            "__ZN5realm6createINS_9LessEqualExdEENS_5QueryET0_RKNS_8Subexpr2IT1_EE",
            "__ZN5realm3LstINS_5MixedEEC2ERKNS_3ObjENS_6ColKeyE",
            "__ZNK5realm3LstINSt3__18optionalINS_4UUIDEEEE6updateEv",
            "__ZN5realm3LstINSt3__18optionalIxEEE8set_nullEm",
            "__ZN5realm3LstIfE8set_nullEm",
            "__ZNK5realm12object_store3Set4findINS_4UUIDEEEmRKT_",
            "__ZN5realm3LstINS_8ObjectIdEE3addES1_",
            "__ZNK5realm3LstIbE8find_anyENS_5MixedE",
            "__ZN5realm12object_store10Dictionary6insertIxEEvNS_10StringDataET_",
            "__ZNK5realm3LstINSt3__18optionalIbEEE8find_anyENS_5MixedE",
            "__ZN5realm19ThreadSafeReferenceC2INS_12object_store10DictionaryEEERKT_",
            "__ZN5realm7Results5firstIxEENSt3__18optionalIT_EEv",
            "__ZNK5realm3LstINSt3__18optionalIbEEE3sumEPm",
            "__ZN5realm3LstINSt3__18optionalIxEEE6resizeEm",
            "__ZNK5realm3LstINS_8ObjectIdEE3avgEPm",
            "__ZNK5realm3LstINSt3__18optionalIbEEE10find_firstERKS3_",
            "__ZNK5realm3LstINS_8ObjectIdEEixEm",
            "__ZN5realm7create2INS_12GreaterEqualENS_5MixedES2_EENS_5QueryERKNS_8Subexpr2IT0_EERKNS4_IT1_EE",
            "__ZNK5realm3LstINS_8ObjectIdEE4sortERNSt3__16vectorImNS3_9allocatorImEEEEb",
            "__ZN5realm3LstIbE18unresolved_to_nullENS_5MixedE",
            "__ZN5realm7create2INS_9LessEqualENS_5MixedENS_10Decimal128EEENS_5QueryERKNS_8Subexpr2IT0_EERKNS5_IT1_EE",
            "__ZN5realm3LstINS_10StringDataEE6removeERKNS_18CollectionIteratorIS2_EE",
            "__ZN5realm3LstINSt3__18optionalIbEEEaSERKS4_",
            "__ZN5realm5Array3setILm4EEEvmx",
            "__ZN5realm15ArrayFixedBytesINS_8ObjectIdELi12EE10set_parentEPNS_11ArrayParentEm",
            "__ZN5realm7Results4lastINS_9TimestampEEENSt3__18optionalIT_EEv",
            "__ZN5realm12object_store3Set6removeIxEENSt3__14pairImbEERKT_",
            "__ZN5realm7create2INS_12GreaterEqualENS_5MixedENS_10Decimal128EEENS_5QueryERKNS_8Subexpr2IT0_EERKNS5_IT1_EE",
            "__ZN5realm3LstINS_10Decimal128EE11insert_nullEm",
            "__ZN5realm7create2INS_9LessEqualEddEENS_5QueryERKNS_8Subexpr2IT0_EERKNS3_IT1_EE",
            "__ZN5realm15ArrayFixedBytesINS_8ObjectIdELi12EE13default_valueEb",
            "__ZN5realm6createINS_4LessExNS_5MixedEEENS_5QueryET0_RKNS_8Subexpr2IT1_EE",
            "__ZN5realm3LstINSt3__18optionalIxEEE4swapEmm",
            "__ZN5realm3LstINSt3__18optionalINS_8ObjectIdEEEE18unresolved_to_nullENS_5MixedE",
            "__ZNK5realm3LstINSt3__18optionalIxEEE3sumEPm",
            "__ZN5realm6createINS_8NotEqualENS_4nullENS_8ObjectIdEEENS_5QueryET0_RKNS_8Subexpr2IT1_EE",
            "__ZNK5realm3LstINS_5MixedEE8distinctERNSt3__16vectorImNS3_9allocatorImEEEENS3_8optionalIbEE",
            "__ZNK5realm3LstIfE5beginEv",
            "__ZN5realm12make_subexprINS_5ValueIxEEJRKS2_EEENSt3__110unique_ptrINS_7SubexprENS5_14default_deleteIS7_EEEEDpOT0_",
            "__ZN5realm12make_subexprINS_10SubColumnsINS_10Decimal128EEEJRKS3_EEENSt3__110unique_ptrINS_7SubexprENS6_14default_deleteIS8_EEEEDpOT0_",
            "__ZN5realm3LstINS_10BinaryDataEE4swapEmm",
            "__ZN5realm6createINS_9LessEqualExNS_5MixedEEENS_5QueryET0_RKNS_8Subexpr2IT1_EE",
            "__ZN5realm7create2INS_8NotEqualENS_5MixedEfEENS_5QueryERKNS_8Subexpr2IT0_EERKNS4_IT1_EE",
            "__ZN5realm7create2INS_7GreaterENS_10Decimal128ES2_EENS_5QueryERKNS_8Subexpr2IT0_EERKNS4_IT1_EE",
            "__ZN5realm5Array3setILm2EEEvmx",
            "__ZN5realm6createINS_5EqualEdNS_10Decimal128EEENS_5QueryET0_RKNS_8Subexpr2IT1_EE",
            "__ZNK5realm3LstINS_8ObjectIdEE10find_firstERKS1_",
            "__ZNK5realm3LstINSt3__18optionalIdEEE8get_treeEv",
            "__ZN5realm19ArrayFixedBytesNullINS_8ObjectIdELi12EEC1ERNS_9AllocatorE",
            "__ZN5realm3LstINS_10StringDataEEC1ERKS2_",
            "__ZN5realm4util9terminateIJiiEEEvPKcS3_lDpT_",
            "__ZN5realm3LstINSt3__18optionalIbEEE14ensure_createdEv",
            "__ZNK5realm5Table9aggregateINS_9TimestampEEEvRNS_14QueryStateBaseENS_6ColKeyE",
            "__ZNK5realm15ArrayFixedBytesINS_4UUIDELi16EE3Pos9set_valueEPS2_RKS1_",
            "__ZN5realm7create2INS_5EqualENS_5MixedEfEENS_5QueryERKNS_8Subexpr2IT0_EERKNS4_IT1_EE",
            "__ZN5realm3LstINS_10BinaryDataEE6removeEmm",
            "__ZN5realm6createINS_7GreaterEffEENS_5QueryET0_RKNS_8Subexpr2IT1_EE",
            "__ZN5realm7create2INS_4LessENS_10Decimal128EfEENS_5QueryERKNS_8Subexpr2IT0_EERKNS4_IT1_EE",
            "__ZN5realm6createINS_12GreaterEqualExNS_5MixedEEENS_5QueryET0_RKNS_8Subexpr2IT1_EE",
            "__ZN5realm7create2INS_9LessEqualENS_5MixedENS_9TimestampEEENS_5QueryERKNS_8Subexpr2IT0_EERKNS5_IT1_EE",
            "__ZN5realm3LstINSt3__18optionalINS_4UUIDEEEEC2ERKS5_",
            "__ZN5realm3LstINS_4UUIDEEC1ERKS2_",
            "__ZNK5realm3LstINS_8ObjectIdEE8find_anyENS_5MixedE",
            "__ZNK5realm3LstINSt3__18optionalINS_8ObjectIdEEEE3getEm",
            "__ZN5realm12make_subexprINS_18SubColumnAggregateINS_5MixedENS_20aggregate_operations7MinimumIS2_EEEEJRKS6_EEENSt3__110unique_ptrINS_7SubexprENS9_14default_deleteISB_EEEEDpOT0_",
            "__ZN5realm3LstINSt3__18optionalIbEEE10insert_anyEmNS_5MixedE",
            "__ZN5realm7Results5firstINS_9TimestampEEENSt3__18optionalIT_EEv",
            "__ZNSt3__112__hash_tableINS_17__hash_value_typeINS_12basic_stringIcNS_11char_traitsIcEENS_9allocatorIcEEEEN5realm4bson4BsonEEENS_22__unordered_map_hasherIS7_SB_NS_4hashIS7_EENS_8equal_toIS7_EELb1EEENS_21__unordered_map_equalIS7_SB_SG_SE_Lb1EEENS5_ISB_EEE11__do_rehashILb1EEEvm",
            "__ZNK5realm12object_store3Set4findIbEEmRKT_",
            "__ZNK5realm5Array9get_chunkILm8EEEvmPx",
            "__ZN5realm3LstINSt3__18optionalINS_4UUIDEEEE6removeERKNS_18CollectionIteratorIS5_EE",
            "__ZNK5realm3LstINS_7ObjLinkEE4sortERNSt3__16vectorImNS3_9allocatorImEEEEb",
            "__ZNK5realm3LstINSt3__18optionalIxEEE6updateEv",
            "__ZN5realm15ArrayFixedBytesINS_8ObjectIdELi12EE19calc_required_bytesEm",
            "__ZNK5realm3LstINSt3__18optionalINS_4UUIDEEEE3maxEPm",
            "__ZN5realm6createINS_9LessEqualENS_4nullExEENS_5QueryET0_RKNS_8Subexpr2IT1_EE",
            "__ZNK5realm3Obj3getINS_9TimestampEEET_NS_6ColKeyE",
            "__ZN5realm7compareINS_5EqualEEENS_5QueryERKNS_8Subexpr2INS_4LinkEEERKNS_3ObjE",
            "__ZNK5realm3LstINS_10Decimal128EE4sortERNSt3__16vectorImNS3_9allocatorImEEEEb",
            "__ZNK5realm3LstINS_10BinaryDataEE7is_nullEm",
            "__ZNK5realm3LstINSt3__18optionalINS_8ObjectIdEEEE3maxEPm",
            "__ZNK5realm15ArrayFixedBytesINS_4UUIDELi16EE3getEm",
            "__ZN5realm3LstINSt3__18optionalINS_8ObjectIdEEEEC2ERKS5_",
            "__ZNK5realm3LstINSt3__18optionalIxEEE4sortERNS1_6vectorImNS1_9allocatorImEEEEb",
            "__ZNK5realm3LstIdE8find_anyENS_5MixedE",
            "__ZN5realm15ArrayFixedBytesINS_4UUIDELi16EE3addERKS1_",
            "__ZNK5realm5Table9aggregateINS_10Decimal128EEEvRNS_14QueryStateBaseENS_6ColKeyE",
            "__ZN5realm12object_store10Dictionary6insertINS_10StringDataEEEvS3_T_",
            "__ZN5realm10safe_equalIPKcS2_EEbT_S3_T0_",
            "__ZNK5realm3LstINS_5MixedEE5cloneEv",
            "__ZNK5realm15ArrayFixedBytesINS_8ObjectIdELi12EE12is_valid_ndxEm",
            "__ZN5realm3LstIfEC2ERKNS_3ObjENS_6ColKeyE",
            "__ZN5realm3LstINSt3__18optionalINS_4UUIDEEEE3setEmS4_",
            "__ZN5realm6createINS_7GreaterENS_10Decimal128ES2_EENS_5QueryET0_RKNS_8Subexpr2IT1_EE",
            "__ZN5realm15ArrayFixedBytesINS_4UUIDELi16EE7get_posEm",
            "__ZNK5realm19ThreadSafeReference2isINS_12object_store3SetEEEbv",
            "__ZNK5realm19ThreadSafeReference2isINS_6ObjectEEEbv",
            "__ZNK5realm3LstINSt3__18optionalINS_4UUIDEEEE8find_anyENS_5MixedE",
            "__ZNK5realm3LstIxE16update_if_neededEv",
            "__ZNK5realm3LstINS_10BinaryDataEE10find_firstERKS1_",
            "__ZN5realm3LstIbEC2EOS1_",
            "__ZNK5realm3LstINS_10Decimal128EE8distinctERNSt3__16vectorImNS3_9allocatorImEEEENS3_8optionalIbEE",
            "__ZNK5realm3LstIbE3getEm",
            "__ZN5realm3LstINS_5MixedEEaSEOS2_",
            "__ZN5realm12make_subexprINS_18SubColumnAggregateINS_5MixedENS_20aggregate_operations7AverageIS2_EEEEJRKS6_EEENSt3__110unique_ptrINS_7SubexprENS9_14default_deleteISB_EEEEDpOT0_",
            "__ZN5realm3LstINS_10Decimal128EE6removeERKNS_18CollectionIteratorIS2_EE",
            "__ZN5realm6createINS_5EqualENS_4nullEfEENS_5QueryET0_RKNS_8Subexpr2IT1_EE",
            "__ZN5realm3LstIdE9do_removeEm",
            "__ZNK5realm3LstINSt3__18optionalINS_8ObjectIdEEEE3endEv",
            "__ZNK5realm3LstIxE7is_nullEm",
            "__ZN5realm6createINS_12GreaterEqualENS_9TimestampES2_EENS_5QueryET0_RKNS_8Subexpr2IT1_EE",
            "__ZN5realm7Results5firstINS_8ObjectIdEEENSt3__18optionalIT_EEv",
            "__ZNK5realm3LstIfE16clone_collectionEv",
            "__ZNK5realm3LstINSt3__18optionalIbEEE16init_from_parentEb",
            "__ZN5realm4List6insertINSt3__18optionalINS_4UUIDEEEEEvmT_",
            "__ZN5realm19ThreadSafeReferenceC1INS_7ResultsEEERKT_",
            "__ZN5realm3LstIxE7set_anyEmNS_5MixedE",
            "__ZN5realm3LstINSt3__18optionalIxEEEaSERKS4_",
            "__ZN5realm7create2INS_9LessEqualExxEENS_5QueryERKNS_8Subexpr2IT0_EERKNS3_IT1_EE",
            "__ZN5realm4util19terminate_with_infoIJRiEEEvPKciS4_S4_DpOT_",
            "__ZN5realm3LstINS_10StringDataEE6resizeEm",
            "__ZNK5realm3LstINS_9TimestampEE4sizeEv",
            "__ZN5realm3LstIdE10insert_anyEmNS_5MixedE",
            "__ZN5realm3LstINSt3__18optionalIbEEE9do_insertEmS3_",
            "__ZN5realm7Results5firstINSt3__18optionalIdEEEENS3_IT_EEv",
            "__ZN5realm19ThreadSafeReference7resolveINS_6ObjectEEET_RKNSt3__110shared_ptrINS_5RealmEEE",
            "__ZN5realm3LstIdE3setEmd",
            "__ZN5realm6createINS_4LessENS_4nullEdEENS_5QueryET0_RKNS_8Subexpr2IT1_EE",
            "__ZN5realm7Results4lastINS_10StringDataEEENSt3__18optionalIT_EEv",
            "__ZNK5realm3LstINSt3__18optionalINS_8ObjectIdEEEE5beginEv",
            "__ZNK5realm3LstIbE16update_if_neededEv",
            "__ZN5realm6createINS_8NotEqualEfNS_5MixedEEENS_5QueryET0_RKNS_8Subexpr2IT1_EE",
            "__ZN5realm7Results4lastINSt3__18optionalIbEEEENS3_IT_EEv",
            "__ZN5realm7create2INS_4LessENS_10Decimal128ES2_EENS_5QueryERKNS_8Subexpr2IT0_EERKNS4_IT1_EE",
            "__ZN5realm3LstINS_10BinaryDataEE6removeERKNS_18CollectionIteratorIS2_EE",
            "__ZNK5realm3LstIxE8distinctERNSt3__16vectorImNS2_9allocatorImEEEENS2_8optionalIbEE",
            "__ZN5realm3LstINSt3__18optionalIbEEE6removeEm",
            "__ZN5realm4List3setINS_10Decimal128EEEvmT_",
            "__ZNK5realm3LstINS_6ObjKeyEE5beginEv",
            "__ZN5realm6createINS_8NotEqualENS_9TimestampENS_5MixedEEENS_5QueryET0_RKNS_8Subexpr2IT1_EE",
            "__ZN5realm3LstINSt3__18optionalINS_8ObjectIdEEEE6removeEmm",
            "__ZN5realm7Results4lastINSt3__18optionalINS_8ObjectIdEEEEENS3_IT_EEv",
            "__ZN5realm3LstIxEaSEOS1_",
            "__ZN5realm12make_subexprINS_7ColumnsINS_3LstINS_4UUIDEEEEEJRKS5_EEENSt3__110unique_ptrINS_7SubexprENS8_14default_deleteISA_EEEEDpOT0_",
            "__ZN5realm12object_store3Set6removeINSt3__18optionalINS_8ObjectIdEEEEENS3_4pairImbEERKT_",
            "__ZNK5realm3LstINSt3__18optionalIxEEE16update_if_neededEv",
            "__ZNK5realm3LstINS_10BinaryDataEE16clone_collectionEv",
            "__ZN5realm7create2INS_4LessExxEENS_5QueryERKNS_8Subexpr2IT0_EERKNS3_IT1_EE",
            "__ZN5realm3LstINS_10StringDataEE4moveEmm",
            "__ZN5realm4List6insertINS_9TimestampEEEvmT_",
            "__ZNK5realm3LstINSt3__18optionalIfEEE6do_getEmPKc",
            "__ZN5realm3LstINS_7ObjLinkEEC1ERKNS_3ObjENS_6ColKeyE",
            "__ZN5realm3LstINSt3__18optionalIfEEEC2EOS4_",
            "__ZN5realm3LstINS_10StringDataEE11insert_nullEm",
            "__ZN5realm12make_subexprINS_25CollectionColumnAggregateINS_5MixedENS_20aggregate_operations7AverageIS2_EEEEJRKS6_EEENSt3__110unique_ptrINS_7SubexprENS9_14default_deleteISB_EEEEDpOT0_",
            "__ZNK5realm3LstINSt3__18optionalINS_8ObjectIdEEEE8get_treeEv",
            "__ZN5realm3LstIbE10insert_anyEmNS_5MixedE",
            "__ZNK5realm3LstINS_6ObjKeyEE7is_nullEm",
            "__ZN5realm3LstINS_5MixedEE18unresolved_to_nullES1_",
            "__ZNK5realm3LstINS_4UUIDEE5beginEv",
            "__ZNK5realm3LstINSt3__18optionalINS_4UUIDEEEE16clone_collectionEv",
            "__ZN5realm3LstINSt3__18optionalIdEEE6removeERKNS_18CollectionIteratorIS4_EE",
            "__ZNK5realm3LstINS_7ObjLinkEE5cloneEv",
            "__ZNK5realm3LstINSt3__18optionalIxEEE3endEv",
            "__ZN5realm7Results4lastINS_10BinaryDataEEENSt3__18optionalIT_EEv",
            "__ZNK5realm3LstIdE3sumEPm",
            "__ZN5realm7Results3getINS_9TimestampEEET_m",
            "__ZN5realm7Results5firstINSt3__18optionalIfEEEENS3_IT_EEv",
            "__ZNK5realm4List4findINSt3__18optionalIxEEEEmRKT_",
            "__ZNK5realm5Table10find_firstIfEENS_6ObjKeyENS_6ColKeyET_",
            "__ZN5realm3LstINS_6ObjKeyEE6removeEm",
            "__ZN5realm7Results4lastINS_10Decimal128EEENSt3__18optionalIT_EEv",
            "__ZN5realm3LstINSt3__18optionalIdEEE7set_anyEmNS_5MixedE",
            "__ZNSt3__16__treeINS_12__value_typeINS_12basic_stringIcNS_11char_traitsIcEENS_9allocatorIcEEEES7_EENS_19__map_value_compareIS7_S8_NS_4lessIS7_EELb1EEENS5_IS8_EEE30__emplace_hint_unique_key_argsIS7_JRKNS_4pairIKS7_S7_EEEEENSG_INS_15__tree_iteratorIS8_PNS_11__tree_nodeIS8_PvEElEEbEENS_21__tree_const_iteratorIS8_SP_lEERKT_DpOT0_",
            "__ZNK5realm3LstIxE8find_anyENS_5MixedE",
            "__ZNK5realm5Table10find_firstINS_8ObjectIdEEENS_6ObjKeyENS_6ColKeyET_",
            "__ZNK5realm3LstINS_6ObjKeyEE16init_from_parentEb",
            "__ZN5realm7create2INS_8NotEqualEddEENS_5QueryERKNS_8Subexpr2IT0_EERKNS3_IT1_EE",
            "__ZN5realm4List6insertINSt3__18optionalINS_8ObjectIdEEEEEvmT_",
            "__ZN5realm3LstINS_10BinaryDataEEC1ERKNS_3ObjENS_6ColKeyE",
            "__ZN5realm3LstINSt3__18optionalINS_4UUIDEEEE6removeEm",
            "__ZN5realm12make_subexprINS_5ValueINS_9TimestampEEEJRKS3_EEENSt3__110unique_ptrINS_7SubexprENS6_14default_deleteIS8_EEEEDpOT0_",
            "__ZN5realm3LstINSt3__18optionalINS_4UUIDEEEE5clearEv",
            "__ZN5realm7create2INS_7GreaterEffEENS_5QueryERKNS_8Subexpr2IT0_EERKNS3_IT1_EE",
            "__ZN5realm3LstIbEC2ERKS1_",
            "__ZNK5realm3LstIxE8get_treeEv",
            "__ZN5realm3LstINSt3__18optionalIbEEE3addES3_",
            "__ZN5realm7create2INS_8NotEqualENS_10Decimal128ES2_EENS_5QueryERKNS_8Subexpr2IT0_EERKNS4_IT1_EE",
            "__ZN5realm7create2INS_12GreaterEqualENS_10Decimal128ENS_5MixedEEENS_5QueryERKNS_8Subexpr2IT0_EERKNS5_IT1_EE",
            "__ZN5realm11safe_copy_nIPKclPcEET1_T_T0_S4_",
            "__ZN5realm3LstINSt3__18optionalIdEEEC1ERKS4_",
            "__ZN5realm3LstINS_10BinaryDataEE10insert_anyEmNS_5MixedE",
            "__ZNK5realm3LstINS_5MixedEE16update_if_neededEv",
            "__ZNSt3__112__hash_tableINS_17__hash_value_typeIU8__strongP8NSString12RLMClassInfoEENS_22__unordered_map_hasherIS4_S6_NS_4hashIS4_EENS_8equal_toIS4_EELb1EEENS_21__unordered_map_equalIS4_S6_SB_S9_Lb1EEENS_9allocatorIS6_EEE21__emplace_unique_implIJRKNS_21piecewise_construct_tENS_5tupleIJOS4_EEENSM_IJRU8__strongP8RLMRealmRU8__strongKP15RLMObjectSchemaOPKN5realm12ObjectSchemaEEEEEEENS_4pairINS_15__hash_iteratorIPNS_11__hash_nodeIS6_PvEEEEbEEDpOT_",
            "__ZN5realm4List6insertINSt3__18optionalIdEEEEvmT_",
            "__ZN5realm3LstINSt3__18optionalIbEEEC2ERKS4_",
            "__ZN5realm12make_subexprINS_18SubColumnAggregateINS_10Decimal128ENS_20aggregate_operations3SumIS2_EEEEJRKS6_EEENSt3__110unique_ptrINS_7SubexprENS9_14default_deleteISB_EEEEDpOT0_",
            "__ZN5realm19ArrayFixedBytesNullINS_8ObjectIdELi12EE3setEmRKNSt3__18optionalIS1_EE",
            "__ZN5realm19ThreadSafeReferenceC1INS_12object_store10DictionaryEEERKT_",
            "__ZNK5realm3LstINSt3__18optionalINS_4UUIDEEEE4sizeEv",
            "__ZN5realm7create2INS_8NotEqualENS_5MixedEbEENS_5QueryERKNS_8Subexpr2IT0_EERKNS4_IT1_EE",
            "__ZN5realm4util6Logger6do_logIJPKcEEEvNS1_5LevelES4_DpOT_",
            "__ZN5realm3LstINS_9TimestampEE3setEmS1_",
            "__ZNK5realm3LstIfE4sizeEv",
            "__ZN5realm6createINS_9LessEqualENS_5MixedENS_10Decimal128EEENS_5QueryET0_RKNS_8Subexpr2IT1_EE",
            "__ZN5realm3LstINS_10BinaryDataEE14ensure_createdEv",
            "__ZN5realm3LstINSt3__18optionalIdEEEaSEOS4_",
            "__ZN5realm7create2INS_5EqualENS_5MixedENS_4UUIDEEENS_5QueryERKNS_8Subexpr2IT0_EERKNS5_IT1_EE",
            "__ZN5realm3LstINSt3__18optionalINS_8ObjectIdEEEE6resizeEm",
            "__ZN5realm15ArrayFixedBytesINS_4UUIDELi16EE6createEv",
            "__ZN5realm12make_subexprINS_5ValueINS_10BinaryDataEEEJRKS3_EEENSt3__110unique_ptrINS_7SubexprENS6_14default_deleteIS8_EEEEDpOT0_",
            "__ZN5realm12make_subexprINS_19ConstantStringValueEJRNS_10StringDataEEEENSt3__110unique_ptrINS_7SubexprENS4_14default_deleteIS6_EEEEDpOT0_",
            "__ZN5realm6createINS_5EqualENS_9TimestampES2_EENS_5QueryET0_RKNS_8Subexpr2IT1_EE",
            "__ZN5realm6createINS_4LessENS_4nullENS_9TimestampEEENS_5QueryET0_RKNS_8Subexpr2IT1_EE",
            "__ZN5realm7create2INS_5EqualENS_5MixedENS_8ObjectIdEEENS_5QueryERKNS_8Subexpr2IT0_EERKNS5_IT1_EE",
            "__ZN5realm12make_subexprINS_10SubColumnsIfEEJRKS2_EEENSt3__110unique_ptrINS_7SubexprENS5_14default_deleteIS7_EEEEDpOT0_",
            "__ZNK5realm3LstINS_4UUIDEE3sumEPm",
            "__ZNK5realm3LstINS_9TimestampEE6do_getEmPKc",
            "__ZNK5realm5Array11find_vtableINS_7GreaterELm1EEEbxmmmPNS_14QueryStateBaseE",
            "__ZN5realm3LstINSt3__18optionalIfEEE6removeERKNS_18CollectionIteratorIS4_EE",
            "__ZNK5realm3LstINSt3__18optionalIbEEE3getEm",
            "__ZN5realm19ThreadSafeReference7resolveINS_12object_store3SetEEET_RKNSt3__110shared_ptrINS_5RealmEEE",
            "__ZN5realm7create2INS_5EqualENS_10Decimal128ES2_EENS_5QueryERKNS_8Subexpr2IT0_EERKNS4_IT1_EE",
            "__ZN5realm6createINS_4LessENS_4nullENS_5MixedEEENS_5QueryET0_RKNS_8Subexpr2IT1_EE",
            "__ZN5realm12make_subexprINS_18ConstantMixedValueEJRNS_8ObjectIdEEEENSt3__110unique_ptrINS_7SubexprENS4_14default_deleteIS6_EEEEDpOT0_",
            "__ZN5realm12make_subexprINS_7ColumnsINS_3SetINS_5MixedEEEEEJRKS5_EEENSt3__110unique_ptrINS_7SubexprENS8_14default_deleteISA_EEEEDpOT0_",
            "__ZN5realm3LstINS_10StringDataEE8set_nullEm",
            "__ZNK5realm3LstINS_6ObjKeyEE3maxEPm",
            "__ZN5realm3LstINS_9TimestampEE8do_clearEv",
            "__ZNK5realm3LstIfEixEm",
            "__ZN5realm3LstINSt3__18optionalIfEEEC2ERKNS_3ObjENS_6ColKeyE",
            "__ZN5realm3LstIxEaSERKS1_",
            "__ZN5realm3LstINSt3__18optionalINS_8ObjectIdEEEE5clearEv",
            "__ZN5realm12make_subexprINS_5ValueINS_10Decimal128EEEJRKS3_EEENSt3__110unique_ptrINS_7SubexprENS6_14default_deleteIS8_EEEEDpOT0_",
            "__ZN5realm3LstINS_10StringDataEE4swapEmm",
            "__ZN5realm7Results3getINS_10BinaryDataEEET_m",
            "__ZNSt3__112__hash_tableINS_17__hash_value_typeIyNS_8functionIFvRKN5realm3app3AppEEEEEENS_22__unordered_map_hasherIySA_NS_4hashIyEENS_8equal_toIyEELb1EEENS_21__unordered_map_equalIySA_SF_SD_Lb1EEENS_9allocatorISA_EEE11__do_rehashILb1EEEvm",
            "__ZN5realm3LstINSt3__18optionalINS_4UUIDEEEE9do_removeEm",
            "__ZNK5realm3LstINSt3__18optionalIdEEE10find_firstERKS3_",
            "__ZN5realm12make_subexprINS_25CollectionColumnAggregateIdNS_20aggregate_operations7MaximumIdEEEEJRKS5_EEENSt3__110unique_ptrINS_7SubexprENS8_14default_deleteISA_EEEEDpOT0_",
            "__ZN5realm4List6insertIfEEvmT_",
            "__ZN5realm5_impl17TransactLogParser8read_intImEET_v",
            "__ZNK5realm3LstIxE3endEv",
            "__ZN5realm12object_store3Set6insertIbEENSt3__14pairImbEET_",
            "__ZNK5realm3LstINS_10StringDataEE8find_anyENS_5MixedE",
            "__ZN5realm3LstINSt3__18optionalINS_8ObjectIdEEEEaSERKS5_",
            "__ZN5realm12make_subexprINS_18SubColumnAggregateIfNS_20aggregate_operations3SumIfEEEEJRKS5_EEENSt3__110unique_ptrINS_7SubexprENS8_14default_deleteISA_EEEEDpOT0_",
            "__ZN5realm15ArrayFixedBytesINS_8ObjectIdELi12EE4moveERS2_m",
            "__ZN5realm3LstIxE9do_insertEmx",
            "__ZNK5realm3LstINSt3__18optionalIbEEE16update_if_neededEv",
            "__ZNK5realm4List3getINSt3__18optionalIbEEEET_m",
            "__ZN5realm4util6formatIJNS_10StringDataERKNSt3__112basic_stringIcNS3_11char_traitsIcEENS3_9allocatorIcEEEEEEES9_PKcDpOT_",
            "__ZN5realm7Results3getINS_4UUIDEEET_m",
            "__ZNSt3__16__treeINS_12__value_typeINS_12basic_stringIcNS_11char_traitsIcEENS_9allocatorIcEEEEU8__strongP10NSMapTableEENS_19__map_value_compareIS7_SB_NS_4lessIS7_EELb1EEENS5_ISB_EEE12__find_equalIS7_EERPNS_16__tree_node_baseIPvEERPNS_15__tree_end_nodeISM_EERKT_",
            "__ZN5realm6createINS_9LessEqualENS_10Decimal128ENS_5MixedEEENS_5QueryET0_RKNS_8Subexpr2IT1_EE",
            "__ZNK5realm3Obj3getINSt3__18optionalIdEEEET_NS_6ColKeyE",
            "__ZN5realm3LstINSt3__18optionalIbEEE4swapEmm",
            "__ZNK5realm3LstINS_5MixedEE8get_treeEv",
            "__ZNSt3__16__treeINS_12__value_typeINS_12basic_stringIcNS_11char_traitsIcEENS_9allocatorIcEEEEN8nlohmann10basic_jsonINS_3mapENS_6vectorES7_bxydS5_NS8_14adl_serializerEEEEENS_19__map_value_compareIS7_SE_NS_4lessIvEELb1EEENS5_ISE_EEE16__construct_nodeIJRKNS_4pairIKS7_SD_EEEEENS_10unique_ptrINS_11__tree_nodeISE_PvEENS_22__tree_node_destructorINS5_ISU_EEEEEEDpOT_",
            "__ZNK5realm11StringIndex8find_allINS_10StringDataEEEvRNSt3__16vectorINS_6ObjKeyENS3_9allocatorIS5_EEEET_b",
            "__ZN5realm10BasicArrayIdE5eraseEm",
            "__ZN5realm4List3addINS_6ObjKeyEEEvT_",
            "__ZN5realm12make_subexprINS_7ColumnsINS_3SetIxEEEEJRKS4_EEENSt3__110unique_ptrINS_7SubexprENS7_14default_deleteIS9_EEEEDpOT0_",
            "__ZN5realm6createINS_7GreaterENS_4nullENS_5MixedEEENS_5QueryET0_RKNS_8Subexpr2IT1_EE",
            "__ZNK5realm3LstIbE3avgEPm",
            "__ZNK5realm3LstINSt3__18optionalIbEEEixEm",
            "__ZN5realm12make_subexprINS_25CollectionColumnAggregateIfNS_20aggregate_operations7AverageIfEEEEJRKS5_EEENSt3__110unique_ptrINS_7SubexprENS8_14default_deleteISA_EEEEDpOT0_",
            "__ZN5realm3LstINSt3__18optionalINS_4UUIDEEEE10insert_anyEmNS_5MixedE",
            "__ZN5realm12make_subexprINS_7ColumnsINS_3SetIfEEEEJRKS4_EEENSt3__110unique_ptrINS_7SubexprENS7_14default_deleteIS9_EEEEDpOT0_",
            "__ZN5realm3LstINS_8ObjectIdEE6do_setEmS1_",
            "__ZNK5realm5Table10find_firstINSt3__18optionalINS_4UUIDEEEEENS_6ObjKeyENS_6ColKeyET_",
            "__ZN5realm12make_subexprINS_18SubColumnAggregateINS_10Decimal128ENS_20aggregate_operations7AverageIS2_EEEEJRKS6_EEENSt3__110unique_ptrINS_7SubexprENS9_14default_deleteISB_EEEEDpOT0_",
            "__ZN5realm3LstIfE6removeEm",
            "__ZN5realm3LstINSt3__18optionalINS_8ObjectIdEEEE6do_setEmS4_",
            "__ZNK5realm5Table9aggregateIfEEvRNS_14QueryStateBaseENS_6ColKeyE",
            "__ZN5realm4util6formatIJRKNSt3__112basic_stringIcNS2_11char_traitsIcEENS2_9allocatorIcEEEERS8_EEES8_PKcDpOT_",
            "__ZN5realm3LstINSt3__18optionalIbEEE8do_clearEv",
            "__ZN5realm15ArrayFixedBytesINS_4UUIDELi16EE19calc_required_bytesEm",
            "__ZN5realm7create2INS_7GreaterENS_5MixedENS_10Decimal128EEENS_5QueryERKNS_8Subexpr2IT0_EERKNS5_IT1_EE",
            "__ZNK5realm3LstINS_7ObjLinkEE16clone_collectionEv",
            "__ZN5realm3LstINS_10Decimal128EE8set_nullEm",
            "__ZNK5realm5Table10find_firstINS_10Decimal128EEENS_6ObjKeyENS_6ColKeyET_",
            "__ZN5realm3LstIbE6insertEmb",
            "__ZN5realm3LstINSt3__18optionalIfEEEC1ERKNS_3ObjENS_6ColKeyE",
            "__ZN5realm7create2INS_7GreaterEddEENS_5QueryERKNS_8Subexpr2IT0_EERKNS3_IT1_EE",
            "__ZNK5realm3LstINS_8ObjectIdEE3getEm",
            "__ZN5realm6createINS_12GreaterEqualExxEENS_5QueryET0_RKNS_8Subexpr2IT1_EE",
            "__ZNK5realm3LstINSt3__18optionalIxEEE15translate_indexEm",
            "__ZN5realm12make_subexprINS_10SubColumnsIxEEJRKS2_EEENSt3__110unique_ptrINS_7SubexprENS5_14default_deleteIS7_EEEEDpOT0_",
            "__ZNK5realm3LstINS_10Decimal128EE6do_getEmPKc",
            "__ZN5realm3LstINS_10BinaryDataEEaSEOS2_",
            "__ZNK5realm12object_store3Set3getINS_6ObjKeyEEET_m",
            "__ZN5realm3LstINS_6ObjKeyEEC2EOS2_",
            "__ZN5realm6createINS_8NotEqualEixEENS_5QueryET0_RKNS_8Subexpr2IT1_EE",
            "__ZN5realm3LstINSt3__18optionalIfEEEC1EOS4_",
            "__ZNK5realm3LstIxE6updateEv",
            "__ZN5realm6createINS_9LessEqualENS_4nullENS_10Decimal128EEENS_5QueryET0_RKNS_8Subexpr2IT1_EE",
            "__ZNK5realm4List3getINSt3__18optionalINS_8ObjectIdEEEEET_m",
            "__ZNK5realm3LstIfE5cloneEv",
            "__ZN5realm12object_store3Set6insertINS_10BinaryDataEEENSt3__14pairImbEET_",
            "__ZN5realm7Results3getINSt3__18optionalIxEEEET_m",
            "__ZN5realm3LstINSt3__18optionalIfEEE9do_insertEmS3_",
            "__ZNK5realm5Array11find_vtableINS_5EqualELm8EEEbxmmmPNS_14QueryStateBaseE",
            "__ZN5realm3LstINS_4UUIDEE4swapEmm",
            "__ZNK5realm5Array11find_vtableINS_8NotEqualELm0EEEbxmmmPNS_14QueryStateBaseE",
            "__ZN5realm12make_subexprINS_7ColumnsINS_9TimestampEEEJRKS3_EEENSt3__110unique_ptrINS_7SubexprENS6_14default_deleteIS8_EEEEDpOT0_",
            "__ZN5realm4List3setINS_6ObjKeyEEEvmT_",
            "__ZNK5realm3LstIdE4sortERNSt3__16vectorImNS2_9allocatorImEEEEb",
            "__ZNK5realm5Array11find_vtableINS_7GreaterELm32EEEbxmmmPNS_14QueryStateBaseE",
            "__ZN5realm3LstINS_4UUIDEE4moveEmm",
            "__ZNSt3__112__hash_tableINS_17__hash_value_typeIxN5realm8IndexSetEEENS_22__unordered_map_hasherIxS4_NS_4hashIxEENS_8equal_toIxEELb1EEENS_21__unordered_map_equalIxS4_S9_S7_Lb1EEENS_9allocatorIS4_EEE8__rehashILb1EEEvm",
            "__ZN5realm7create2INS_9LessEqualENS_5MixedEfEENS_5QueryERKNS_8Subexpr2IT0_EERKNS4_IT1_EE",
            "__ZNK5realm3LstINS_10Decimal128EE3avgEPm",
            "__ZNK5realm15ArrayFixedBytesINS_4UUIDELi16EE3Pos8set_nullEPS2_b",
            "__ZNK5realm3LstINSt3__18optionalINS_4UUIDEEEE5beginEv",
            "__ZN5realm12make_subexprINS_18SubColumnAggregateINS_5MixedENS_20aggregate_operations7MaximumIS2_EEEEJRKS6_EEENSt3__110unique_ptrINS_7SubexprENS9_14default_deleteISB_EEEEDpOT0_",
            "__ZN5realm3LstINS_10BinaryDataEE11insert_nullEm",
            "__ZN5realm6createINS_5EqualENS_4nullENS_9TimestampEEENS_5QueryET0_RKNS_8Subexpr2IT1_EE",
            "__ZN5realm6createINS_4LessEfNS_10Decimal128EEENS_5QueryET0_RKNS_8Subexpr2IT1_EE",
            "__ZNSt3__112__hash_tableINS_17__hash_value_typeIU8__strongP8NSString12RLMClassInfoEENS_22__unordered_map_hasherIS4_S6_NS_4hashIS4_EENS_8equal_toIS4_EELb1EEENS_21__unordered_map_equalIS4_S6_SB_S9_Lb1EEENS_9allocatorIS6_EEE8__rehashILb1EEEvm",
            "__ZNK5realm3LstIbE8get_treeEv",
            "__ZNK5realm3LstINS_10StringDataEE4sortERNSt3__16vectorImNS3_9allocatorImEEEEb",
            "__ZN5realm15ArrayFixedBytesINS_4UUIDELi16EE5clearEv",
            "__ZN5realm3LstINS_10BinaryDataEEC1ERKS2_",
            "__ZN5realm3LstINSt3__18optionalIfEEE10insert_anyEmNS_5MixedE",
            "__ZN5realm3LstINSt3__18optionalIfEEE5clearEv",
            "__ZNK5realm19ArrayFixedBytesNullINS_4UUIDELi16EE10find_firstERKNSt3__18optionalIS1_EEmm",
            "__ZN5realm3LstINSt3__18optionalIdEEEC1EOS4_",
            "__ZN5realm3LstINS_6ObjKeyEE10insert_anyEmNS_5MixedE",
            "__ZN5realm6createINS_8NotEqualENS_4nullENS_10Decimal128EEENS_5QueryET0_RKNS_8Subexpr2IT1_EE",
            "__ZNK5realm5Array3getILm4EEExm",
            "__ZNK5realm3LstIfE3sumEPm",
            "__ZN5realm3LstINSt3__18optionalIdEEEC2ERKS4_",
            "__ZN5realm12make_subexprINS_25CollectionColumnAggregateINS_9TimestampENS_20aggregate_operations7MaximumIS2_EEEEJRKS6_EEENSt3__110unique_ptrINS_7SubexprENS9_14default_deleteISB_EEEEDpOT0_",
            "__ZN5realm7Results5firstINSt3__18optionalIxEEEENS3_IT_EEv",
            "__ZN5realm7Results4lastINSt3__18optionalIfEEEENS3_IT_EEv",
            "__ZNK5realm3LstINS_6ObjKeyEEixEm",
            "__ZNK5realm3LstIdE3maxEPm",
            "__ZNK5realm5Array11find_vtableINS_5EqualELm0EEEbxmmmPNS_14QueryStateBaseE",
            "__ZN5realm6createINS_9LessEqualEffEENS_5QueryET0_RKNS_8Subexpr2IT1_EE",
            "__ZNK5realm3LstINS_10Decimal128EE4sizeEv",
            "__ZN5realm7Results8index_ofINSt3__18optionalIfEEEEmRKT_",
            "__ZNK5realm3LstINSt3__18optionalIfEEE16clone_collectionEv",
            "__ZNK5realm3LstINS_7ObjLinkEE8distinctERNSt3__16vectorImNS3_9allocatorImEEEENS3_8optionalIbEE",
            "__ZN5realm3LstINSt3__18optionalINS_8ObjectIdEEEE3setEmS4_",
            "__ZNK5realm3LstINS_5MixedEE3maxEPm",
            "__ZN5realm6createINS_8NotEqualENS_5MixedENS_10Decimal128EEENS_5QueryET0_RKNS_8Subexpr2IT1_EE",
            "__ZNK5realm3LstINS_4UUIDEE7get_anyEm",
            "__ZN5realm12object_store10Dictionary6insertIbEEvNS_10StringDataET_",
            "__ZN5realm3LstINS_4UUIDEEaSEOS2_",
            "__ZN5realm3LstIfE4swapEmm",
            "__ZNSt3__18functionIFbyyEEaSIRU8__strongU13block_pointerFbmmEvEERS2_OT_",
            "__ZN5realm4List3setINSt3__18optionalINS_8ObjectIdEEEEEvmT_",
            "__ZN5realm19ArrayFixedBytesNullINS_8ObjectIdELi12EEC2ERNS_9AllocatorE",
            "__ZNK5realm3LstINS_4UUIDEE3maxEPm",
            "__ZNSt3__112__hash_tableINS_17__hash_value_typeIjU8__strongP13RLMObjectBaseEENS_22__unordered_map_hasherIjS5_NS_4hashIjEENS_8equal_toIjEELb1EEENS_21__unordered_map_equalIjS5_SA_S8_Lb1EEENS_9allocatorIS5_EEE21__construct_node_hashINS_4pairIKjS4_EEJEEENS_10unique_ptrINS_11__hash_nodeIS5_PvEENS_22__hash_node_destructorINSE_ISO_EEEEEEmOT_DpOT0_",
            "__ZN5realm3LstINS_10BinaryDataEE9do_removeEm",
            "__ZN5realm3LstINSt3__18optionalIfEEE6do_setEmS3_",
            "__ZN5realm6createINS_7GreaterExNS_5MixedEEENS_5QueryET0_RKNS_8Subexpr2IT1_EE",
            "__ZN5realm3LstIdEC1ERKNS_3ObjENS_6ColKeyE",
            "__ZNK5realm19ArrayFixedBytesNullINS_4UUIDELi16EE15find_first_nullEmm",
            "__ZN5realm4List3addINS_9TimestampEEEvT_",
            "__ZNK5realm3LstINS_7ObjLinkEE5beginEv",
            "__ZN5realm3LstINS_10Decimal128EE6insertEmS1_",
            "__ZN5realm6createINS_5EqualEfNS_10Decimal128EEENS_5QueryET0_RKNS_8Subexpr2IT1_EE",
            "__ZN5realm6createINS_9LessEqualExNS_10Decimal128EEENS_5QueryET0_RKNS_8Subexpr2IT1_EE",
            "__ZN5realm6createINS_9LessEqualENS_4nullENS_9TimestampEEENS_5QueryET0_RKNS_8Subexpr2IT1_EE",
            "__ZN5realm3LstINSt3__18optionalIfEEE3setEmS3_",
            "__ZN5realm5_impl18parse_transact_logINS0_23NullInstructionObserverEEEvRNS_4util11InputStreamERT_",
            "__ZNK5realm3LstINS_6ObjKeyEE16clone_collectionEv",
            "__ZNK5realm3LstINS_4UUIDEE4sortERNSt3__16vectorImNS3_9allocatorImEEEEb",
            "__ZNK5realm3LstIdE8get_treeEv",
            "__ZNK5realm3LstINS_9TimestampEE3minEPm",
            "__ZNSt3__112__hash_tableINS_17__hash_value_typeIU8__strongP8NSString12RLMClassInfoEENS_22__unordered_map_hasherIS4_S6_NS_4hashIS4_EENS_8equal_toIS4_EELb1EEENS_21__unordered_map_equalIS4_S6_SB_S9_Lb1EEENS_9allocatorIS6_EEE16__construct_nodeIJRKNS_21piecewise_construct_tENS_5tupleIJRU8__strongKS3_EEENSM_IJRKP8RLMRealmRKP15RLMObjectSchemaOPKN5realm12ObjectSchemaEEEEEEENS_10unique_ptrINS_11__hash_nodeIS6_PvEENS_22__hash_node_destructorINSF_IS17_EEEEEEDpOT_",
            "__ZNK5realm3LstIbE3maxEPm",
            "__ZN5realm6createINS_7GreaterENS_5MixedENS_10Decimal128EEENS_5QueryET0_RKNS_8Subexpr2IT1_EE",
            "__ZNK5realm3LstINS_7ObjLinkEEixEm",
            "__ZN5realm3LstINS_6ObjKeyEE4moveEmm",
            "__ZNK5realm3LstIxE3sumEPm",
            "__ZN5realm3LstINSt3__18optionalINS_4UUIDEEEEC2EOS5_",
            "__ZN5realm3LstINSt3__18optionalIdEEE4swapEmm",
            "__ZN5realm7Results8index_ofINS_5MixedEEEmRKT_",
            "__ZN5realm7create2INS_4LessEddEENS_5QueryERKNS_8Subexpr2IT0_EERKNS3_IT1_EE",
            "__ZN5realm3LstINSt3__18optionalIdEEE8do_clearEv",
            "__ZN5realm3LstINSt3__18optionalIxEEE3setEmS3_",
            "__ZNK5realm5Array11find_vtableINS_4LessELm16EEEbxmmmPNS_14QueryStateBaseE",
            "__ZNK5realm4List3getINS_10BinaryDataEEET_m",
            "__ZN5realm3LstINS_7ObjLinkEE6removeERKNS_18CollectionIteratorIS2_EE",
            "__ZN5realm3LstINSt3__18optionalINS_4UUIDEEEE6do_setEmS4_",
            "__ZN5realm7create2INS_4LessENS_10Decimal128EdEENS_5QueryERKNS_8Subexpr2IT0_EERKNS4_IT1_EE",
            "__ZN5realm3LstINSt3__18optionalIfEEE8set_nullEm",
            "__ZN5realm3LstIbE6resizeEm",
            "__ZNK5realm5Array11find_vtableINS_5EqualELm4EEEbxmmmPNS_14QueryStateBaseE",
            "__ZN5realm6createINS_5EqualENS_8ObjectIdENS_5MixedEEENS_5QueryET0_RKNS_8Subexpr2IT1_EE",
            "__ZNK5realm3LstINS_9TimestampEE8find_anyENS_5MixedE",
            "__ZNK5realm3LstINSt3__18optionalIdEEE3endEv",
            "__ZN5realm3LstINS_5MixedEE3setEmS1_",
            "__ZNK5realm12object_store3Set4findINS_10StringDataEEEmRKT_",
            "__ZN5realm3LstIfE11insert_nullEm",
            "__ZNK5realm3Obj3getINSt3__18optionalINS_4UUIDEEEEET_NS_6ColKeyE",
            "__ZNK5realm3LstINSt3__18optionalINS_4UUIDEEEE6do_getEmPKc",
            "__ZNK5realm3LstINS_9TimestampEE3avgEPm",
            "__ZN5realm6createINS_5EqualENS_4UUIDENS_5MixedEEENS_5QueryET0_RKNS_8Subexpr2IT1_EE",
            "__ZN5realm12object_store3Set6removeINSt3__18optionalIdEEEENS3_4pairImbEERKT_",
            "__ZN5realm3LstINSt3__18optionalINS_8ObjectIdEEEE9do_removeEm",
            "__ZN5realm4util6formatIJPKcNS_10StringDataEEEENSt3__112basic_stringIcNS5_11char_traitsIcEENS5_9allocatorIcEEEES3_DpOT_",
            "__ZNK5realm3LstINSt3__18optionalIxEEE8get_treeEv",
            "__ZNK5realm12object_store3Set4findIfEEmRKT_",
            "__ZN5realm3LstINS_5MixedEE6insertEmS1_",
            "__ZN5realm7Results4lastINS_3ObjEEENSt3__18optionalIT_EEv",
            "__ZN5realm12make_subexprINS_7ColumnsINS_3LstINS_10BinaryDataEEEEEJRKS5_EEENSt3__110unique_ptrINS_7SubexprENS8_14default_deleteISA_EEEEDpOT0_",
            "__ZN5realm12make_subexprINS_5ValueIdEEJRKS2_EEENSt3__110unique_ptrINS_7SubexprENS5_14default_deleteIS7_EEEEDpOT0_",
            "__ZN5realm3LstINS_4UUIDEEC2EOS2_",
            "__ZN5realm12make_subexprINS_25CollectionColumnAggregateIxNS_20aggregate_operations3SumIxEEEEJRKS5_EEENSt3__110unique_ptrINS_7SubexprENS8_14default_deleteISA_EEEEDpOT0_",
            "__ZN5realm12make_subexprINS_18ConstantMixedValueEJRNS_4nullEEEENSt3__110unique_ptrINS_7SubexprENS4_14default_deleteIS6_EEEEDpOT0_",
            "__ZN5realm3LstIfEC2ERKS1_",
            "__ZNK5realm12object_store3Set4findINS_6ObjKeyEEEmRKT_",
            "__ZN5realm4List3setIxEEvmT_",
            "__ZN5realm3LstINS_4UUIDEE6removeERKNS_18CollectionIteratorIS2_EE",
            "__ZN5realm12make_subexprINS_19ConstantStringValueEJNS_10StringDataEEEENSt3__110unique_ptrINS_7SubexprENS3_14default_deleteIS5_EEEEDpOT0_",
            "__ZN5realm12make_subexprINS_7ColumnsINS_3LstINS_8ObjectIdEEEEEJRKS5_EEENSt3__110unique_ptrINS_7SubexprENS8_14default_deleteISA_EEEEDpOT0_",
            "__ZN5realm3LstINS_10BinaryDataEE5clearEv",
            "__ZNK5realm5Array3getILm0EEExm",
            "__ZN5realm3LstINSt3__18optionalIfEEE6removeEm",
            "__ZN5realm5_impl17TransactLogParser8read_intIiEET_v",
            "__ZN5realm3LstINSt3__18optionalIbEEE6insertEmS3_",
            "__ZN5realm3LstINS_8ObjectIdEE6removeEmm",
            "__ZNK5realm3LstINS_4UUIDEE3endEv",
            "__ZN5realm3LstINS_10Decimal128EE6removeEmm",
            "__ZN5realm10BasicArrayIdE6insertEmd",
            "__ZN5realm12make_subexprINS_7ColumnsIbEEJRKS2_EEENSt3__110unique_ptrINS_7SubexprENS5_14default_deleteIS7_EEEEDpOT0_",
            "__ZN5realm6createINS_7GreaterENS_4nullENS_9TimestampEEENS_5QueryET0_RKNS_8Subexpr2IT1_EE",
            "__ZN5realm3LstIbEaSEOS1_",
            "__ZN5realm12object_store3Set6removeINS_9TimestampEEENSt3__14pairImbEERKT_",
            "__ZNK5realm5Array3getILm64EEExm",
            "__ZNK5realm3LstINS_10StringDataEE8get_treeEv",
            "__ZN5realm15ArrayFixedBytesINS_4UUIDELi16EE8truncateEm",
            "__ZN5realm6createINS_9LessEqualEdNS_10Decimal128EEENS_5QueryET0_RKNS_8Subexpr2IT1_EE",
            "__ZN5realm3LstINS_6ObjKeyEEaSERKS2_",
            "__ZN5realm15ArrayFixedBytesINS_4UUIDELi16EE10set_parentEPNS_11ArrayParentEm",
            "__ZN5realm6createINS_7GreaterENS_9TimestampENS_5MixedEEENS_5QueryET0_RKNS_8Subexpr2IT1_EE",
            "__ZN5realm3LstINSt3__18optionalIdEEE3setEmS3_",
            "__ZN5realm3LstIbE6removeEmm",
            "__ZNK5realm15ArrayFixedBytesINS_8ObjectIdELi12EE13calc_byte_lenEmm",
            "__ZN5realm6createINS_5EqualENS_5MixedES2_EENS_5QueryET0_RKNS_8Subexpr2IT1_EE",
            "__ZN5realm12make_subexprINS_25CollectionColumnAggregateINS_10Decimal128ENS_20aggregate_operations7AverageIS2_EEEEJRKS6_EEENSt3__110unique_ptrINS_7SubexprENS9_14default_deleteISB_EEEEDpOT0_",
            "__ZNK5realm3LstINS_8ObjectIdEE16update_if_neededEv",
            "__ZN5realm6createINS_9LessEqualENS_10Decimal128ES2_EENS_5QueryET0_RKNS_8Subexpr2IT1_EE",
            "__ZNK5realm5Array9get_chunkILm4EEEvmPx",
            "__ZN5realm7create2INS_8NotEqualENS_10Decimal128EfEENS_5QueryERKNS_8Subexpr2IT0_EERKNS4_IT1_EE",
            "__ZN5realm15ArrayFixedBytesINS_4UUIDELi16EE13default_valueEb",
            "__ZN5realm3LstINS_10Decimal128EE6resizeEm",
            "__ZN5realm12make_subexprINS_18SubColumnAggregateIfNS_20aggregate_operations7MaximumIfEEEEJRKS5_EEENSt3__110unique_ptrINS_7SubexprENS8_14default_deleteISA_EEEEDpOT0_",
            "__ZN5realm5Array3setILm64EEEvmx",
            "__ZNK5realm12object_store3Set3getINS_10StringDataEEET_m",
            "__ZNK5realm3LstIbE8distinctERNSt3__16vectorImNS2_9allocatorImEEEENS2_8optionalIbEE",
            "__ZN5realm3LstIxE10insert_anyEmNS_5MixedE",
            "__ZNK5realm3LstINSt3__18optionalINS_8ObjectIdEEEE8find_anyENS_5MixedE",
            "__ZN5realm3LstINS_6ObjKeyEE3setEmS1_",
            "__ZNK5realm3LstINS_6ObjKeyEE3getEm",
            "__ZN5realm5_impl17TransactLogParser8read_intIxEET_v",
            "__ZNSt3__112__hash_tableINS_17__hash_value_typeIyNS_8functionIFvRKN5realm3app3AppEEEEEENS_22__unordered_map_hasherIySA_NS_4hashIyEENS_8equal_toIyEELb1EEENS_21__unordered_map_equalIySA_SF_SD_Lb1EEENS_9allocatorISA_EEE8__rehashILb1EEEvm",
            "__ZN5realm19ArrayFixedBytesNullINS_8ObjectIdELi12EE3addERKNSt3__18optionalIS1_EE",
            "__ZN5realm3LstINS_9TimestampEE18unresolved_to_nullENS_5MixedE",
            "__ZN5realm3LstINSt3__18optionalIxEEE5clearEv",
            "__ZNK5realm3LstINSt3__18optionalINS_8ObjectIdEEEE10find_firstERKS4_",
            "__ZN5realm3LstINS_9TimestampEE10insert_anyEmNS_5MixedE",
            "__ZNK5realm3LstINS_10Decimal128EE16update_if_neededEv",
            "__ZN5realm12make_subexprINS_25CollectionColumnAggregateINS_10Decimal128ENS_20aggregate_operations3SumIS2_EEEEJRKS6_EEENSt3__110unique_ptrINS_7SubexprENS9_14default_deleteISB_EEEEDpOT0_",
            "__ZN5realm4util9terminateIJmmEEEvPKcS3_lDpT_",
            "__ZN5realm6createINS_4LessENS_4nullENS_10Decimal128EEENS_5QueryET0_RKNS_8Subexpr2IT1_EE",
            "__ZNK5realm3LstINS_10Decimal128EE3maxEPm",
            "__ZN5realm7create2INS_5EqualENS_8ObjectIdES2_EENS_5QueryERKNS_8Subexpr2IT0_EERKNS4_IT1_EE",
            "__ZNK5realm3LstINS_7ObjLinkEE6do_getEmPKc",
            "__ZNK5realm3LstINS_4UUIDEE8get_treeEv",
            "__ZN5realm6createINS_8NotEqualENS_4nullEfEENS_5QueryET0_RKNS_8Subexpr2IT1_EE",
            "__ZN5realm3LstIdE4moveEmm",
            "__ZNK5realm3LstINSt3__18optionalIxEEE8distinctERNS1_6vectorImNS1_9allocatorImEEEENS2_IbEE",
            "__ZNK5realm3LstIbE3endEv",
            "__ZN5realm6createINS_4LessEfdEENS_5QueryET0_RKNS_8Subexpr2IT1_EE",
            "__ZN5realm3LstINS_5MixedEEC2EOS2_",
            "__ZN5realm3LstINS_10Decimal128EE7set_anyEmNS_5MixedE",
            "__ZN5realm3LstINS_4UUIDEEC2ERKNS_3ObjENS_6ColKeyE",
            "__ZN5realm7create2INS_9LessEqualENS_10Decimal128EdEENS_5QueryERKNS_8Subexpr2IT0_EERKNS4_IT1_EE",
            "__ZNK5realm4List4findINSt3__18optionalINS_4UUIDEEEEEmRKT_",
            "__ZNK5realm3LstINS_9TimestampEE6updateEv",
            "__ZN5realm12object_store3Set6removeINS_6ObjKeyEEENSt3__14pairImbEERKT_",
            "__ZNK5realm5Array9get_chunkILm2EEEvmPx",
            "__ZNK5realm3LstINS_9TimestampEE7get_anyEm",
            "__ZNSt3__112__hash_tableINS_17__hash_value_typeIU8__strongP8NSString12RLMClassInfoEENS_22__unordered_map_hasherIS4_S6_NS_4hashIS4_EENS_8equal_toIS4_EELb1EEENS_21__unordered_map_equalIS4_S6_SB_S9_Lb1EEENS_9allocatorIS6_EEE16__construct_nodeIJRKNS_21piecewise_construct_tENS_5tupleIJOS4_EEENSM_IJRKP8RLMRealmRU8__strongP15RLMObjectSchemaONS_10unique_ptrIN5realm12ObjectSchemaENS_14default_deleteISZ_EEEEEEEEEENSX_INS_11__hash_nodeIS6_PvEENS_22__hash_node_destructorINSF_IS17_EEEEEEDpOT_",
            "__ZNK5realm4List4findINSt3__18optionalIbEEEEmRKT_",
            "__ZNK5realm3LstINS_10StringDataEE7is_nullEm",
            "__ZNK5realm15ArrayFixedBytesINS_8ObjectIdELi12EE3Pos8set_nullEPS2_b",
            "__ZNK5realm3LstINS_7ObjLinkEE10find_firstERKS1_",
            "__ZN5realm12make_subexprINS_18SubColumnAggregateINS_9TimestampENS_20aggregate_operations7MaximumIS2_EEEEJRKS6_EEENSt3__110unique_ptrINS_7SubexprENS9_14default_deleteISB_EEEEDpOT0_",
            "__ZNK5realm3LstINS_8ObjectIdEE8get_treeEv",
            "__ZN5realm3LstIfE14ensure_createdEv",
            "__ZNK5realm3LstINSt3__18optionalINS_8ObjectIdEEEE8distinctERNS1_6vectorImNS1_9allocatorImEEEENS2_IbEE",
            "__ZNK5realm3LstINS_10Decimal128EE8get_treeEv",
            "__ZNK5realm3LstIdEixEm",
            "__ZN5realm7create2INS_8NotEqualENS_5MixedENS_8ObjectIdEEENS_5QueryERKNS_8Subexpr2IT0_EERKNS5_IT1_EE",
            "__ZN5realm7create2INS_4LessEffEENS_5QueryERKNS_8Subexpr2IT0_EERKNS3_IT1_EE",
            "__ZNK5realm3LstINSt3__18optionalIdEEE6updateEv",
            "__ZN5realm3LstINS_4UUIDEE6insertEmS1_",
            "__ZNK5realm3LstINS_9TimestampEE3sumEPm",
            "__ZNK5realm12object_store3Set4findINS_9TimestampEEEmRKT_",
            "__ZN5realm12object_store3Set6insertINS_4UUIDEEENSt3__14pairImbEET_",
            "__ZNK5realm3LstINS_9TimestampEE5cloneEv",
            "__ZNK5realm5Array11find_vtableINS_5EqualELm16EEEbxmmmPNS_14QueryStateBaseE",
            "__ZNK5realm3LstIfE3minEPm",
            "__ZN5realm3LstINSt3__18optionalIdEEE18unresolved_to_nullENS_5MixedE",
            "__ZN5realm6createINS_5EqualEbNS_5MixedEEENS_5QueryET0_RKNS_8Subexpr2IT1_EE",
            "__ZN5realm3LstINS_7ObjLinkEE10insert_anyEmNS_5MixedE",
            "__ZN5realm3LstIdE6removeEmm",
            "__ZNSt3__112__hash_tableINS_17__hash_value_typeIyNS_8functionIFvRKN5realm8SyncUserEEEEEENS_22__unordered_map_hasherIyS9_NS_4hashIyEENS_8equal_toIyEELb1EEENS_21__unordered_map_equalIyS9_SE_SC_Lb1EEENS_9allocatorIS9_EEE25__emplace_unique_key_argsIyJNS_4pairIKyS8_EEEEENSM_INS_15__hash_iteratorIPNS_11__hash_nodeIS9_PvEEEEbEERKT_DpOT0_",
            "__ZNK5realm3LstINS_4UUIDEE5cloneEv",
            "__ZN5realm3LstIbEC1ERKS1_",
            "__ZNK5realm3Obj3getIdEET_NS_6ColKeyE",
            "__ZN5realm3LstIbE6removeEm",
            "__ZNK5realm5Array11find_vtableINS_4LessELm64EEEbxmmmPNS_14QueryStateBaseE",
            "__ZN5realm12object_store10Dictionary6insertINS_8ObjectIdEEEvNS_10StringDataET_",
            "__ZN5realm4List6insertIdEEvmT_",
            "__ZN5realm7Results3getIbEET_m",
            "__ZNK5realm5Array11find_vtableINS_5EqualELm1EEEbxmmmPNS_14QueryStateBaseE",
            "__ZNK5realm4List3getINS_9TimestampEEET_m",
            "__ZN5realm12object_store3Set6removeINSt3__18optionalIbEEEENS3_4pairImbEERKT_",
            "__ZNK5realm12object_store3Set3getINS_4UUIDEEET_m",
            "__ZN5realm3LstINS_5MixedEE7set_anyEmS1_",
            "__ZN5realm3LstINS_10BinaryDataEE8set_nullEm",
            "__ZNK5realm3LstIdE8distinctERNSt3__16vectorImNS2_9allocatorImEEEENS2_8optionalIbEE",
            "__ZN5realm4util10serializer11print_valueINS_10Decimal128EEENSt3__112basic_stringIcNS4_11char_traitsIcEENS4_9allocatorIcEEEET_",
            "__ZN5realm3LstINSt3__18optionalINS_8ObjectIdEEEE11insert_nullEm",
            "__ZN5realm3LstINS_9TimestampEEaSERKS2_",
            "__ZN5realm3LstINS_9TimestampEEC2EOS2_",
            "__ZN5realm7create2INS_7GreaterExxEENS_5QueryERKNS_8Subexpr2IT0_EERKNS3_IT1_EE",
            "__ZNK5realm3LstINSt3__18optionalINS_8ObjectIdEEEEixEm",
            "__ZN5realm3LstINS_9TimestampEE6removeERKNS_18CollectionIteratorIS2_EE",
            "__ZN5realm3LstIfE7set_anyEmNS_5MixedE",
            "__ZN5realm12make_subexprINS_18ConstantMixedValueEJRxEEENSt3__110unique_ptrINS_7SubexprENS3_14default_deleteIS5_EEEEDpOT0_",
            "__ZN5realm7create2INS_4LessEdxEENS_5QueryERKNS_8Subexpr2IT0_EERKNS3_IT1_EE",
            "__ZN5realm3LstIfE18unresolved_to_nullENS_5MixedE",
            "__ZN5realm6createINS_5EqualExxEENS_5QueryET0_RKNS_8Subexpr2IT1_EE",
            "__ZNK5realm3LstIxE16clone_collectionEv",
            "__ZNK5realm5Table9aggregateINSt3__18optionalIxEEEEvRNS_14QueryStateBaseENS_6ColKeyE",
            "__ZN5realm3LstIfEaSERKS1_",
            "__ZN5realm6createINS_5EqualENS_4nullENS_5MixedEEENS_5QueryET0_RKNS_8Subexpr2IT1_EE",
            "__ZNK5realm3LstINS_8ObjectIdEE6updateEv",
            "__ZN5realm7create2INS_7GreaterENS_5MixedEdEENS_5QueryERKNS_8Subexpr2IT0_EERKNS4_IT1_EE",
            "__ZNK5realm5Array11find_vtableINS_7GreaterELm8EEEbxmmmPNS_14QueryStateBaseE",
            "__ZN5realm12make_subexprINS_7ColumnsINS_3LstINS_9TimestampEEEEEJRKS5_EEENSt3__110unique_ptrINS_7SubexprENS8_14default_deleteISA_EEEEDpOT0_",
            "__ZNK5realm3LstIbE15translate_indexEm",
            "__ZN5realm3LstINS_10Decimal128EE9do_insertEmS1_",
            "__ZN5realm7Results3getINSt3__18optionalIdEEEET_m",
            "__ZN5realm7Results5firstINS_10Decimal128EEENSt3__18optionalIT_EEv",
            "__ZNK5realm12object_store3Set4findINSt3__18optionalIfEEEEmRKT_",
            "__ZN5realm3LstIdEC2ERKS1_",
            "__ZNK5realm4bson10IndexedMapINS0_4BsonEE4findERKNSt3__112basic_stringIcNS4_11char_traitsIcEENS4_9allocatorIcEEEE",
            "__ZN5realm3LstINS_6ObjKeyEE18unresolved_to_nullENS_5MixedE",
            "__ZN5realm7create2INS_12GreaterEqualENS_5MixedEfEENS_5QueryERKNS_8Subexpr2IT0_EERKNS4_IT1_EE",
            "__ZNK5realm19ThreadSafeReference2isINSt3__110shared_ptrINS_5RealmEEEEEbv",
            "__ZNK5realm3LstINS_10BinaryDataEE5beginEv",
            "__ZNK5realm5Table10find_firstINS_6ObjKeyEEES2_NS_6ColKeyET_",
            "__ZN5realm3LstINS_6ObjKeyEEC1EOS2_",
            "__ZNK5realm3LstINS_5MixedEE4sizeEv",
            "__ZNK5realm3LstINS_8ObjectIdEE15translate_indexEm",
            "__ZN5realm12make_subexprINS_13SubQueryCountEJRKS1_EEENSt3__110unique_ptrINS_7SubexprENS4_14default_deleteIS6_EEEEDpOT0_",
            "__ZNK5realm5Array11find_vtableINS_4LessELm8EEEbxmmmPNS_14QueryStateBaseE",
            "__ZNSt3__112__hash_tableINS_17__hash_value_typeINS_12basic_stringIcNS_11char_traitsIcEENS_9allocatorIcEEEEN5realm4bson4BsonEEENS_22__unordered_map_hasherIS7_SB_NS_4hashIS7_EENS_8equal_toIS7_EELb1EEENS_21__unordered_map_equalIS7_SB_SG_SE_Lb1EEENS5_ISB_EEE25__emplace_unique_key_argsIS7_JRKNS_21piecewise_construct_tENS_5tupleIJRKS7_EEENSQ_IJEEEEEENS_4pairINS_15__hash_iteratorIPNS_11__hash_nodeISB_PvEEEEbEERKT_DpOT0_",
            "__ZN5realm3LstINSt3__18optionalIfEEE11insert_nullEm",
            "__ZN5realm4List3addIdEEvT_",
            "__ZNK5realm3LstINS_10StringDataEE3getEm",
            "__ZN5realm3LstINSt3__18optionalIxEEEC1ERKNS_3ObjENS_6ColKeyE",
            "__ZNK5realm3LstINSt3__18optionalIfEEE3avgEPm",
            "__ZN5realm6createINS_9LessEqualENS_9TimestampENS_5MixedEEENS_5QueryET0_RKNS_8Subexpr2IT1_EE",
            "__ZN5realm15make_expressionINS_7CompareINS_9LessEqualEEEJNSt3__110unique_ptrINS_7SubexprENS4_14default_deleteIS6_EEEES9_EEENS5_INS_10ExpressionENS7_ISA_EEEEDpOT0_",
            "__ZN5realm12make_subexprINS_25CollectionColumnAggregateINS_5MixedENS_20aggregate_operations7MinimumIS2_EEEEJRKS6_EEENSt3__110unique_ptrINS_7SubexprENS9_14default_deleteISB_EEEEDpOT0_",
            "__ZN5realm12object_store3Set6insertINS_8ObjectIdEEENSt3__14pairImbEET_",
            "__ZN5realm3LstINSt3__18optionalIfEEE14ensure_createdEv",
            "__ZN5realm4bson10IndexedMapINS0_4BsonEE8iteratorppEi",
            "__ZN5realm12make_subexprINS_7ColumnsINS_3LstINS_5MixedEEEEEJRKS5_EEENSt3__110unique_ptrINS_7SubexprENS8_14default_deleteISA_EEEEDpOT0_",
            "__ZN5realm6createINS_12GreaterEqualENS_4nullENS_10Decimal128EEENS_5QueryET0_RKNS_8Subexpr2IT1_EE",
            "__ZN5realm3LstINS_7ObjLinkEEC2EOS2_",
            "__ZN5realm7Results3getINS_5MixedEEET_m",
            "__ZNK5realm3LstIdE16init_from_parentEb",
            "__ZNK5realm3LstINS_10StringDataEE16init_from_parentEb",
            "__ZN5realm10BasicArrayIfE6insertEmf",
            "__ZN5realm6createINS_4LessENS_9TimestampES2_EENS_5QueryET0_RKNS_8Subexpr2IT1_EE",
            "__ZN5realm6createINS_12GreaterEqualENS_4nullEdEENS_5QueryET0_RKNS_8Subexpr2IT1_EE",
            "__ZN5realm12make_subexprINS_18SubColumnAggregateIxNS_20aggregate_operations7MaximumIxEEEEJRKS5_EEENSt3__110unique_ptrINS_7SubexprENS8_14default_deleteISA_EEEEDpOT0_",
            "__ZN5realm4List3addINS_8ObjectIdEEEvT_",
            "__ZN5realm7Results3getINSt3__18optionalINS_8ObjectIdEEEEET_m",
            "__ZNK5realm3LstINS_10StringDataEE5cloneEv",
            "__ZNK5realm3LstINS_10Decimal128EEixEm",
            "__ZN5realm3LstINSt3__18optionalINS_8ObjectIdEEEE6insertEmS4_",
            "__ZNK5realm3LstINSt3__18optionalIdEEE16update_if_neededEv",
            "__ZN5realm19ThreadSafeReference7resolveINS_4ListEEET_RKNSt3__110shared_ptrINS_5RealmEEE",
            "__ZN5realm4List3addINSt3__18optionalIfEEEEvT_",
            "__ZN5realm7create2INS_8NotEqualENS_5MixedENS_9TimestampEEENS_5QueryERKNS_8Subexpr2IT0_EERKNS5_IT1_EE",
            "__ZNK5realm3LstINS_8ObjectIdEE3endEv",
            "__ZN5realm12object_store3Set6removeINSt3__18optionalIxEEEENS3_4pairImbEERKT_",
            "__ZN5realm3LstINSt3__18optionalINS_8ObjectIdEEEE14ensure_createdEv",
            "__ZNK5realm3LstINSt3__18optionalIdEEE3sumEPm",
            "__ZN5realm3LstINS_6ObjKeyEE5clearEv",
            "__ZN5realm12make_subexprINS_18SubColumnAggregateINS_10Decimal128ENS_20aggregate_operations7MinimumIS2_EEEEJRKS6_EEENSt3__110unique_ptrINS_7SubexprENS9_14default_deleteISB_EEEEDpOT0_",
            "__ZN5realm7Results8index_ofIxEEmRKT_",
            "__ZNK5realm3LstIdE7is_nullEm",
            "__ZNK5realm3LstINSt3__18optionalIfEEE3sumEPm",
            "__ZNK5realm5Table9aggregateIdEEvRNS_14QueryStateBaseENS_6ColKeyE",
            "__ZN5realm3LstINSt3__18optionalIfEEEC2ERKS4_",
            "__ZNK5realm5Table9aggregateIxEEvRNS_14QueryStateBaseENS_6ColKeyE",
            "__ZNK5realm3LstINSt3__18optionalIdEEE16init_from_parentEb",
            "__ZN5realm4util6Logger6do_logIJRyS3_EEEvNS1_5LevelEPKcDpOT_",
            "__ZNK5realm3LstINSt3__18optionalIdEEE7get_anyEm",
            "__ZNK5realm3LstINS_9TimestampEE10find_firstERKS1_",
            "__ZNK5realm3Obj3getINSt3__18optionalINS_8ObjectIdEEEEET_NS_6ColKeyE",
            "__ZN5realm3LstINSt3__18optionalIdEEEC1ERKNS_3ObjENS_6ColKeyE",
            "__ZN5realm3LstIbE5clearEv",
            "__ZNK5realm3LstINS_7ObjLinkEE4sizeEv",
            "__ZN5realm4util4someIxJRxEEENSt3__18optionalIT_EEDpOT0_",
            "__ZN5realm7create2INS_8NotEqualENS_5MixedES2_EENS_5QueryERKNS_8Subexpr2IT0_EERKNS4_IT1_EE",
            "__ZN5realm3LstIbE4swapEmm",
            "__ZNSt3__112__hash_tableINS_17__hash_value_typeIxN5realm8IndexSetEEENS_22__unordered_map_hasherIxS4_NS_4hashIxEENS_8equal_toIxEELb1EEENS_21__unordered_map_equalIxS4_S9_S7_Lb1EEENS_9allocatorIS4_EEE11__do_rehashILb1EEEvm",
            "__ZN5realm7create2INS_5EqualENS_10Decimal128EfEENS_5QueryERKNS_8Subexpr2IT0_EERKNS4_IT1_EE",
            "__ZNK5realm11StringIndex8find_allINS_5MixedEEEvRNSt3__16vectorINS_6ObjKeyENS3_9allocatorIS5_EEEET_b",
            "__ZN5realm12make_subexprINS_25CollectionColumnAggregateIfNS_20aggregate_operations7MaximumIfEEEEJRKS5_EEENSt3__110unique_ptrINS_7SubexprENS8_14default_deleteISA_EEEEDpOT0_",
            "__ZN5realm4util6formatIJPKcEEENSt3__112basic_stringIcNS4_11char_traitsIcEENS4_9allocatorIcEEEES3_DpOT_",
            "__ZN5realm7create2INS_8NotEqualENS_4UUIDES2_EENS_5QueryERKNS_8Subexpr2IT0_EERKNS4_IT1_EE",
            "__ZN5realm12make_subexprINS_25CollectionColumnAggregateINS_10Decimal128ENS_20aggregate_operations7MinimumIS2_EEEEJRKS6_EEENSt3__110unique_ptrINS_7SubexprENS9_14default_deleteISB_EEEEDpOT0_",
            "__ZN5realm3LstINSt3__18optionalIbEEE6resizeEm",
            "__ZN5realm3LstINSt3__18optionalINS_4UUIDEEEE8do_clearEv",
            "__ZNSt3__112__hash_tableINS_17__hash_value_typeINS_12basic_stringIcNS_11char_traitsIcEENS_9allocatorIcEEEEN5realm4bson4BsonEEENS_22__unordered_map_hasherIS7_SB_NS_4hashIS7_EENS_8equal_toIS7_EELb1EEENS_21__unordered_map_equalIS7_SB_SG_SE_Lb1EEENS5_ISB_EEE25__emplace_unique_key_argsIS7_JRKNS_4pairIKS7_SA_EEEEENSN_INS_15__hash_iteratorIPNS_11__hash_nodeISB_PvEEEEbEERKT_DpOT0_",
            "__ZNK5realm4bson10IndexedMapINS0_4BsonEEixEm",
            "__ZN5realm7create2INS_5EqualENS_5MixedEdEENS_5QueryERKNS_8Subexpr2IT0_EERKNS4_IT1_EE",
            "__ZN5realm7Results5firstINSt3__18optionalIbEEEENS3_IT_EEv",
            "__ZNK5realm3LstINS_4UUIDEE15translate_indexEm",
            "__ZNSt3__16__treeINS_12__value_typeINS_12basic_stringIcNS_11char_traitsIcEENS_9allocatorIcEEEES7_EENS_19__map_value_compareIS7_S8_NS_4lessIS7_EELb1EEENS5_IS8_EEE21__emplace_unique_implIJPKcSH_EEENS_4pairINS_15__tree_iteratorIS8_PNS_11__tree_nodeIS8_PvEElEEbEEDpOT_",
            "__ZNK5realm3LstINS_4UUIDEE3avgEPm",
            "__ZN5realm3LstINSt3__18optionalINS_4UUIDEEEEC1EOS5_",
            "__ZN5realm15make_expressionINS_7CompareINS_4LessEEEJNSt3__110unique_ptrINS_7SubexprENS4_14default_deleteIS6_EEEES9_EEENS5_INS_10ExpressionENS7_ISA_EEEEDpOT0_",
            "__ZNK5realm3LstINSt3__18optionalIdEEE3getEm",
            "__ZN5realm12object_store3Set6removeINS_4UUIDEEENSt3__14pairImbEERKT_",
            "__ZN5realm7Results5firstINSt3__18optionalINS_4UUIDEEEEENS3_IT_EEv",
            "__ZN5realm4List3setIbEEvmT_",
            "__ZNK5realm4bson10IndexedMapINS0_4BsonEE3endEv",
            "__ZN5realm3LstINS_10StringDataEEC1EOS2_",
            "__ZNK5realm3LstIfE8find_anyENS_5MixedE",
            "__ZNK5realm3Obj3getINS_8ObjectIdEEET_NS_6ColKeyE",
            "__ZNK5realm3LstINSt3__18optionalIbEEE3endEv",
            "__ZNK5realm5Array9get_chunkILm1EEEvmPx",
            "__ZN5realm6createINS_4LessENS_5MixedES2_EENS_5QueryET0_RKNS_8Subexpr2IT1_EE",
            "__ZNK5realm3LstINS_7ObjLinkEE7get_anyEm",
            "__ZNK5realm12object_store3Set4findINSt3__18optionalINS_8ObjectIdEEEEEmRKT_",
            "__ZN5realm12make_subexprINS_7ColumnsINS_3LstIbEEEEJRKS4_EEENSt3__110unique_ptrINS_7SubexprENS7_14default_deleteIS9_EEEEDpOT0_",
            "__ZNK5realm5Array11find_vtableINS_7GreaterELm2EEEbxmmmPNS_14QueryStateBaseE",
            "__ZN5realm7create2INS_7GreaterENS_5MixedES2_EENS_5QueryERKNS_8Subexpr2IT0_EERKNS4_IT1_EE",
            "__ZN5realm7minimumImEET_S1_S1_",
            "__ZNSt3__111atomic_loadB8ue170006IN5realm15SyncUserContextEEENS_10shared_ptrIT_EEPKS5_",
            "__ZN5realm15ArrayFixedBytesINS_8ObjectIdELi12EE5eraseEm",
            "__ZN5realm7create2INS_12GreaterEqualEddEENS_5QueryERKNS_8Subexpr2IT0_EERKNS3_IT1_EE",
            "__ZN5realm3LstINSt3__18optionalINS_4UUIDEEEE8set_nullEm",
            "__ZN5realm12make_subexprINS_18ConstantMixedValueEJRiEEENSt3__110unique_ptrINS_7SubexprENS3_14default_deleteIS5_EEEEDpOT0_",
            "__ZNK5realm4List4findIxEEmRKT_",
            "__ZN5realm7Results8index_ofIfEEmRKT_",
            "__ZN5realm12make_subexprINS_10SubColumnsINS_5MixedEEEJRKS3_EEENSt3__110unique_ptrINS_7SubexprENS6_14default_deleteIS8_EEEEDpOT0_",
            "__ZNK5realm3LstINSt3__18optionalIfEEE8distinctERNS1_6vectorImNS1_9allocatorImEEEENS2_IbEE",
            "__ZNK5realm3LstINS_8ObjectIdEE3maxEPm",
            "__ZNK5realm3LstIxE5beginEv",
            "__ZN5realm12object_store3Set6removeINSt3__18optionalIfEEEENS3_4pairImbEERKT_",
            "__ZN5realm3LstINS_4UUIDEE3addES1_",
            "__ZN5realm3LstINS_8ObjectIdEE4moveEmm",
            "__ZN5realm3LstINS_10Decimal128EE9do_removeEm",
            "__ZNK5realm15ArrayFixedBytesINS_8ObjectIdELi12EE10find_firstERKS1_mm",
            "__ZNK5realm4List3getIfEET_m",
            "__ZNK5realm3LstINS_8ObjectIdEE7get_anyEm",
            "__ZN5realm3LstIbE6do_setEmb",
            "__ZN5realm3LstINS_9TimestampEE9do_insertEmS1_",
            "__ZNK5realm12object_store3Set3getINSt3__18optionalIfEEEET_m",
            "__ZN5realm7create2INS_7GreaterEdxEENS_5QueryERKNS_8Subexpr2IT0_EERKNS3_IT1_EE",
            "__ZN5realm3LstINS_10StringDataEE6removeEm",
            "__ZNK5realm3LstINSt3__18optionalIdEEE8find_anyENS_5MixedE",
            "__ZN5realm3LstINSt3__18optionalIbEEEC1EOS4_",
            "__ZN5realm3LstINSt3__18optionalINS_4UUIDEEEEaSEOS5_",
            "__ZN5realm3LstINS_4UUIDEE5clearEv",
            "__ZN5realm3LstINSt3__18optionalINS_8ObjectIdEEEE7set_anyEmNS_5MixedE",
            "__ZN5realm3LstIbEC1ERKNS_3ObjENS_6ColKeyE",
            "__ZNKSt3__112__hash_tableINS_17__hash_value_typeIxN5realm8IndexSetEEENS_22__unordered_map_hasherIxS4_NS_4hashIxEENS_8equal_toIxEELb1EEENS_21__unordered_map_equalIxS4_S9_S7_Lb1EEENS_9allocatorIS4_EEE4findIxEENS_21__hash_const_iteratorIPNS_11__hash_nodeIS4_PvEEEERKT_",
            "__ZN5realm6createINS_9LessEqualEfNS_10Decimal128EEENS_5QueryET0_RKNS_8Subexpr2IT1_EE",
            "__ZN5realm3LstIdE7set_anyEmNS_5MixedE",
            "__ZN5realm4List3addIbEEvT_",
            "__ZNK5realm19ThreadSafeReference2isINS_12object_store10DictionaryEEEbv",
            "__ZN5realm3LstINSt3__18optionalIxEEE3addES3_",
            "__ZN5realm3LstINSt3__18optionalIdEEE9do_insertEmS3_",
            "__ZN5realm4util6formatIJRKNSt3__112basic_stringIcNS2_11char_traitsIcEENS2_9allocatorIcEEEESA_EEES8_PKcDpOT_",
            "__ZNSt3__16__treeINS_12__value_typeINS_12basic_stringIcNS_11char_traitsIcEENS_9allocatorIcEEEES7_EENS_19__map_value_compareIS7_S8_NS_4lessIS7_EELb1EEENS5_IS8_EEE12__find_equalIS7_EERPNS_16__tree_node_baseIPvEENS_21__tree_const_iteratorIS8_PNS_11__tree_nodeIS8_SH_EElEERPNS_15__tree_end_nodeISJ_EESK_RKT_",
            "__ZNK5realm3LstINSt3__18optionalINS_8ObjectIdEEEE16update_if_neededEv",
            "__ZNK5realm3LstINS_10BinaryDataEE6updateEv",
            "__ZN5realm4util10serializer11print_valueIxEENSt3__112basic_stringIcNS3_11char_traitsIcEENS3_9allocatorIcEEEET_",
            "__ZNK5realm3LstINSt3__18optionalIfEEE3maxEPm",
            "__ZNK5realm3LstINS_5MixedEE6updateEv",
            "__ZN5realm3LstINS_4UUIDEE11insert_nullEm",
            "__ZN5realm7create2INS_5EqualENS_5MixedExEENS_5QueryERKNS_8Subexpr2IT0_EERKNS4_IT1_EE",
            "__ZN5realm7create2INS_4LessENS_10Decimal128ExEENS_5QueryERKNS_8Subexpr2IT0_EERKNS4_IT1_EE",
            "__ZN5realm4List6insertINS_8ObjectIdEEEvmT_",
            "__ZN5realm12make_subexprINS_7ColumnsINS_3LstINS_10StringDataEEEEEJRKS5_EEENSt3__110unique_ptrINS_7SubexprENS8_14default_deleteISA_EEEEDpOT0_",
            "__ZNK5realm3LstINSt3__18optionalIbEEE16clone_collectionEv",
            "__ZN5realm19ArrayFixedBytesNullINS_4UUIDELi16EE6insertEmRKNSt3__18optionalIS1_EE",
            "__ZN5realm3LstINS_10Decimal128EE3setEmS1_",
            "__ZN5realm3LstINSt3__18optionalIdEEE14ensure_createdEv",
            "__ZN5realm5_impl17TransactLogParser8read_intIjEET_v",
            "__ZNK5realm3Obj3getINS_7ObjLinkEEET_NS_6ColKeyE",
            "__ZNK5realm3LstINSt3__18optionalIfEEE4sortERNS1_6vectorImNS1_9allocatorImEEEEb",
            "__ZN5realm3LstIxE11insert_nullEm",
            "__ZNK5realm3LstINS_5MixedEE16init_from_parentEb",
            "__ZNK5realm3LstIdE5beginEv",
            "__ZNK5realm3LstINS_7ObjLinkEE3endEv",
            "__ZN5realm6createINS_8NotEqualExNS_5MixedEEENS_5QueryET0_RKNS_8Subexpr2IT1_EE",
            "__ZN5realm6createINS_8NotEqualENS_10Decimal128ENS_5MixedEEENS_5QueryET0_RKNS_8Subexpr2IT1_EE",
            "__ZN5realm7Results8index_ofINS_9TimestampEEEmRKT_",
            "__ZNK5realm11StringIndex8find_allIfEEvRNSt3__16vectorINS_6ObjKeyENS2_9allocatorIS4_EEEET_b",
            "__ZNK5realm3LstINS_10BinaryDataEEixEm",
            "__ZN5realm15ArrayFixedBytesINS_4UUIDELi16EE5eraseEm",
            "__ZN5realm3LstIxE6resizeEm",
            "__ZN5realm3LstINS_9TimestampEE7set_anyEmNS_5MixedE",
            "__ZN5realm3LstINSt3__18optionalIdEEE6removeEm",
            "__ZN5realm7create2INS_7GreaterENS_5MixedENS_9TimestampEEENS_5QueryERKNS_8Subexpr2IT0_EERKNS5_IT1_EE",
            "__ZNK5realm3LstINS_6ObjKeyEE5cloneEv",
            "__ZN5realm6createINS_12GreaterEqualENS_10Decimal128ES2_EENS_5QueryET0_RKNS_8Subexpr2IT1_EE",
            "__ZNK5realm3LstIdE3endEv",
            "__ZN5realm3LstINS_10BinaryDataEE8do_clearEv",
            "__ZN5realm3LstIxE6removeEm",
            "__ZN5realm12make_subexprINS_18SubColumnAggregateIfNS_20aggregate_operations7AverageIfEEEEJRKS5_EEENSt3__110unique_ptrINS_7SubexprENS8_14default_deleteISA_EEEEDpOT0_",
            "__ZNK5realm12object_store3Set4findIxEEmRKT_",
            "__ZN5realm12object_store3Set6insertIfEENSt3__14pairImbEET_",
            "__ZNK5realm12object_store3Set3getINS_10BinaryDataEEET_m",
            "__ZN5realm12make_subexprINS_18SubColumnAggregateIdNS_20aggregate_operations3SumIdEEEEJRKS5_EEENSt3__110unique_ptrINS_7SubexprENS8_14default_deleteISA_EEEEDpOT0_",
            "__ZNK5realm12object_store3Set4findINSt3__18optionalIdEEEEmRKT_",
            "__ZN5realm3LstINS_9TimestampEEaSEOS2_",
            "__ZN5realm19ArrayFixedBytesNullINS_4UUIDELi16EE8set_nullEm",
            "__ZN5realm7Results8index_ofINSt3__18optionalINS_4UUIDEEEEEmRKT_",
            "__ZNK5realm3LstINSt3__18optionalIdEEE4sizeEv",
            "__ZNK5realm3LstINS_8ObjectIdEE7is_nullEm",
            "__ZNK5realm3LstINS_10BinaryDataEE3avgEPm",
            "__ZNK5realm3LstIxE16init_from_parentEb",
            "__ZNSt3__111__introsortINS_17_ClassicAlgPolicyERNS_6__lessIvvEEPN5realm6ObjKeyELb0EEEvT1_S8_T0_NS_15iterator_traitsIS8_E15difference_typeEb",
            "__ZN5realm12object_store3Set6insertIdEENSt3__14pairImbEET_",
            "__ZNK5realm3LstINS_7ObjLinkEE3minEPm",
            "__ZN5realm3LstIdEC1ERKS1_",
            "__ZN5realm7Results8index_ofINSt3__18optionalINS_8ObjectIdEEEEEmRKT_",
            "__ZN5realm3LstIxE8do_clearEv",
            "__ZN5realm12make_subexprINS_18ConstantMixedValueEJRNS_9TimestampEEEENSt3__110unique_ptrINS_7SubexprENS4_14default_deleteIS6_EEEEDpOT0_",
            "__ZN5realm4List3setINS_4UUIDEEEvmT_",
            "__ZN5realm6createINS_7GreaterEddEENS_5QueryET0_RKNS_8Subexpr2IT1_EE",
            "__ZNK5realm3LstINSt3__18optionalIdEEE3avgEPm",
            "__ZN5realm12make_subexprINS_18ConstantMixedValueEJRfEEENSt3__110unique_ptrINS_7SubexprENS3_14default_deleteIS5_EEEEDpOT0_",
            "__ZN5realm6createINS_8NotEqualENS_8ObjectIdES2_EENS_5QueryET0_RKNS_8Subexpr2IT1_EE",
            "__ZN5realm3LstINS_9TimestampEE4swapEmm",
            "__ZN5realm3LstINS_10StringDataEE18unresolved_to_nullENS_5MixedE",
            "__ZN5realm3LstINSt3__18optionalIxEEE6do_setEmS3_",
            "__ZN5realm12make_subexprINS_25CollectionColumnAggregateIxNS_20aggregate_operations7AverageIxEEEEJRKS5_EEENSt3__110unique_ptrINS_7SubexprENS8_14default_deleteISA_EEEEDpOT0_",
            "__ZNK5realm15ArrayFixedBytesINS_8ObjectIdELi12EE3Pos9set_valueEPS2_RKS1_",
            "__ZN5realm3LstINSt3__18optionalINS_4UUIDEEEEC2ERKNS_3ObjENS_6ColKeyE",
            "__ZN5realm15ArrayFixedBytesINS_8ObjectIdELi12EE3addERKS1_",
            "__ZNK5realm3LstINS_7ObjLinkEE8get_treeEv",
            "__ZN5realm3LstINS_7ObjLinkEE3addES1_",
            "__ZNK5realm4List3getINS_4UUIDEEET_m",
            "__ZN5realm12make_subexprINS_18ConstantMixedValueEJRNS_4UUIDEEEENSt3__110unique_ptrINS_7SubexprENS4_14default_deleteIS6_EEEEDpOT0_",
            "__ZN5realm12make_subexprINS_8KeyValueEJNS_6ObjKeyEEEENSt3__110unique_ptrINS_7SubexprENS3_14default_deleteIS5_EEEEDpOT0_",
            "__ZN5realm15ArrayFixedBytesINS_4UUIDELi16EE4moveERS2_m",
            "__ZNK5realm3LstINS_5MixedEEixEm",
            "__ZN5realm3LstINSt3__18optionalIfEEE7set_anyEmNS_5MixedE",
            "__ZN5realm3LstINS_10Decimal128EE6removeEm",
            "__ZN5realm6createINS_7GreaterENS_10Decimal128ENS_5MixedEEENS_5QueryET0_RKNS_8Subexpr2IT1_EE",
            "__ZN5realm3LstIxEC1ERKS1_",
            "__ZNK5realm5Array11find_vtableINS_4LessELm0EEEbxmmmPNS_14QueryStateBaseE",
            "__ZNK5realm3LstIfE7is_nullEm",
            "__ZN5realm7Results3getINS_3ObjEEET_m",
            "__ZN5realm3Obj3setINS_10StringDataEEERS0_NS_6ColKeyET_b",
            "__ZN5realm3LstINSt3__18optionalINS_8ObjectIdEEEEC1ERKNS_3ObjENS_6ColKeyE",
            "__ZN5realm3LstINSt3__18optionalIxEEE14ensure_createdEv",
            "__ZN5realm6createINS_4LessENS_4nullEfEENS_5QueryET0_RKNS_8Subexpr2IT1_EE",
            "__ZNK5realm5Table10find_firstINS_4UUIDEEENS_6ObjKeyENS_6ColKeyET_",
            "__ZN5realm3LstINS_10StringDataEE6removeEmm",
            "__ZNK5realm3LstINSt3__18optionalIfEEE6updateEv",
            "__ZN5realm7Results4lastINSt3__18optionalINS_4UUIDEEEEENS3_IT_EEv",
            "__ZN5realm3LstINS_6ObjKeyEEC2ERKS2_",
            "__ZNK5realm3LstINSt3__18optionalIbEEE6do_getEmPKc",
            "__ZNK5realm3LstINS_6ObjKeyEE4sortERNSt3__16vectorImNS3_9allocatorImEEEEb",
            "__ZN5realm6createINS_5EqualExNS_10Decimal128EEENS_5QueryET0_RKNS_8Subexpr2IT1_EE",
            "__ZN5realm10BasicArrayIfE5eraseEm",
            "__ZNK5realm3LstINS_10BinaryDataEE16update_if_neededEv",
            "__ZN5realm3LstINS_4UUIDEE18unresolved_to_nullENS_5MixedE",
            "__ZN5realm3LstINSt3__18optionalINS_4UUIDEEEEC1ERKNS_3ObjENS_6ColKeyE",
            "__ZNK5realm5Array11find_vtableINS_4LessELm1EEEbxmmmPNS_14QueryStateBaseE",
            "__ZNK5realm5Array3getILm1EEExm",
            "__ZN5realm6createINS_5EqualENS_9TimestampENS_5MixedEEENS_5QueryET0_RKNS_8Subexpr2IT1_EE",
            "__ZN5realm4List3addINS_10StringDataEEEvT_",
            "__ZN5realm3LstINS_9TimestampEE6insertEmS1_",
            "__ZNSt3__112__hash_tableINS_17__hash_value_typeIyNS_8functionIFvRKN5realm3app3AppEEEEEENS_22__unordered_map_hasherIySA_NS_4hashIyEENS_8equal_toIyEELb1EEENS_21__unordered_map_equalIySA_SF_SD_Lb1EEENS_9allocatorISA_EEE14__erase_uniqueIyEEmRKT_",
            "__ZN5realm12make_subexprINS_10SubColumnsIdEEJRKS2_EEENSt3__110unique_ptrINS_7SubexprENS5_14default_deleteIS7_EEEEDpOT0_",
            "__ZNK5realm3LstINSt3__18optionalIdEEE3maxEPm",
            "__ZN5realm3LstINS_10StringDataEEaSEOS2_",
            "__ZNK5realm3LstINS_10BinaryDataEE15translate_indexEm",
            "__ZN5realm3LstINSt3__18optionalIdEEE4moveEmm",
            "__ZNK5realm3LstINS_6ObjKeyEE4sizeEv",
            "__ZNK5realm12object_store3Set3getINS_8ObjectIdEEET_m",
            "__ZNK5realm4List3getINS_10Decimal128EEET_m",
            "__ZN5realm3LstINSt3__18optionalIxEEEC2ERKNS_3ObjENS_6ColKeyE",
            "__ZN5realm3LstINS_10StringDataEEaSERKS2_",
            "__ZN5realm12object_store3Set6removeINS_8ObjectIdEEENSt3__14pairImbEERKT_",
            "__ZNK5realm15ArrayFixedBytesINS_4UUIDELi16EE10find_firstERKS1_mm",
            "__ZNK5realm3LstINSt3__18optionalIfEEE4sizeEv",
            "__ZN5realm6createINS_7GreaterEfNS_5MixedEEENS_5QueryET0_RKNS_8Subexpr2IT1_EE",
            "__ZN5realm3LstIbE6removeERKNS_18CollectionIteratorIS1_EE",
            "__ZN5realm3LstIbE9do_removeEm",
            "__ZNK5realm3LstINS_10BinaryDataEE3sumEPm",
            "__ZN5realm7create2INS_9LessEqualENS_10Decimal128EfEENS_5QueryERKNS_8Subexpr2IT0_EERKNS4_IT1_EE",
            "__ZN5realm3LstINSt3__18optionalIxEEEaSEOS4_",
            "__ZN5realm3LstINS_4UUIDEE3setEmS1_",
            "__ZNK5realm15ArrayFixedBytesINS_4UUIDELi16EE7is_nullEm",
            "__ZThn8_NK5realm15ArrayFixedBytesINS_8ObjectIdELi12EE13calc_byte_lenEmm",
            "__ZN5realm3LstINS_10BinaryDataEEC2ERKS2_",
            "__ZN5realm4List6insertINS_10BinaryDataEEEvmT_",
            "__ZN5realm7Results5firstINS_3ObjEEENSt3__18optionalIT_EEv",
            "__ZN5realm7compareINS_8NotEqualEEENS_5QueryERKNS_8Subexpr2INS_4LinkEEERKNS_3ObjE",
            "__ZNK5realm12object_store3Set3getINSt3__18optionalIbEEEET_m",
            "__ZN5realm3LstINSt3__18optionalIxEEE9do_removeEm",
            "__ZNK5realm3LstINSt3__18optionalIfEEE3getEm",
            "__ZN5realm3LstIbE4moveEmm",
            "__ZNK5realm5Table9aggregateINS_5MixedEEEvRNS_14QueryStateBaseENS_6ColKeyE",
            "__ZN5realm3LstIxEC1EOS1_",
            "__ZN5realm12object_store3Set6insertINS_6ObjKeyEEENSt3__14pairImbEET_",
            "__ZN5realm3LstINSt3__18optionalINS_8ObjectIdEEEE8do_clearEv",
            "__ZN5realm12make_subexprINS_18ConstantMixedValueEJRbEEENSt3__110unique_ptrINS_7SubexprENS3_14default_deleteIS5_EEEEDpOT0_",
            "__ZNK5realm5Array11find_vtableINS_7GreaterELm64EEEbxmmmPNS_14QueryStateBaseE",
            "__ZNK5realm3LstIdE6updateEv",
            "__ZNK5realm3LstIfE3maxEPm",
            "__ZNK5realm5Table10find_firstINSt3__18optionalIbEEEENS_6ObjKeyENS_6ColKeyET_",
            "__ZNK5realm5Table10find_firstINS_10StringDataEEENS_6ObjKeyENS_6ColKeyET_",
            "__ZN5realm7create2INS_9LessEqualENS_5MixedExEENS_5QueryERKNS_8Subexpr2IT0_EERKNS4_IT1_EE",
            "__ZN5realm3LstINS_8ObjectIdEE9do_removeEm",
            "__ZNK5realm3LstINS_10Decimal128EE3minEPm",
            "__ZN5realm6createINS_12GreaterEqualEffEENS_5QueryET0_RKNS_8Subexpr2IT1_EE",
            "__ZNK5realm5Array11find_vtableINS_7GreaterELm4EEEbxmmmPNS_14QueryStateBaseE",
            "__ZN5realm6createINS_12GreaterEqualEfNS_5MixedEEENS_5QueryET0_RKNS_8Subexpr2IT1_EE",
            "__ZNK5realm3LstINSt3__18optionalIxEEE4sizeEv",
            "__ZNSt3__112__hash_tableINS_17__hash_value_typeIyNS_8functionIFvRKN5realm8SyncUserEEEEEENS_22__unordered_map_hasherIyS9_NS_4hashIyEENS_8equal_toIyEELb1EEENS_21__unordered_map_equalIyS9_SE_SC_Lb1EEENS_9allocatorIS9_EEE4findIyEENS_15__hash_iteratorIPNS_11__hash_nodeIS9_PvEEEERKT_",
            "__ZN5realm3LstINS_7ObjLinkEEC1EOS2_",
            "__ZN5realm3LstINS_10StringDataEEC2EOS2_",
            "__ZNK5realm3LstINS_8ObjectIdEE16init_from_parentEb",
            "__ZN5realm7Results4lastINS_4UUIDEEENSt3__18optionalIT_EEv",
            "__ZN5realm3LstINS_8ObjectIdEE14ensure_createdEv",
            "__ZNK5realm11StringIndex8find_allINS_8ObjectIdEEEvRNSt3__16vectorINS_6ObjKeyENS3_9allocatorIS5_EEEET_b",
            "__ZN5realm15make_expressionINS_7CompareINS_7GreaterEEEJNSt3__110unique_ptrINS_7SubexprENS4_14default_deleteIS6_EEEES9_EEENS5_INS_10ExpressionENS7_ISA_EEEEDpOT0_",
            "__ZNK5realm5Table10find_firstINSt3__18optionalIxEEEENS_6ObjKeyENS_6ColKeyET_",
            "__ZN5realm5_impl17TransactLogParser9parse_oneINS0_23NullInstructionObserverEEEvRT_",
            "__ZN5realm7create2INS_12GreaterEqualExxEENS_5QueryERKNS_8Subexpr2IT0_EERKNS3_IT1_EE",
            "__ZNK5realm3LstINSt3__18optionalINS_8ObjectIdEEEE6do_getEmPKc",
            "__ZNK5realm3LstINSt3__18optionalIbEEE3maxEPm",
            "__ZN5realm12make_subexprINS_25CollectionColumnAggregateINS_10Decimal128ENS_20aggregate_operations7MaximumIS2_EEEEJRKS6_EEENSt3__110unique_ptrINS_7SubexprENS9_14default_deleteISB_EEEEDpOT0_",
            "__ZN5realm3LstINS_10BinaryDataEE3setEmS1_",
            "__ZNK5realm3LstINSt3__18optionalIxEEE10find_firstERKS3_",
            "__ZN5realm3LstIxE8set_nullEm",
            "__ZN5realm6createINS_8NotEqualENS_8ObjectIdENS_5MixedEEENS_5QueryET0_RKNS_8Subexpr2IT1_EE",
            "__ZN5realm3Obj3setINS_4UUIDEEERS0_NS_6ColKeyET_b",
            "__ZN5realm12object_store3Set6removeIbEENSt3__14pairImbEERKT_",
            "__ZNK5realm3LstIdE15translate_indexEm",
            "__ZNK5realm3LstINSt3__18optionalIfEEE16update_if_neededEv",
            "__ZNK5realm3LstIfE3getEm",
            "__ZN5realm3LstINS_8ObjectIdEE6insertEmS1_",
            "__ZNK5realm12object_store3Set3getIfEET_m",
            "__ZN5realm4List6insertINS_4UUIDEEEvmT_",
            "__ZNK5realm3LstINSt3__18optionalIdEEE7is_nullEm",
            "__ZN5realm7create2INS_8NotEqualENS_5MixedEdEENS_5QueryERKNS_8Subexpr2IT0_EERKNS4_IT1_EE",
            "__ZNK5realm5Array11find_vtableINS_5EqualELm64EEEbxmmmPNS_14QueryStateBaseE",
            "__ZN5realm3LstINS_9TimestampEEC1EOS2_",
            "__ZNK5realm3LstINS_7ObjLinkEE8find_anyENS_5MixedE",
            "__ZN5realm3LstIfE8do_clearEv",
            "__ZNK5realm3LstIdE6do_getEmPKc",
            "__ZN5realm3LstINS_8ObjectIdEE6removeEm",
            "__ZN5realm3LstIdE18unresolved_to_nullENS_5MixedE",
            "__ZN5realm4List6insertINS_10Decimal128EEEvmT_",
            "__ZN5realm3LstINS_5MixedEEC1ERKS2_",
            "__ZN5realm4util6formatIJNS_10StringDataES2_EEENSt3__112basic_stringIcNS3_11char_traitsIcEENS3_9allocatorIcEEEEPKcDpOT_",
            "__ZN5realm7Results3getINS_10StringDataEEET_m",
            "__ZN5realm6createINS_8NotEqualENS_4nullEdEENS_5QueryET0_RKNS_8Subexpr2IT1_EE",
            "__ZNK5realm3LstIfE3endEv",
            "__ZN5realm3LstINS_9TimestampEE6removeEm",
            "__ZN5realm3LstINS_10StringDataEE3addES1_",
            "__ZN5realm3LstINS_8ObjectIdEE6resizeEm",
            "__ZN5realm3LstINS_9TimestampEE6removeEmm",
            "__ZN5realm3LstIbE14ensure_createdEv",
            "__ZN5realm7create2INS_8NotEqualENS_10Decimal128EdEENS_5QueryERKNS_8Subexpr2IT0_EERKNS4_IT1_EE",
            "__ZN5realm3LstINS_5MixedEE6removeERKNS_18CollectionIteratorIS2_EE",
            "__ZNK5realm3LstIfE7get_anyEm",
            "__ZNK5realm3LstIxE3avgEPm",
            "__ZN5realm19ArrayFixedBytesNullINS_4UUIDELi16EEC1ERNS_9AllocatorE",
            "__ZN5realm12make_subexprINS_18ConstantMixedValueEJRNS_5MixedEEEENSt3__110unique_ptrINS_7SubexprENS4_14default_deleteIS6_EEEEDpOT0_",
            "__ZN5realm12make_subexprINS_7ColumnsINS_8ObjectIdEEEJRKS3_EEENSt3__110unique_ptrINS_7SubexprENS6_14default_deleteIS8_EEEEDpOT0_",
            "__ZNK5realm3Obj3getINSt3__18optionalIfEEEET_NS_6ColKeyE",
            "__ZNK5realm5Array9get_chunkILm64EEEvmPx",
            "__ZN5realm12make_subexprINS_7ColumnsINS_3SetINS_4UUIDEEEEEJRKS5_EEENSt3__110unique_ptrINS_7SubexprENS8_14default_deleteISA_EEEEDpOT0_",
            "__ZN5realm3LstIdE6removeERKNS_18CollectionIteratorIS1_EE",
            "__ZN5realm12object_store10Dictionary6insertINS_10Decimal128EEEvNS_10StringDataET_",
            "__ZNK5realm3LstINS_7ObjLinkEE3getEm",
            "__ZNK5realm3LstINS_6ObjKeyEE3endEv",
            "__ZNK5realm3LstINS_5MixedEE3endEv",
            "__ZNK5realm3LstINS_5MixedEE3avgEPm",
            "__ZN5realm6createINS_8NotEqualEfNS_10Decimal128EEENS_5QueryET0_RKNS_8Subexpr2IT1_EE",
            "__ZNK5realm3LstINS_10StringDataEE16clone_collectionEv",
            "__ZN5realm3LstINS_10Decimal128EEaSERKS2_",
            "__ZN5realm3LstINSt3__18optionalINS_4UUIDEEEEaSERKS5_",
            "__ZN5realm12object_store3Set6removeINS_10Decimal128EEENSt3__14pairImbEERKT_",
            "__ZN5realm7Results4lastIbEENSt3__18optionalIT_EEv",
            "__ZNK5realm4List3getIbEET_m",
            "__ZN5realm6createINS_8NotEqualENS_4nullExEENS_5QueryET0_RKNS_8Subexpr2IT1_EE",
            "__ZN5realm3LstINS_6ObjKeyEE3addES1_",
            "__ZNK5realm3LstIbE16init_from_parentEb",
            "__ZN5realm3LstINSt3__18optionalIfEEEaSEOS4_",
            "__ZN5realm3LstIxE6removeEmm",
            "__ZN5realm3LstINSt3__18optionalIxEEE6insertEmS3_",
            "__ZN5realm7create2INS_9LessEqualENS_10Decimal128ENS_5MixedEEENS_5QueryERKNS_8Subexpr2IT0_EERKNS5_IT1_EE",
            "__ZN5realm3LstINS_6ObjKeyEE6insertEmS1_",
            "__ZNK5realm3LstINS_9TimestampEE3getEm",
            "__ZNK5realm3LstINS_8ObjectIdEE3minEPm",
            "__ZN5realm3LstINS_6ObjKeyEEaSEOS2_",
            "__ZN5realm3LstINS_10Decimal128EE4swapEmm",
            "__ZNK5realm5Table10find_firstIxEENS_6ObjKeyENS_6ColKeyET_",
            "__ZNK5realm3LstIfE3avgEPm",
            "__ZN5realm12object_store3Set6insertINS_10StringDataEEENSt3__14pairImbEET_",
            "__ZN5realm7create2INS_5EqualENS_10Decimal128ENS_5MixedEEENS_5QueryERKNS_8Subexpr2IT0_EERKNS5_IT1_EE",
            "__ZN5realm3LstINSt3__18optionalIxEEE9do_insertEmS3_",
            "__ZN5realm3LstINS_8ObjectIdEE18unresolved_to_nullENS_5MixedE",
            "__ZN5realm3LstINSt3__18optionalIdEEE6insertEmS3_",
            "__ZNSt3__16__treeINS_12__value_typeINS_12basic_stringIcNS_11char_traitsIcEENS_9allocatorIcEEEES7_EENS_19__map_value_compareIS7_S8_NS_4lessIS7_EELb1EEENS5_IS8_EEE16__construct_nodeIJRKNS_21piecewise_construct_tENS_5tupleIJOS7_EEENSJ_IJEEEEEENS_10unique_ptrINS_11__tree_nodeIS8_PvEENS_22__tree_node_destructorINS5_ISQ_EEEEEEDpOT_",
            "__ZN5realm3LstINS_10StringDataEE7set_anyEmNS_5MixedE",
            "__ZNSt3__112__hash_tableINS_17__hash_value_typeIjU8__strongP13RLMObjectBaseEENS_22__unordered_map_hasherIjS5_NS_4hashIjEENS_8equal_toIjEELb1EEENS_21__unordered_map_equalIjS5_SA_S8_Lb1EEENS_9allocatorIS5_EEE8__rehashILb1EEEvm",
            "__ZN5realm3LstINSt3__18optionalINS_4UUIDEEEE9do_insertEmS4_",
            "__ZN5realm7create2INS_5EqualEddEENS_5QueryERKNS_8Subexpr2IT0_EERKNS3_IT1_EE",
            "__ZN5realm3LstINS_7ObjLinkEE6removeEmm",
            "__ZN5realm7Results3getINSt3__18optionalIbEEEET_m",
            "__ZN5realm12make_subexprINS_7ColumnsINS_10BinaryDataEEEJRKS3_EEENSt3__110unique_ptrINS_7SubexprENS6_14default_deleteIS8_EEEEDpOT0_",
            "__ZN5realm5Array3setILm16EEEvmx",
